; ModuleID = 'CSkinnedMesh.cpp'
target datalayout = "e-m:e-i64:64-f80:128-n8:16:32:64-S128"
target triple = "x86_64-unknown-linux-gnu"

%"class.irr::core::string" = type { i8*, i32, i32, %"class.irr::core::irrAllocator" }
%"class.irr::core::irrAllocator" = type { i32 (...)** }
%"class.irr::scene::CSkinnedMesh" = type <{ %"class.irr::scene::ISkinnedMesh.base", %"class.irr::core::array"*, %"class.irr::core::array", %"class.irr::core::array.14", %"class.irr::core::array.14", %"class.irr::core::array.17", %"class.irr::core::aabbox3d", float, float, float, i8, i8, i8, i8, i8, i8, [6 x i8], %"class.irr::IReferenceCounted.base", [4 x i8] }>
%"class.irr::scene::ISkinnedMesh.base" = type { %"class.irr::scene::IAnimatedMesh.base" }
%"class.irr::scene::IAnimatedMesh.base" = type { %"class.irr::scene::IMesh.base" }
%"class.irr::scene::IMesh.base" = type { i32 (...)** }
%"class.irr::core::array" = type <{ %"struct.irr::scene::SSkinMeshBuffer"**, i32, i32, %"class.irr::core::irrAllocator.12", i8, [7 x i8] }>
%"struct.irr::scene::SSkinMeshBuffer" = type <{ %"class.irr::scene::IMeshBuffer.base", %"class.irr::core::array.0", %"class.irr::core::array.2", %"class.irr::core::array.5", %"class.irr::core::array.8", i32, i32, %"class.irr::core::CMatrix4", %"class.irr::video::SMaterial", i32, %"class.irr::core::aabbox3d", i8, [3 x i8], i32, [4 x i8], %"class.irr::IReferenceCounted.base", [4 x i8] }>
%"class.irr::scene::IMeshBuffer.base" = type { i32 (...)** }
%"class.irr::core::array.0" = type <{ %"struct.irr::video::S3DVertexTangents"*, i32, i32, %"class.irr::core::irrAllocator.1", i8, [7 x i8] }>
%"struct.irr::video::S3DVertexTangents" = type { %"struct.irr::video::S3DVertex", %"class.irr::core::vector3d", %"class.irr::core::vector3d" }
%"struct.irr::video::S3DVertex" = type { %"class.irr::core::vector3d", %"class.irr::core::vector3d", %"class.irr::video::SColor", %"class.irr::core::vector2d" }
%"class.irr::video::SColor" = type { i32 }
%"class.irr::core::vector2d" = type { float, float }
%"class.irr::core::vector3d" = type { float, float, float }
%"class.irr::core::irrAllocator.1" = type { i32 (...)** }
%"class.irr::core::array.2" = type <{ %"struct.irr::video::S3DVertex2TCoords"*, i32, i32, %"class.irr::core::irrAllocator.3", i8, [7 x i8] }>
%"struct.irr::video::S3DVertex2TCoords" = type { %"struct.irr::video::S3DVertex", %"class.irr::core::vector2d" }
%"class.irr::core::irrAllocator.3" = type { i32 (...)** }
%"class.irr::core::array.5" = type <{ %"struct.irr::video::S3DVertex"*, i32, i32, %"class.irr::core::irrAllocator.6", i8, [7 x i8] }>
%"class.irr::core::irrAllocator.6" = type { i32 (...)** }
%"class.irr::core::array.8" = type <{ i16*, i32, i32, %"class.irr::core::irrAllocator.9", i8, [7 x i8] }>
%"class.irr::core::irrAllocator.9" = type { i32 (...)** }
%"class.irr::core::CMatrix4" = type { [16 x float] }
%"class.irr::video::SMaterial" = type <{ [8 x %"class.irr::video::SMaterialLayer"], i32, %"class.irr::video::SColor", %"class.irr::video::SColor", %"class.irr::video::SColor", %"class.irr::video::SColor", float, float, float, float, i8, i8, i32, [6 x i8] }>
%"class.irr::video::SMaterialLayer" = type { %"class.irr::video::ITexture"*, i16, i8, i8, %"class.irr::core::irrAllocator.11", %"class.irr::core::CMatrix4"* }
%"class.irr::video::ITexture" = type { i32 (...)**, %"struct.irr::io::SNamedPath", %"class.irr::IReferenceCounted.base" }
%"struct.irr::io::SNamedPath" = type { %"class.irr::core::string", %"class.irr::core::string" }
%"class.irr::core::irrAllocator.11" = type { i32 (...)** }
%"class.irr::core::irrAllocator.12" = type { i32 (...)** }
%"class.irr::core::array.14" = type <{ %"struct.irr::scene::ISkinnedMesh::SJoint"**, i32, i32, %"class.irr::core::irrAllocator.15", i8, [7 x i8] }>
%"struct.irr::scene::ISkinnedMesh::SJoint" = type { %"class.irr::core::string", %"class.irr::core::CMatrix4", %"class.irr::core::array.14", %"class.irr::core::array.23", %"class.irr::core::array.26", %"class.irr::core::array.29", %"class.irr::core::array.32", %"class.irr::core::array.35", %"class.irr::core::CMatrix4", %"class.irr::core::CMatrix4", %"class.irr::core::CMatrix4", %"class.irr::core::vector3d", %"class.irr::core::vector3d", %"class.irr::core::quaternion", %"class.irr::core::CMatrix4", %"struct.irr::scene::ISkinnedMesh::SJoint"*, i8, i32, i32, i32 }
%"class.irr::core::array.23" = type <{ i32*, i32, i32, %"class.irr::core::irrAllocator.24", i8, [7 x i8] }>
%"class.irr::core::irrAllocator.24" = type { i32 (...)** }
%"class.irr::core::array.26" = type <{ %"struct.irr::scene::ISkinnedMesh::SPositionKey"*, i32, i32, %"class.irr::core::irrAllocator.27", i8, [7 x i8] }>
%"struct.irr::scene::ISkinnedMesh::SPositionKey" = type { float, %"class.irr::core::vector3d" }
%"class.irr::core::irrAllocator.27" = type { i32 (...)** }
%"class.irr::core::array.29" = type <{ %"struct.irr::scene::ISkinnedMesh::SScaleKey"*, i32, i32, %"class.irr::core::irrAllocator.30", i8, [7 x i8] }>
%"struct.irr::scene::ISkinnedMesh::SScaleKey" = type { float, %"class.irr::core::vector3d" }
%"class.irr::core::irrAllocator.30" = type { i32 (...)** }
%"class.irr::core::array.32" = type <{ %"struct.irr::scene::ISkinnedMesh::SRotationKey"*, i32, i32, %"class.irr::core::irrAllocator.33", i8, [7 x i8] }>
%"struct.irr::scene::ISkinnedMesh::SRotationKey" = type { float, %"class.irr::core::quaternion" }
%"class.irr::core::irrAllocator.33" = type { i32 (...)** }
%"class.irr::core::array.35" = type <{ %"struct.irr::scene::ISkinnedMesh::SWeight"*, i32, i32, %"class.irr::core::irrAllocator.36", i8, [7 x i8] }>
%"struct.irr::scene::ISkinnedMesh::SWeight" = type { i16, i32, float, i8*, %"class.irr::core::vector3d", %"class.irr::core::vector3d" }
%"class.irr::core::irrAllocator.36" = type { i32 (...)** }
%"class.irr::core::quaternion" = type { float, float, float, float }
%"class.irr::core::irrAllocator.15" = type { i32 (...)** }
%"class.irr::core::array.17" = type <{ %"class.irr::core::array.18"*, i32, i32, %"class.irr::core::irrAllocator.21", i8, [7 x i8] }>
%"class.irr::core::array.18" = type <{ i8*, i32, i32, %"class.irr::core::irrAllocator.19", i8, [7 x i8] }>
%"class.irr::core::irrAllocator.19" = type { i32 (...)** }
%"class.irr::core::irrAllocator.21" = type { i32 (...)** }
%"class.irr::core::aabbox3d" = type { %"class.irr::core::vector3d", %"class.irr::core::vector3d" }
%"class.irr::IReferenceCounted.base" = type <{ i32 (...)**, i8*, i32 }>
%"class.irr::scene::ISkinnedMesh" = type { %"class.irr::scene::IAnimatedMesh.base", %"class.irr::IReferenceCounted.base" }
%"class.irr::scene::IAnimatedMesh" = type { %"class.irr::scene::IMesh.base", %"class.irr::IReferenceCounted.base" }
%"class.irr::IReferenceCounted" = type <{ i32 (...)**, i8*, i32, [4 x i8] }>
%"class.irr::scene::IMesh" = type { i32 (...)**, %"class.irr::IReferenceCounted.base" }
%"class.irr::scene::IMeshBuffer" = type { i32 (...)**, %"class.irr::IReferenceCounted.base" }
%"class.irr::core::array.38" = type <{ %"class.irr::core::array.39"*, i32, i32, %"class.irr::core::irrAllocator.42", i8, [7 x i8] }>
%"class.irr::core::array.39" = type <{ float*, i32, i32, %"class.irr::core::irrAllocator.40", i8, [7 x i8] }>
%"class.irr::core::irrAllocator.40" = type { i32 (...)** }
%"class.irr::core::irrAllocator.42" = type { i32 (...)** }
%"class.irr::core::array.44" = type <{ %"class.irr::scene::IBoneSceneNode"**, i32, i32, %"class.irr::core::irrAllocator.48", i8, [7 x i8] }>
%"class.irr::scene::IBoneSceneNode" = type { %"class.irr::scene::ISceneNode.base", i32, i32, i32, [4 x i8], %"class.irr::IReferenceCounted.base", [4 x i8] }
%"class.irr::scene::ISceneNode.base" = type <{ %"class.irr::io::IAttributeExchangingObject.base", %"class.irr::core::string", %"class.irr::core::CMatrix4", %"class.irr::core::vector3d", %"class.irr::core::vector3d", %"class.irr::core::vector3d", [4 x i8], %"class.irr::scene::ISceneNode"*, %"class.irr::core::list", %"class.irr::core::list.46", %"class.irr::scene::ISceneManager"*, %"class.irr::scene::ITriangleSelector"*, i32, i32, i32, i8, i8 }>
%"class.irr::io::IAttributeExchangingObject.base" = type { i32 (...)** }
%"class.irr::scene::ISceneNode" = type <{ %"class.irr::io::IAttributeExchangingObject.base", %"class.irr::core::string", %"class.irr::core::CMatrix4", %"class.irr::core::vector3d", %"class.irr::core::vector3d", %"class.irr::core::vector3d", [4 x i8], %"class.irr::scene::ISceneNode"*, %"class.irr::core::list", %"class.irr::core::list.46", %"class.irr::scene::ISceneManager"*, %"class.irr::scene::ITriangleSelector"*, i32, i32, i32, i8, i8, [2 x i8], %"class.irr::IReferenceCounted.base", [4 x i8] }>
%"class.irr::core::list" = type { %"struct.irr::core::list<irr::scene::ISceneNode *>::SKListNode"*, %"struct.irr::core::list<irr::scene::ISceneNode *>::SKListNode"*, i32, %"class.irr::core::irrAllocator.45" }
%"struct.irr::core::list<irr::scene::ISceneNode *>::SKListNode" = type { %"struct.irr::core::list<irr::scene::ISceneNode *>::SKListNode"*, %"struct.irr::core::list<irr::scene::ISceneNode *>::SKListNode"*, %"class.irr::scene::ISceneNode"* }
%"class.irr::core::irrAllocator.45" = type { i32 (...)** }
%"class.irr::core::list.46" = type { %"struct.irr::core::list<irr::scene::ISceneNodeAnimator *>::SKListNode"*, %"struct.irr::core::list<irr::scene::ISceneNodeAnimator *>::SKListNode"*, i32, %"class.irr::core::irrAllocator.47" }
%"struct.irr::core::list<irr::scene::ISceneNodeAnimator *>::SKListNode" = type { %"struct.irr::core::list<irr::scene::ISceneNodeAnimator *>::SKListNode"*, %"struct.irr::core::list<irr::scene::ISceneNodeAnimator *>::SKListNode"*, %"class.irr::scene::ISceneNodeAnimator"* }
%"class.irr::scene::ISceneNodeAnimator" = type { %"class.irr::io::IAttributeExchangingObject.base", %"class.irr::IEventReceiver", %"class.irr::IReferenceCounted.base" }
%"class.irr::IEventReceiver" = type { i32 (...)** }
%"class.irr::core::irrAllocator.47" = type { i32 (...)** }
%"class.irr::scene::ISceneManager" = type opaque
%"class.irr::scene::ITriangleSelector" = type { i32 (...)**, %"class.irr::IReferenceCounted.base" }
%"class.irr::core::irrAllocator.48" = type { i32 (...)** }
%"class.irr::core::vector3d.50" = type { double, double, double }
%"class.irr::scene::IAnimatedMeshSceneNode" = type { %"class.irr::scene::ISceneNode.base", [2 x i8], %"class.irr::IReferenceCounted.base", [4 x i8] }
%"class.irr::scene::CBoneSceneNode" = type { %"class.irr::scene::IBoneSceneNode.base", i32, %"class.irr::core::aabbox3d", i32, i32, %"class.irr::IReferenceCounted.base", [4 x i8] }
%"class.irr::scene::IBoneSceneNode.base" = type { %"class.irr::scene::ISceneNode.base", i32, i32, i32 }

@_ZN3irr5scene6quake3L15irrEmptyStringcE = internal global %"class.irr::core::string" zeroinitializer, align 8
@.str = private unnamed_addr constant [1 x i8] zeroinitializer, align 1
@__dso_handle = external global i8
@_ZTVN3irr5scene12CSkinnedMeshE = unnamed_addr constant [45 x i8*] [i8* inttoptr (i64 192 to i8*), i8* null, i8* bitcast ({ i8*, i8*, i8* }* @_ZTIN3irr5scene12CSkinnedMeshE to i8*), i8* bitcast (i32 (%"class.irr::scene::CSkinnedMesh"*)* @_ZNK3irr5scene12CSkinnedMesh18getMeshBufferCountEv to i8*), i8* bitcast (%"class.irr::scene::IMeshBuffer"* (%"class.irr::scene::CSkinnedMesh"*, i32)* @_ZNK3irr5scene12CSkinnedMesh13getMeshBufferEj to i8*), i8* bitcast (%"class.irr::scene::IMeshBuffer"* (%"class.irr::scene::CSkinnedMesh"*, %"class.irr::video::SMaterial"*)* @_ZNK3irr5scene12CSkinnedMesh13getMeshBufferERKNS_5video9SMaterialE to i8*), i8* bitcast (%"class.irr::core::aabbox3d"* (%"class.irr::scene::CSkinnedMesh"*)* @_ZNK3irr5scene12CSkinnedMesh14getBoundingBoxEv to i8*), i8* bitcast (void (%"class.irr::scene::CSkinnedMesh"*, %"class.irr::core::aabbox3d"*)* @_ZN3irr5scene12CSkinnedMesh14setBoundingBoxERKNS_4core8aabbox3dIfEE to i8*), i8* bitcast (void (%"class.irr::scene::CSkinnedMesh"*, i32, i1)* @_ZN3irr5scene12CSkinnedMesh15setMaterialFlagENS_5video15E_MATERIAL_FLAGEb to i8*), i8* bitcast (void (%"class.irr::scene::CSkinnedMesh"*, i32, i32)* @_ZN3irr5scene12CSkinnedMesh22setHardwareMappingHintENS0_18E_HARDWARE_MAPPINGENS0_13E_BUFFER_TYPEE to i8*), i8* bitcast (void (%"class.irr::scene::CSkinnedMesh"*, i32)* @_ZN3irr5scene12CSkinnedMesh8setDirtyENS0_13E_BUFFER_TYPEE to i8*), i8* bitcast (void (%"class.irr::scene::CSkinnedMesh"*)* @_ZN3irr5scene12CSkinnedMeshD1Ev to i8*), i8* bitcast (void (%"class.irr::scene::CSkinnedMesh"*)* @_ZN3irr5scene12CSkinnedMeshD0Ev to i8*), i8* bitcast (i32 (%"class.irr::scene::CSkinnedMesh"*)* @_ZNK3irr5scene12CSkinnedMesh13getFrameCountEv to i8*), i8* bitcast (float (%"class.irr::scene::CSkinnedMesh"*)* @_ZNK3irr5scene12CSkinnedMesh17getAnimationSpeedEv to i8*), i8* bitcast (void (%"class.irr::scene::CSkinnedMesh"*, float)* @_ZN3irr5scene12CSkinnedMesh17setAnimationSpeedEf to i8*), i8* bitcast (%"class.irr::scene::IMesh"* (%"class.irr::scene::CSkinnedMesh"*, i32, i32, i32, i32)* @_ZN3irr5scene12CSkinnedMesh7getMeshEiiii to i8*), i8* bitcast (i32 (%"class.irr::scene::CSkinnedMesh"*)* @_ZNK3irr5scene12CSkinnedMesh11getMeshTypeEv to i8*), i8* bitcast (i32 (%"class.irr::scene::CSkinnedMesh"*)* @_ZNK3irr5scene12CSkinnedMesh13getJointCountEv to i8*), i8* bitcast (i8* (%"class.irr::scene::CSkinnedMesh"*, i32)* @_ZNK3irr5scene12CSkinnedMesh12getJointNameEj to i8*), i8* bitcast (i32 (%"class.irr::scene::CSkinnedMesh"*, i8*)* @_ZNK3irr5scene12CSkinnedMesh14getJointNumberEPKc to i8*), i8* bitcast (i1 (%"class.irr::scene::CSkinnedMesh"*, %"class.irr::scene::ISkinnedMesh"*)* @_ZN3irr5scene12CSkinnedMesh16useAnimationFromEPKNS0_12ISkinnedMeshE to i8*), i8* bitcast (void (%"class.irr::scene::CSkinnedMesh"*, i1)* @_ZN3irr5scene12CSkinnedMesh26updateNormalsWhenAnimatingEb to i8*), i8* bitcast (void (%"class.irr::scene::CSkinnedMesh"*, i32)* @_ZN3irr5scene12CSkinnedMesh20setInterpolationModeENS0_20E_INTERPOLATION_MODEE to i8*), i8* bitcast (void (%"class.irr::scene::CSkinnedMesh"*, float, float)* @_ZN3irr5scene12CSkinnedMesh11animateMeshEff to i8*), i8* bitcast (void (%"class.irr::scene::CSkinnedMesh"*, float)* @_ZN3irr5scene12CSkinnedMesh8skinMeshEf to i8*), i8* bitcast (void (%"class.irr::scene::CSkinnedMesh"*)* @_ZN3irr5scene12CSkinnedMesh21convertMeshToTangentsEv to i8*), i8* bitcast (i1 (%"class.irr::scene::CSkinnedMesh"*, i1)* @_ZN3irr5scene12CSkinnedMesh19setHardwareSkinningEb to i8*), i8* bitcast (%"class.irr::core::array"* (%"class.irr::scene::CSkinnedMesh"*)* @_ZN3irr5scene12CSkinnedMesh14getMeshBuffersEv to i8*), i8* bitcast (%"class.irr::core::array.14"* (%"class.irr::scene::CSkinnedMesh"*)* @_ZN3irr5scene12CSkinnedMesh12getAllJointsEv to i8*), i8* bitcast (%"class.irr::core::array.14"* (%"class.irr::scene::CSkinnedMesh"*)* @_ZNK3irr5scene12CSkinnedMesh12getAllJointsEv to i8*), i8* bitcast (void (%"class.irr::scene::CSkinnedMesh"*)* @_ZN3irr5scene12CSkinnedMesh8finalizeEv to i8*), i8* bitcast (%"struct.irr::scene::SSkinMeshBuffer"* (%"class.irr::scene::CSkinnedMesh"*)* @_ZN3irr5scene12CSkinnedMesh13addMeshBufferEv to i8*), i8* bitcast (%"struct.irr::scene::ISkinnedMesh::SJoint"* (%"class.irr::scene::CSkinnedMesh"*, %"struct.irr::scene::ISkinnedMesh::SJoint"*)* @_ZN3irr5scene12CSkinnedMesh8addJointEPNS0_12ISkinnedMesh6SJointE to i8*), i8* bitcast (%"struct.irr::scene::ISkinnedMesh::SWeight"* (%"class.irr::scene::CSkinnedMesh"*, %"struct.irr::scene::ISkinnedMesh::SJoint"*)* @_ZN3irr5scene12CSkinnedMesh9addWeightEPNS0_12ISkinnedMesh6SJointE to i8*), i8* bitcast (%"struct.irr::scene::ISkinnedMesh::SPositionKey"* (%"class.irr::scene::CSkinnedMesh"*, %"struct.irr::scene::ISkinnedMesh::SJoint"*)* @_ZN3irr5scene12CSkinnedMesh14addPositionKeyEPNS0_12ISkinnedMesh6SJointE to i8*), i8* bitcast (%"struct.irr::scene::ISkinnedMesh::SScaleKey"* (%"class.irr::scene::CSkinnedMesh"*, %"struct.irr::scene::ISkinnedMesh::SJoint"*)* @_ZN3irr5scene12CSkinnedMesh11addScaleKeyEPNS0_12ISkinnedMesh6SJointE to i8*), i8* bitcast (%"struct.irr::scene::ISkinnedMesh::SRotationKey"* (%"class.irr::scene::CSkinnedMesh"*, %"struct.irr::scene::ISkinnedMesh::SJoint"*)* @_ZN3irr5scene12CSkinnedMesh14addRotationKeyEPNS0_12ISkinnedMesh6SJointE to i8*), i8* bitcast (i1 (%"class.irr::scene::CSkinnedMesh"*)* @_ZN3irr5scene12CSkinnedMesh8isStaticEv to i8*), i8* bitcast (void (%"class.irr::scene::CSkinnedMesh"*)* @_ZN3irr5scene12CSkinnedMesh17updateBoundingBoxEv to i8*), i8* inttoptr (i64 -192 to i8*), i8* inttoptr (i64 -192 to i8*), i8* bitcast ({ i8*, i8*, i8* }* @_ZTIN3irr5scene12CSkinnedMeshE to i8*), i8* bitcast (void (%"class.irr::scene::CSkinnedMesh"*)* @_ZTv0_n24_N3irr5scene12CSkinnedMeshD1Ev to i8*), i8* bitcast (void (%"class.irr::scene::CSkinnedMesh"*)* @_ZTv0_n24_N3irr5scene12CSkinnedMeshD0Ev to i8*)], align 8
@_ZTTN3irr5scene12CSkinnedMeshE = unnamed_addr constant [8 x i8*] [i8* bitcast (i8** getelementptr inbounds ([45 x i8*]* @_ZTVN3irr5scene12CSkinnedMeshE, i64 0, i64 3) to i8*), i8* bitcast (i8** getelementptr inbounds ([44 x i8*]* @_ZTCN3irr5scene12CSkinnedMeshE0_NS0_12ISkinnedMeshE, i64 0, i64 3) to i8*), i8* bitcast (i8** getelementptr inbounds ([23 x i8*]* @_ZTCN3irr5scene12CSkinnedMeshE0_NS0_13IAnimatedMeshE, i64 0, i64 3) to i8*), i8* bitcast (i8** getelementptr inbounds ([18 x i8*]* @_ZTCN3irr5scene12CSkinnedMeshE0_NS0_5IMeshE, i64 0, i64 3) to i8*), i8* bitcast (i8** getelementptr inbounds ([18 x i8*]* @_ZTCN3irr5scene12CSkinnedMeshE0_NS0_5IMeshE, i64 0, i64 16) to i8*), i8* bitcast (i8** getelementptr inbounds ([23 x i8*]* @_ZTCN3irr5scene12CSkinnedMeshE0_NS0_13IAnimatedMeshE, i64 0, i64 21) to i8*), i8* bitcast (i8** getelementptr inbounds ([44 x i8*]* @_ZTCN3irr5scene12CSkinnedMeshE0_NS0_12ISkinnedMeshE, i64 0, i64 42) to i8*), i8* bitcast (i8** getelementptr inbounds ([45 x i8*]* @_ZTVN3irr5scene12CSkinnedMeshE, i64 0, i64 43) to i8*)]
@.str1 = private unnamed_addr constant [41 x i8] c"Skinned Mesh: Weight buffer id too large\00", align 1
@.str2 = private unnamed_addr constant [41 x i8] c"Skinned Mesh: Weight vertex id too large\00", align 1
@_ZTCN3irr5scene12CSkinnedMeshE0_NS0_12ISkinnedMeshE = unnamed_addr constant [44 x i8*] [i8* inttoptr (i64 192 to i8*), i8* null, i8* bitcast ({ i8*, i8*, i8* }* @_ZTIN3irr5scene12ISkinnedMeshE to i8*), i8* bitcast (void ()* @__cxa_pure_virtual to i8*), i8* bitcast (void ()* @__cxa_pure_virtual to i8*), i8* bitcast (void ()* @__cxa_pure_virtual to i8*), i8* bitcast (void ()* @__cxa_pure_virtual to i8*), i8* bitcast (void ()* @__cxa_pure_virtual to i8*), i8* bitcast (void ()* @__cxa_pure_virtual to i8*), i8* bitcast (void ()* @__cxa_pure_virtual to i8*), i8* bitcast (void ()* @__cxa_pure_virtual to i8*), i8* bitcast (void (%"class.irr::scene::ISkinnedMesh"*)* @_ZN3irr5scene12ISkinnedMeshD1Ev to i8*), i8* bitcast (void (%"class.irr::scene::ISkinnedMesh"*)* @_ZN3irr5scene12ISkinnedMeshD0Ev to i8*), i8* bitcast (void ()* @__cxa_pure_virtual to i8*), i8* bitcast (void ()* @__cxa_pure_virtual to i8*), i8* bitcast (void ()* @__cxa_pure_virtual to i8*), i8* bitcast (void ()* @__cxa_pure_virtual to i8*), i8* bitcast (i32 (%"class.irr::scene::IAnimatedMesh"*)* @_ZNK3irr5scene13IAnimatedMesh11getMeshTypeEv to i8*), i8* bitcast (void ()* @__cxa_pure_virtual to i8*), i8* bitcast (void ()* @__cxa_pure_virtual to i8*), i8* bitcast (void ()* @__cxa_pure_virtual to i8*), i8* bitcast (void ()* @__cxa_pure_virtual to i8*), i8* bitcast (void ()* @__cxa_pure_virtual to i8*), i8* bitcast (void ()* @__cxa_pure_virtual to i8*), i8* bitcast (void ()* @__cxa_pure_virtual to i8*), i8* bitcast (void ()* @__cxa_pure_virtual to i8*), i8* bitcast (void ()* @__cxa_pure_virtual to i8*), i8* bitcast (void ()* @__cxa_pure_virtual to i8*), i8* bitcast (void ()* @__cxa_pure_virtual to i8*), i8* bitcast (void ()* @__cxa_pure_virtual to i8*), i8* bitcast (void ()* @__cxa_pure_virtual to i8*), i8* bitcast (void ()* @__cxa_pure_virtual to i8*), i8* bitcast (void ()* @__cxa_pure_virtual to i8*), i8* bitcast (void ()* @__cxa_pure_virtual to i8*), i8* bitcast (void ()* @__cxa_pure_virtual to i8*), i8* bitcast (void ()* @__cxa_pure_virtual to i8*), i8* bitcast (void ()* @__cxa_pure_virtual to i8*), i8* bitcast (void ()* @__cxa_pure_virtual to i8*), i8* bitcast (void ()* @__cxa_pure_virtual to i8*), i8* inttoptr (i64 -192 to i8*), i8* inttoptr (i64 -192 to i8*), i8* bitcast ({ i8*, i8*, i8* }* @_ZTIN3irr5scene12ISkinnedMeshE to i8*), i8* bitcast (void (%"class.irr::scene::ISkinnedMesh"*)* @_ZTv0_n24_N3irr5scene12ISkinnedMeshD1Ev to i8*), i8* bitcast (void (%"class.irr::scene::ISkinnedMesh"*)* @_ZTv0_n24_N3irr5scene12ISkinnedMeshD0Ev to i8*)]
@_ZTVN10__cxxabiv120__si_class_type_infoE = external global i8*
@_ZTSN3irr5scene12ISkinnedMeshE = linkonce_odr constant [27 x i8] c"N3irr5scene12ISkinnedMeshE\00"
@_ZTSN3irr5scene13IAnimatedMeshE = linkonce_odr constant [28 x i8] c"N3irr5scene13IAnimatedMeshE\00"
@_ZTVN10__cxxabiv121__vmi_class_type_infoE = external global i8*
@_ZTSN3irr5scene5IMeshE = linkonce_odr constant [19 x i8] c"N3irr5scene5IMeshE\00"
@_ZTVN10__cxxabiv117__class_type_infoE = external global i8*
@_ZTSN3irr17IReferenceCountedE = linkonce_odr constant [26 x i8] c"N3irr17IReferenceCountedE\00"
@_ZTIN3irr17IReferenceCountedE = linkonce_odr constant { i8*, i8* } { i8* bitcast (i8** getelementptr inbounds (i8** @_ZTVN10__cxxabiv117__class_type_infoE, i64 2) to i8*), i8* getelementptr inbounds ([26 x i8]* @_ZTSN3irr17IReferenceCountedE, i32 0, i32 0) }
@_ZTIN3irr5scene5IMeshE = linkonce_odr constant { i8*, i8*, i32, i32, i8*, i64 } { i8* bitcast (i8** getelementptr inbounds (i8** @_ZTVN10__cxxabiv121__vmi_class_type_infoE, i64 2) to i8*), i8* getelementptr inbounds ([19 x i8]* @_ZTSN3irr5scene5IMeshE, i32 0, i32 0), i32 0, i32 1, i8* bitcast ({ i8*, i8* }* @_ZTIN3irr17IReferenceCountedE to i8*), i64 -6141 }
@_ZTIN3irr5scene13IAnimatedMeshE = linkonce_odr constant { i8*, i8*, i8* } { i8* bitcast (i8** getelementptr inbounds (i8** @_ZTVN10__cxxabiv120__si_class_type_infoE, i64 2) to i8*), i8* getelementptr inbounds ([28 x i8]* @_ZTSN3irr5scene13IAnimatedMeshE, i32 0, i32 0), i8* bitcast ({ i8*, i8*, i32, i32, i8*, i64 }* @_ZTIN3irr5scene5IMeshE to i8*) }
@_ZTIN3irr5scene12ISkinnedMeshE = linkonce_odr constant { i8*, i8*, i8* } { i8* bitcast (i8** getelementptr inbounds (i8** @_ZTVN10__cxxabiv120__si_class_type_infoE, i64 2) to i8*), i8* getelementptr inbounds ([27 x i8]* @_ZTSN3irr5scene12ISkinnedMeshE, i32 0, i32 0), i8* bitcast ({ i8*, i8*, i8* }* @_ZTIN3irr5scene13IAnimatedMeshE to i8*) }
@_ZTCN3irr5scene12CSkinnedMeshE0_NS0_13IAnimatedMeshE = unnamed_addr constant [23 x i8*] [i8* inttoptr (i64 192 to i8*), i8* null, i8* bitcast ({ i8*, i8*, i8* }* @_ZTIN3irr5scene13IAnimatedMeshE to i8*), i8* bitcast (void ()* @__cxa_pure_virtual to i8*), i8* bitcast (void ()* @__cxa_pure_virtual to i8*), i8* bitcast (void ()* @__cxa_pure_virtual to i8*), i8* bitcast (void ()* @__cxa_pure_virtual to i8*), i8* bitcast (void ()* @__cxa_pure_virtual to i8*), i8* bitcast (void ()* @__cxa_pure_virtual to i8*), i8* bitcast (void ()* @__cxa_pure_virtual to i8*), i8* bitcast (void ()* @__cxa_pure_virtual to i8*), i8* bitcast (void (%"class.irr::scene::IAnimatedMesh"*)* @_ZN3irr5scene13IAnimatedMeshD1Ev to i8*), i8* bitcast (void (%"class.irr::scene::IAnimatedMesh"*)* @_ZN3irr5scene13IAnimatedMeshD0Ev to i8*), i8* bitcast (void ()* @__cxa_pure_virtual to i8*), i8* bitcast (void ()* @__cxa_pure_virtual to i8*), i8* bitcast (void ()* @__cxa_pure_virtual to i8*), i8* bitcast (void ()* @__cxa_pure_virtual to i8*), i8* bitcast (i32 (%"class.irr::scene::IAnimatedMesh"*)* @_ZNK3irr5scene13IAnimatedMesh11getMeshTypeEv to i8*), i8* inttoptr (i64 -192 to i8*), i8* inttoptr (i64 -192 to i8*), i8* bitcast ({ i8*, i8*, i8* }* @_ZTIN3irr5scene13IAnimatedMeshE to i8*), i8* bitcast (void (%"class.irr::scene::IAnimatedMesh"*)* @_ZTv0_n24_N3irr5scene13IAnimatedMeshD1Ev to i8*), i8* bitcast (void (%"class.irr::scene::IAnimatedMesh"*)* @_ZTv0_n24_N3irr5scene13IAnimatedMeshD0Ev to i8*)]
@_ZTCN3irr5scene12CSkinnedMeshE0_NS0_5IMeshE = unnamed_addr constant [18 x i8*] [i8* inttoptr (i64 192 to i8*), i8* null, i8* bitcast ({ i8*, i8*, i32, i32, i8*, i64 }* @_ZTIN3irr5scene5IMeshE to i8*), i8* bitcast (void ()* @__cxa_pure_virtual to i8*), i8* bitcast (void ()* @__cxa_pure_virtual to i8*), i8* bitcast (void ()* @__cxa_pure_virtual to i8*), i8* bitcast (void ()* @__cxa_pure_virtual to i8*), i8* bitcast (void ()* @__cxa_pure_virtual to i8*), i8* bitcast (void ()* @__cxa_pure_virtual to i8*), i8* bitcast (void ()* @__cxa_pure_virtual to i8*), i8* bitcast (void ()* @__cxa_pure_virtual to i8*), i8* bitcast (void (%"class.irr::scene::IMesh"*)* @_ZN3irr5scene5IMeshD1Ev to i8*), i8* bitcast (void (%"class.irr::scene::IMesh"*)* @_ZN3irr5scene5IMeshD0Ev to i8*), i8* inttoptr (i64 -192 to i8*), i8* inttoptr (i64 -192 to i8*), i8* bitcast ({ i8*, i8*, i32, i32, i8*, i64 }* @_ZTIN3irr5scene5IMeshE to i8*), i8* bitcast (void (%"class.irr::scene::IMesh"*)* @_ZTv0_n24_N3irr5scene5IMeshD1Ev to i8*), i8* bitcast (void (%"class.irr::scene::IMesh"*)* @_ZTv0_n24_N3irr5scene5IMeshD0Ev to i8*)]
@_ZTSN3irr5scene12CSkinnedMeshE = constant [27 x i8] c"N3irr5scene12CSkinnedMeshE\00"
@_ZTIN3irr5scene12CSkinnedMeshE = constant { i8*, i8*, i8* } { i8* bitcast (i8** getelementptr inbounds (i8** @_ZTVN10__cxxabiv120__si_class_type_infoE, i64 2) to i8*), i8* getelementptr inbounds ([27 x i8]* @_ZTSN3irr5scene12CSkinnedMeshE, i32 0, i32 0), i8* bitcast ({ i8*, i8*, i8* }* @_ZTIN3irr5scene12ISkinnedMeshE to i8*) }
@_ZTVN3irr4core12irrAllocatorIfEE = linkonce_odr unnamed_addr constant [6 x i8*] [i8* null, i8* bitcast ({ i8*, i8* }* @_ZTIN3irr4core12irrAllocatorIfEE to i8*), i8* bitcast (void (%"class.irr::core::irrAllocator.40"*)* @_ZN3irr4core12irrAllocatorIfED2Ev to i8*), i8* bitcast (void (%"class.irr::core::irrAllocator.40"*)* @_ZN3irr4core12irrAllocatorIfED0Ev to i8*), i8* bitcast (i8* (%"class.irr::core::irrAllocator.40"*, i64)* @_ZN3irr4core12irrAllocatorIfE12internal_newEm to i8*), i8* bitcast (void (%"class.irr::core::irrAllocator.40"*, i8*)* @_ZN3irr4core12irrAllocatorIfE15internal_deleteEPv to i8*)], align 8
@_ZTSN3irr4core12irrAllocatorIfEE = linkonce_odr constant [29 x i8] c"N3irr4core12irrAllocatorIfEE\00"
@_ZTIN3irr4core12irrAllocatorIfEE = linkonce_odr constant { i8*, i8* } { i8* bitcast (i8** getelementptr inbounds (i8** @_ZTVN10__cxxabiv117__class_type_infoE, i64 2) to i8*), i8* getelementptr inbounds ([29 x i8]* @_ZTSN3irr4core12irrAllocatorIfEE, i32 0, i32 0) }
@_ZTVN3irr4core12irrAllocatorINS0_5arrayIfNS1_IfEEEEEE = linkonce_odr unnamed_addr constant [6 x i8*] [i8* null, i8* bitcast ({ i8*, i8* }* @_ZTIN3irr4core12irrAllocatorINS0_5arrayIfNS1_IfEEEEEE to i8*), i8* bitcast (void (%"class.irr::core::irrAllocator.42"*)* @_ZN3irr4core12irrAllocatorINS0_5arrayIfNS1_IfEEEEED2Ev to i8*), i8* bitcast (void (%"class.irr::core::irrAllocator.42"*)* @_ZN3irr4core12irrAllocatorINS0_5arrayIfNS1_IfEEEEED0Ev to i8*), i8* bitcast (i8* (%"class.irr::core::irrAllocator.42"*, i64)* @_ZN3irr4core12irrAllocatorINS0_5arrayIfNS1_IfEEEEE12internal_newEm to i8*), i8* bitcast (void (%"class.irr::core::irrAllocator.42"*, i8*)* @_ZN3irr4core12irrAllocatorINS0_5arrayIfNS1_IfEEEEE15internal_deleteEPv to i8*)], align 8
@_ZTSN3irr4core12irrAllocatorINS0_5arrayIfNS1_IfEEEEEE = linkonce_odr constant [50 x i8] c"N3irr4core12irrAllocatorINS0_5arrayIfNS1_IfEEEEEE\00"
@_ZTIN3irr4core12irrAllocatorINS0_5arrayIfNS1_IfEEEEEE = linkonce_odr constant { i8*, i8* } { i8* bitcast (i8** getelementptr inbounds (i8** @_ZTVN10__cxxabiv117__class_type_infoE, i64 2) to i8*), i8* getelementptr inbounds ([50 x i8]* @_ZTSN3irr4core12irrAllocatorINS0_5arrayIfNS1_IfEEEEEE, i32 0, i32 0) }
@_ZTVN3irr4core12irrAllocatorIbEE = linkonce_odr unnamed_addr constant [6 x i8*] [i8* null, i8* bitcast ({ i8*, i8* }* @_ZTIN3irr4core12irrAllocatorIbEE to i8*), i8* bitcast (void (%"class.irr::core::irrAllocator.19"*)* @_ZN3irr4core12irrAllocatorIbED2Ev to i8*), i8* bitcast (void (%"class.irr::core::irrAllocator.19"*)* @_ZN3irr4core12irrAllocatorIbED0Ev to i8*), i8* bitcast (i8* (%"class.irr::core::irrAllocator.19"*, i64)* @_ZN3irr4core12irrAllocatorIbE12internal_newEm to i8*), i8* bitcast (void (%"class.irr::core::irrAllocator.19"*, i8*)* @_ZN3irr4core12irrAllocatorIbE15internal_deleteEPv to i8*)], align 8
@_ZTSN3irr4core12irrAllocatorIbEE = linkonce_odr constant [29 x i8] c"N3irr4core12irrAllocatorIbEE\00"
@_ZTIN3irr4core12irrAllocatorIbEE = linkonce_odr constant { i8*, i8* } { i8* bitcast (i8** getelementptr inbounds (i8** @_ZTVN10__cxxabiv117__class_type_infoE, i64 2) to i8*), i8* getelementptr inbounds ([29 x i8]* @_ZTSN3irr4core12irrAllocatorIbEE, i32 0, i32 0) }
@_ZTVN3irr4core12irrAllocatorINS0_5arrayIbNS1_IbEEEEEE = linkonce_odr unnamed_addr constant [6 x i8*] [i8* null, i8* bitcast ({ i8*, i8* }* @_ZTIN3irr4core12irrAllocatorINS0_5arrayIbNS1_IbEEEEEE to i8*), i8* bitcast (void (%"class.irr::core::irrAllocator.21"*)* @_ZN3irr4core12irrAllocatorINS0_5arrayIbNS1_IbEEEEED2Ev to i8*), i8* bitcast (void (%"class.irr::core::irrAllocator.21"*)* @_ZN3irr4core12irrAllocatorINS0_5arrayIbNS1_IbEEEEED0Ev to i8*), i8* bitcast (i8* (%"class.irr::core::irrAllocator.21"*, i64)* @_ZN3irr4core12irrAllocatorINS0_5arrayIbNS1_IbEEEEE12internal_newEm to i8*), i8* bitcast (void (%"class.irr::core::irrAllocator.21"*, i8*)* @_ZN3irr4core12irrAllocatorINS0_5arrayIbNS1_IbEEEEE15internal_deleteEPv to i8*)], align 8
@_ZTSN3irr4core12irrAllocatorINS0_5arrayIbNS1_IbEEEEEE = linkonce_odr constant [50 x i8] c"N3irr4core12irrAllocatorINS0_5arrayIbNS1_IbEEEEEE\00"
@_ZTIN3irr4core12irrAllocatorINS0_5arrayIbNS1_IbEEEEEE = linkonce_odr constant { i8*, i8* } { i8* bitcast (i8** getelementptr inbounds (i8** @_ZTVN10__cxxabiv117__class_type_infoE, i64 2) to i8*), i8* getelementptr inbounds ([50 x i8]* @_ZTSN3irr4core12irrAllocatorINS0_5arrayIbNS1_IbEEEEEE, i32 0, i32 0) }
@_ZTVN3irr4core12irrAllocatorIPNS_5scene15SSkinMeshBufferEEE = linkonce_odr unnamed_addr constant [6 x i8*] [i8* null, i8* bitcast ({ i8*, i8* }* @_ZTIN3irr4core12irrAllocatorIPNS_5scene15SSkinMeshBufferEEE to i8*), i8* bitcast (void (%"class.irr::core::irrAllocator.12"*)* @_ZN3irr4core12irrAllocatorIPNS_5scene15SSkinMeshBufferEED2Ev to i8*), i8* bitcast (void (%"class.irr::core::irrAllocator.12"*)* @_ZN3irr4core12irrAllocatorIPNS_5scene15SSkinMeshBufferEED0Ev to i8*), i8* bitcast (i8* (%"class.irr::core::irrAllocator.12"*, i64)* @_ZN3irr4core12irrAllocatorIPNS_5scene15SSkinMeshBufferEE12internal_newEm to i8*), i8* bitcast (void (%"class.irr::core::irrAllocator.12"*, i8*)* @_ZN3irr4core12irrAllocatorIPNS_5scene15SSkinMeshBufferEE15internal_deleteEPv to i8*)], align 8
@_ZTSN3irr4core12irrAllocatorIPNS_5scene15SSkinMeshBufferEEE = linkonce_odr constant [56 x i8] c"N3irr4core12irrAllocatorIPNS_5scene15SSkinMeshBufferEEE\00"
@_ZTIN3irr4core12irrAllocatorIPNS_5scene15SSkinMeshBufferEEE = linkonce_odr constant { i8*, i8* } { i8* bitcast (i8** getelementptr inbounds (i8** @_ZTVN10__cxxabiv117__class_type_infoE, i64 2) to i8*), i8* getelementptr inbounds ([56 x i8]* @_ZTSN3irr4core12irrAllocatorIPNS_5scene15SSkinMeshBufferEEE, i32 0, i32 0) }
@_ZTVN3irr4core12irrAllocatorIcEE = linkonce_odr unnamed_addr constant [6 x i8*] [i8* null, i8* bitcast ({ i8*, i8* }* @_ZTIN3irr4core12irrAllocatorIcEE to i8*), i8* bitcast (void (%"class.irr::core::irrAllocator"*)* @_ZN3irr4core12irrAllocatorIcED2Ev to i8*), i8* bitcast (void (%"class.irr::core::irrAllocator"*)* @_ZN3irr4core12irrAllocatorIcED0Ev to i8*), i8* bitcast (i8* (%"class.irr::core::irrAllocator"*, i64)* @_ZN3irr4core12irrAllocatorIcE12internal_newEm to i8*), i8* bitcast (void (%"class.irr::core::irrAllocator"*, i8*)* @_ZN3irr4core12irrAllocatorIcE15internal_deleteEPv to i8*)], align 8
@_ZTSN3irr4core12irrAllocatorIcEE = linkonce_odr constant [29 x i8] c"N3irr4core12irrAllocatorIcEE\00"
@_ZTIN3irr4core12irrAllocatorIcEE = linkonce_odr constant { i8*, i8* } { i8* bitcast (i8** getelementptr inbounds (i8** @_ZTVN10__cxxabiv117__class_type_infoE, i64 2) to i8*), i8* getelementptr inbounds ([29 x i8]* @_ZTSN3irr4core12irrAllocatorIcEE, i32 0, i32 0) }
@_ZTVN3irr4core12irrAllocatorIPNS_5scene12ISkinnedMesh6SJointEEE = linkonce_odr unnamed_addr constant [6 x i8*] [i8* null, i8* bitcast ({ i8*, i8* }* @_ZTIN3irr4core12irrAllocatorIPNS_5scene12ISkinnedMesh6SJointEEE to i8*), i8* bitcast (void (%"class.irr::core::irrAllocator.15"*)* @_ZN3irr4core12irrAllocatorIPNS_5scene12ISkinnedMesh6SJointEED2Ev to i8*), i8* bitcast (void (%"class.irr::core::irrAllocator.15"*)* @_ZN3irr4core12irrAllocatorIPNS_5scene12ISkinnedMesh6SJointEED0Ev to i8*), i8* bitcast (i8* (%"class.irr::core::irrAllocator.15"*, i64)* @_ZN3irr4core12irrAllocatorIPNS_5scene12ISkinnedMesh6SJointEE12internal_newEm to i8*), i8* bitcast (void (%"class.irr::core::irrAllocator.15"*, i8*)* @_ZN3irr4core12irrAllocatorIPNS_5scene12ISkinnedMesh6SJointEE15internal_deleteEPv to i8*)], align 8
@_ZTSN3irr4core12irrAllocatorIPNS_5scene12ISkinnedMesh6SJointEEE = linkonce_odr constant [60 x i8] c"N3irr4core12irrAllocatorIPNS_5scene12ISkinnedMesh6SJointEEE\00"
@_ZTIN3irr4core12irrAllocatorIPNS_5scene12ISkinnedMesh6SJointEEE = linkonce_odr constant { i8*, i8* } { i8* bitcast (i8** getelementptr inbounds (i8** @_ZTVN10__cxxabiv117__class_type_infoE, i64 2) to i8*), i8* getelementptr inbounds ([60 x i8]* @_ZTSN3irr4core12irrAllocatorIPNS_5scene12ISkinnedMesh6SJointEEE, i32 0, i32 0) }
@_ZTVN3irr5scene5IMeshE = linkonce_odr unnamed_addr constant [18 x i8*] [i8* inttoptr (i64 8 to i8*), i8* null, i8* bitcast ({ i8*, i8*, i32, i32, i8*, i64 }* @_ZTIN3irr5scene5IMeshE to i8*), i8* bitcast (void ()* @__cxa_pure_virtual to i8*), i8* bitcast (void ()* @__cxa_pure_virtual to i8*), i8* bitcast (void ()* @__cxa_pure_virtual to i8*), i8* bitcast (void ()* @__cxa_pure_virtual to i8*), i8* bitcast (void ()* @__cxa_pure_virtual to i8*), i8* bitcast (void ()* @__cxa_pure_virtual to i8*), i8* bitcast (void ()* @__cxa_pure_virtual to i8*), i8* bitcast (void ()* @__cxa_pure_virtual to i8*), i8* bitcast (void (%"class.irr::scene::IMesh"*)* @_ZN3irr5scene5IMeshD1Ev to i8*), i8* bitcast (void (%"class.irr::scene::IMesh"*)* @_ZN3irr5scene5IMeshD0Ev to i8*), i8* inttoptr (i64 -8 to i8*), i8* inttoptr (i64 -8 to i8*), i8* bitcast ({ i8*, i8*, i32, i32, i8*, i64 }* @_ZTIN3irr5scene5IMeshE to i8*), i8* bitcast (void (%"class.irr::scene::IMesh"*)* @_ZTv0_n24_N3irr5scene5IMeshD1Ev to i8*), i8* bitcast (void (%"class.irr::scene::IMesh"*)* @_ZTv0_n24_N3irr5scene5IMeshD0Ev to i8*)], align 8
@_ZTTN3irr5scene5IMeshE = linkonce_odr unnamed_addr constant [2 x i8*] [i8* bitcast (i8** getelementptr inbounds ([18 x i8*]* @_ZTVN3irr5scene5IMeshE, i64 0, i64 3) to i8*), i8* bitcast (i8** getelementptr inbounds ([18 x i8*]* @_ZTVN3irr5scene5IMeshE, i64 0, i64 16) to i8*)]
@_ZTVN3irr5scene13IAnimatedMeshE = linkonce_odr unnamed_addr constant [23 x i8*] [i8* inttoptr (i64 8 to i8*), i8* null, i8* bitcast ({ i8*, i8*, i8* }* @_ZTIN3irr5scene13IAnimatedMeshE to i8*), i8* bitcast (void ()* @__cxa_pure_virtual to i8*), i8* bitcast (void ()* @__cxa_pure_virtual to i8*), i8* bitcast (void ()* @__cxa_pure_virtual to i8*), i8* bitcast (void ()* @__cxa_pure_virtual to i8*), i8* bitcast (void ()* @__cxa_pure_virtual to i8*), i8* bitcast (void ()* @__cxa_pure_virtual to i8*), i8* bitcast (void ()* @__cxa_pure_virtual to i8*), i8* bitcast (void ()* @__cxa_pure_virtual to i8*), i8* bitcast (void (%"class.irr::scene::IAnimatedMesh"*)* @_ZN3irr5scene13IAnimatedMeshD1Ev to i8*), i8* bitcast (void (%"class.irr::scene::IAnimatedMesh"*)* @_ZN3irr5scene13IAnimatedMeshD0Ev to i8*), i8* bitcast (void ()* @__cxa_pure_virtual to i8*), i8* bitcast (void ()* @__cxa_pure_virtual to i8*), i8* bitcast (void ()* @__cxa_pure_virtual to i8*), i8* bitcast (void ()* @__cxa_pure_virtual to i8*), i8* bitcast (i32 (%"class.irr::scene::IAnimatedMesh"*)* @_ZNK3irr5scene13IAnimatedMesh11getMeshTypeEv to i8*), i8* inttoptr (i64 -8 to i8*), i8* inttoptr (i64 -8 to i8*), i8* bitcast ({ i8*, i8*, i8* }* @_ZTIN3irr5scene13IAnimatedMeshE to i8*), i8* bitcast (void (%"class.irr::scene::IAnimatedMesh"*)* @_ZTv0_n24_N3irr5scene13IAnimatedMeshD1Ev to i8*), i8* bitcast (void (%"class.irr::scene::IAnimatedMesh"*)* @_ZTv0_n24_N3irr5scene13IAnimatedMeshD0Ev to i8*)], align 8
@_ZTTN3irr5scene13IAnimatedMeshE = linkonce_odr unnamed_addr constant [4 x i8*] [i8* bitcast (i8** getelementptr inbounds ([23 x i8*]* @_ZTVN3irr5scene13IAnimatedMeshE, i64 0, i64 3) to i8*), i8* bitcast (i8** getelementptr inbounds ([18 x i8*]* @_ZTCN3irr5scene13IAnimatedMeshE0_NS0_5IMeshE, i64 0, i64 3) to i8*), i8* bitcast (i8** getelementptr inbounds ([18 x i8*]* @_ZTCN3irr5scene13IAnimatedMeshE0_NS0_5IMeshE, i64 0, i64 16) to i8*), i8* bitcast (i8** getelementptr inbounds ([23 x i8*]* @_ZTVN3irr5scene13IAnimatedMeshE, i64 0, i64 21) to i8*)]
@_ZTCN3irr5scene13IAnimatedMeshE0_NS0_5IMeshE = linkonce_odr unnamed_addr constant [18 x i8*] [i8* inttoptr (i64 8 to i8*), i8* null, i8* bitcast ({ i8*, i8*, i32, i32, i8*, i64 }* @_ZTIN3irr5scene5IMeshE to i8*), i8* bitcast (void ()* @__cxa_pure_virtual to i8*), i8* bitcast (void ()* @__cxa_pure_virtual to i8*), i8* bitcast (void ()* @__cxa_pure_virtual to i8*), i8* bitcast (void ()* @__cxa_pure_virtual to i8*), i8* bitcast (void ()* @__cxa_pure_virtual to i8*), i8* bitcast (void ()* @__cxa_pure_virtual to i8*), i8* bitcast (void ()* @__cxa_pure_virtual to i8*), i8* bitcast (void ()* @__cxa_pure_virtual to i8*), i8* bitcast (void (%"class.irr::scene::IMesh"*)* @_ZN3irr5scene5IMeshD1Ev to i8*), i8* bitcast (void (%"class.irr::scene::IMesh"*)* @_ZN3irr5scene5IMeshD0Ev to i8*), i8* inttoptr (i64 -8 to i8*), i8* inttoptr (i64 -8 to i8*), i8* bitcast ({ i8*, i8*, i32, i32, i8*, i64 }* @_ZTIN3irr5scene5IMeshE to i8*), i8* bitcast (void (%"class.irr::scene::IMesh"*)* @_ZTv0_n24_N3irr5scene5IMeshD1Ev to i8*), i8* bitcast (void (%"class.irr::scene::IMesh"*)* @_ZTv0_n24_N3irr5scene5IMeshD0Ev to i8*)]
@_ZTVN3irr5scene12ISkinnedMeshE = linkonce_odr unnamed_addr constant [44 x i8*] [i8* inttoptr (i64 8 to i8*), i8* null, i8* bitcast ({ i8*, i8*, i8* }* @_ZTIN3irr5scene12ISkinnedMeshE to i8*), i8* bitcast (void ()* @__cxa_pure_virtual to i8*), i8* bitcast (void ()* @__cxa_pure_virtual to i8*), i8* bitcast (void ()* @__cxa_pure_virtual to i8*), i8* bitcast (void ()* @__cxa_pure_virtual to i8*), i8* bitcast (void ()* @__cxa_pure_virtual to i8*), i8* bitcast (void ()* @__cxa_pure_virtual to i8*), i8* bitcast (void ()* @__cxa_pure_virtual to i8*), i8* bitcast (void ()* @__cxa_pure_virtual to i8*), i8* bitcast (void (%"class.irr::scene::ISkinnedMesh"*)* @_ZN3irr5scene12ISkinnedMeshD1Ev to i8*), i8* bitcast (void (%"class.irr::scene::ISkinnedMesh"*)* @_ZN3irr5scene12ISkinnedMeshD0Ev to i8*), i8* bitcast (void ()* @__cxa_pure_virtual to i8*), i8* bitcast (void ()* @__cxa_pure_virtual to i8*), i8* bitcast (void ()* @__cxa_pure_virtual to i8*), i8* bitcast (void ()* @__cxa_pure_virtual to i8*), i8* bitcast (i32 (%"class.irr::scene::IAnimatedMesh"*)* @_ZNK3irr5scene13IAnimatedMesh11getMeshTypeEv to i8*), i8* bitcast (void ()* @__cxa_pure_virtual to i8*), i8* bitcast (void ()* @__cxa_pure_virtual to i8*), i8* bitcast (void ()* @__cxa_pure_virtual to i8*), i8* bitcast (void ()* @__cxa_pure_virtual to i8*), i8* bitcast (void ()* @__cxa_pure_virtual to i8*), i8* bitcast (void ()* @__cxa_pure_virtual to i8*), i8* bitcast (void ()* @__cxa_pure_virtual to i8*), i8* bitcast (void ()* @__cxa_pure_virtual to i8*), i8* bitcast (void ()* @__cxa_pure_virtual to i8*), i8* bitcast (void ()* @__cxa_pure_virtual to i8*), i8* bitcast (void ()* @__cxa_pure_virtual to i8*), i8* bitcast (void ()* @__cxa_pure_virtual to i8*), i8* bitcast (void ()* @__cxa_pure_virtual to i8*), i8* bitcast (void ()* @__cxa_pure_virtual to i8*), i8* bitcast (void ()* @__cxa_pure_virtual to i8*), i8* bitcast (void ()* @__cxa_pure_virtual to i8*), i8* bitcast (void ()* @__cxa_pure_virtual to i8*), i8* bitcast (void ()* @__cxa_pure_virtual to i8*), i8* bitcast (void ()* @__cxa_pure_virtual to i8*), i8* bitcast (void ()* @__cxa_pure_virtual to i8*), i8* bitcast (void ()* @__cxa_pure_virtual to i8*), i8* inttoptr (i64 -8 to i8*), i8* inttoptr (i64 -8 to i8*), i8* bitcast ({ i8*, i8*, i8* }* @_ZTIN3irr5scene12ISkinnedMeshE to i8*), i8* bitcast (void (%"class.irr::scene::ISkinnedMesh"*)* @_ZTv0_n24_N3irr5scene12ISkinnedMeshD1Ev to i8*), i8* bitcast (void (%"class.irr::scene::ISkinnedMesh"*)* @_ZTv0_n24_N3irr5scene12ISkinnedMeshD0Ev to i8*)], align 8
@_ZTTN3irr5scene12ISkinnedMeshE = linkonce_odr unnamed_addr constant [6 x i8*] [i8* bitcast (i8** getelementptr inbounds ([44 x i8*]* @_ZTVN3irr5scene12ISkinnedMeshE, i64 0, i64 3) to i8*), i8* bitcast (i8** getelementptr inbounds ([23 x i8*]* @_ZTCN3irr5scene12ISkinnedMeshE0_NS0_13IAnimatedMeshE, i64 0, i64 3) to i8*), i8* bitcast (i8** getelementptr inbounds ([18 x i8*]* @_ZTCN3irr5scene12ISkinnedMeshE0_NS0_5IMeshE, i64 0, i64 3) to i8*), i8* bitcast (i8** getelementptr inbounds ([18 x i8*]* @_ZTCN3irr5scene12ISkinnedMeshE0_NS0_5IMeshE, i64 0, i64 16) to i8*), i8* bitcast (i8** getelementptr inbounds ([23 x i8*]* @_ZTCN3irr5scene12ISkinnedMeshE0_NS0_13IAnimatedMeshE, i64 0, i64 21) to i8*), i8* bitcast (i8** getelementptr inbounds ([44 x i8*]* @_ZTVN3irr5scene12ISkinnedMeshE, i64 0, i64 42) to i8*)]
@_ZTCN3irr5scene12ISkinnedMeshE0_NS0_13IAnimatedMeshE = linkonce_odr unnamed_addr constant [23 x i8*] [i8* inttoptr (i64 8 to i8*), i8* null, i8* bitcast ({ i8*, i8*, i8* }* @_ZTIN3irr5scene13IAnimatedMeshE to i8*), i8* bitcast (void ()* @__cxa_pure_virtual to i8*), i8* bitcast (void ()* @__cxa_pure_virtual to i8*), i8* bitcast (void ()* @__cxa_pure_virtual to i8*), i8* bitcast (void ()* @__cxa_pure_virtual to i8*), i8* bitcast (void ()* @__cxa_pure_virtual to i8*), i8* bitcast (void ()* @__cxa_pure_virtual to i8*), i8* bitcast (void ()* @__cxa_pure_virtual to i8*), i8* bitcast (void ()* @__cxa_pure_virtual to i8*), i8* bitcast (void (%"class.irr::scene::IAnimatedMesh"*)* @_ZN3irr5scene13IAnimatedMeshD1Ev to i8*), i8* bitcast (void (%"class.irr::scene::IAnimatedMesh"*)* @_ZN3irr5scene13IAnimatedMeshD0Ev to i8*), i8* bitcast (void ()* @__cxa_pure_virtual to i8*), i8* bitcast (void ()* @__cxa_pure_virtual to i8*), i8* bitcast (void ()* @__cxa_pure_virtual to i8*), i8* bitcast (void ()* @__cxa_pure_virtual to i8*), i8* bitcast (i32 (%"class.irr::scene::IAnimatedMesh"*)* @_ZNK3irr5scene13IAnimatedMesh11getMeshTypeEv to i8*), i8* inttoptr (i64 -8 to i8*), i8* inttoptr (i64 -8 to i8*), i8* bitcast ({ i8*, i8*, i8* }* @_ZTIN3irr5scene13IAnimatedMeshE to i8*), i8* bitcast (void (%"class.irr::scene::IAnimatedMesh"*)* @_ZTv0_n24_N3irr5scene13IAnimatedMeshD1Ev to i8*), i8* bitcast (void (%"class.irr::scene::IAnimatedMesh"*)* @_ZTv0_n24_N3irr5scene13IAnimatedMeshD0Ev to i8*)]
@_ZTCN3irr5scene12ISkinnedMeshE0_NS0_5IMeshE = linkonce_odr unnamed_addr constant [18 x i8*] [i8* inttoptr (i64 8 to i8*), i8* null, i8* bitcast ({ i8*, i8*, i32, i32, i8*, i64 }* @_ZTIN3irr5scene5IMeshE to i8*), i8* bitcast (void ()* @__cxa_pure_virtual to i8*), i8* bitcast (void ()* @__cxa_pure_virtual to i8*), i8* bitcast (void ()* @__cxa_pure_virtual to i8*), i8* bitcast (void ()* @__cxa_pure_virtual to i8*), i8* bitcast (void ()* @__cxa_pure_virtual to i8*), i8* bitcast (void ()* @__cxa_pure_virtual to i8*), i8* bitcast (void ()* @__cxa_pure_virtual to i8*), i8* bitcast (void ()* @__cxa_pure_virtual to i8*), i8* bitcast (void (%"class.irr::scene::IMesh"*)* @_ZN3irr5scene5IMeshD1Ev to i8*), i8* bitcast (void (%"class.irr::scene::IMesh"*)* @_ZN3irr5scene5IMeshD0Ev to i8*), i8* inttoptr (i64 -8 to i8*), i8* inttoptr (i64 -8 to i8*), i8* bitcast ({ i8*, i8*, i32, i32, i8*, i64 }* @_ZTIN3irr5scene5IMeshE to i8*), i8* bitcast (void (%"class.irr::scene::IMesh"*)* @_ZTv0_n24_N3irr5scene5IMeshD1Ev to i8*), i8* bitcast (void (%"class.irr::scene::IMesh"*)* @_ZTv0_n24_N3irr5scene5IMeshD0Ev to i8*)]
@_ZTVN3irr4core12irrAllocatorINS_5scene12ISkinnedMesh7SWeightEEE = linkonce_odr unnamed_addr constant [6 x i8*] [i8* null, i8* bitcast ({ i8*, i8* }* @_ZTIN3irr4core12irrAllocatorINS_5scene12ISkinnedMesh7SWeightEEE to i8*), i8* bitcast (void (%"class.irr::core::irrAllocator.36"*)* @_ZN3irr4core12irrAllocatorINS_5scene12ISkinnedMesh7SWeightEED2Ev to i8*), i8* bitcast (void (%"class.irr::core::irrAllocator.36"*)* @_ZN3irr4core12irrAllocatorINS_5scene12ISkinnedMesh7SWeightEED0Ev to i8*), i8* bitcast (i8* (%"class.irr::core::irrAllocator.36"*, i64)* @_ZN3irr4core12irrAllocatorINS_5scene12ISkinnedMesh7SWeightEE12internal_newEm to i8*), i8* bitcast (void (%"class.irr::core::irrAllocator.36"*, i8*)* @_ZN3irr4core12irrAllocatorINS_5scene12ISkinnedMesh7SWeightEE15internal_deleteEPv to i8*)], align 8
@_ZTSN3irr4core12irrAllocatorINS_5scene12ISkinnedMesh7SWeightEEE = linkonce_odr constant [60 x i8] c"N3irr4core12irrAllocatorINS_5scene12ISkinnedMesh7SWeightEEE\00"
@_ZTIN3irr4core12irrAllocatorINS_5scene12ISkinnedMesh7SWeightEEE = linkonce_odr constant { i8*, i8* } { i8* bitcast (i8** getelementptr inbounds (i8** @_ZTVN10__cxxabiv117__class_type_infoE, i64 2) to i8*), i8* getelementptr inbounds ([60 x i8]* @_ZTSN3irr4core12irrAllocatorINS_5scene12ISkinnedMesh7SWeightEEE, i32 0, i32 0) }
@_ZTVN3irr4core12irrAllocatorINS_5scene12ISkinnedMesh12SRotationKeyEEE = linkonce_odr unnamed_addr constant [6 x i8*] [i8* null, i8* bitcast ({ i8*, i8* }* @_ZTIN3irr4core12irrAllocatorINS_5scene12ISkinnedMesh12SRotationKeyEEE to i8*), i8* bitcast (void (%"class.irr::core::irrAllocator.33"*)* @_ZN3irr4core12irrAllocatorINS_5scene12ISkinnedMesh12SRotationKeyEED2Ev to i8*), i8* bitcast (void (%"class.irr::core::irrAllocator.33"*)* @_ZN3irr4core12irrAllocatorINS_5scene12ISkinnedMesh12SRotationKeyEED0Ev to i8*), i8* bitcast (i8* (%"class.irr::core::irrAllocator.33"*, i64)* @_ZN3irr4core12irrAllocatorINS_5scene12ISkinnedMesh12SRotationKeyEE12internal_newEm to i8*), i8* bitcast (void (%"class.irr::core::irrAllocator.33"*, i8*)* @_ZN3irr4core12irrAllocatorINS_5scene12ISkinnedMesh12SRotationKeyEE15internal_deleteEPv to i8*)], align 8
@_ZTSN3irr4core12irrAllocatorINS_5scene12ISkinnedMesh12SRotationKeyEEE = linkonce_odr constant [66 x i8] c"N3irr4core12irrAllocatorINS_5scene12ISkinnedMesh12SRotationKeyEEE\00"
@_ZTIN3irr4core12irrAllocatorINS_5scene12ISkinnedMesh12SRotationKeyEEE = linkonce_odr constant { i8*, i8* } { i8* bitcast (i8** getelementptr inbounds (i8** @_ZTVN10__cxxabiv117__class_type_infoE, i64 2) to i8*), i8* getelementptr inbounds ([66 x i8]* @_ZTSN3irr4core12irrAllocatorINS_5scene12ISkinnedMesh12SRotationKeyEEE, i32 0, i32 0) }
@_ZTVN3irr4core12irrAllocatorINS_5scene12ISkinnedMesh9SScaleKeyEEE = linkonce_odr unnamed_addr constant [6 x i8*] [i8* null, i8* bitcast ({ i8*, i8* }* @_ZTIN3irr4core12irrAllocatorINS_5scene12ISkinnedMesh9SScaleKeyEEE to i8*), i8* bitcast (void (%"class.irr::core::irrAllocator.30"*)* @_ZN3irr4core12irrAllocatorINS_5scene12ISkinnedMesh9SScaleKeyEED2Ev to i8*), i8* bitcast (void (%"class.irr::core::irrAllocator.30"*)* @_ZN3irr4core12irrAllocatorINS_5scene12ISkinnedMesh9SScaleKeyEED0Ev to i8*), i8* bitcast (i8* (%"class.irr::core::irrAllocator.30"*, i64)* @_ZN3irr4core12irrAllocatorINS_5scene12ISkinnedMesh9SScaleKeyEE12internal_newEm to i8*), i8* bitcast (void (%"class.irr::core::irrAllocator.30"*, i8*)* @_ZN3irr4core12irrAllocatorINS_5scene12ISkinnedMesh9SScaleKeyEE15internal_deleteEPv to i8*)], align 8
@_ZTSN3irr4core12irrAllocatorINS_5scene12ISkinnedMesh9SScaleKeyEEE = linkonce_odr constant [62 x i8] c"N3irr4core12irrAllocatorINS_5scene12ISkinnedMesh9SScaleKeyEEE\00"
@_ZTIN3irr4core12irrAllocatorINS_5scene12ISkinnedMesh9SScaleKeyEEE = linkonce_odr constant { i8*, i8* } { i8* bitcast (i8** getelementptr inbounds (i8** @_ZTVN10__cxxabiv117__class_type_infoE, i64 2) to i8*), i8* getelementptr inbounds ([62 x i8]* @_ZTSN3irr4core12irrAllocatorINS_5scene12ISkinnedMesh9SScaleKeyEEE, i32 0, i32 0) }
@_ZTVN3irr4core12irrAllocatorINS_5scene12ISkinnedMesh12SPositionKeyEEE = linkonce_odr unnamed_addr constant [6 x i8*] [i8* null, i8* bitcast ({ i8*, i8* }* @_ZTIN3irr4core12irrAllocatorINS_5scene12ISkinnedMesh12SPositionKeyEEE to i8*), i8* bitcast (void (%"class.irr::core::irrAllocator.27"*)* @_ZN3irr4core12irrAllocatorINS_5scene12ISkinnedMesh12SPositionKeyEED2Ev to i8*), i8* bitcast (void (%"class.irr::core::irrAllocator.27"*)* @_ZN3irr4core12irrAllocatorINS_5scene12ISkinnedMesh12SPositionKeyEED0Ev to i8*), i8* bitcast (i8* (%"class.irr::core::irrAllocator.27"*, i64)* @_ZN3irr4core12irrAllocatorINS_5scene12ISkinnedMesh12SPositionKeyEE12internal_newEm to i8*), i8* bitcast (void (%"class.irr::core::irrAllocator.27"*, i8*)* @_ZN3irr4core12irrAllocatorINS_5scene12ISkinnedMesh12SPositionKeyEE15internal_deleteEPv to i8*)], align 8
@_ZTSN3irr4core12irrAllocatorINS_5scene12ISkinnedMesh12SPositionKeyEEE = linkonce_odr constant [66 x i8] c"N3irr4core12irrAllocatorINS_5scene12ISkinnedMesh12SPositionKeyEEE\00"
@_ZTIN3irr4core12irrAllocatorINS_5scene12ISkinnedMesh12SPositionKeyEEE = linkonce_odr constant { i8*, i8* } { i8* bitcast (i8** getelementptr inbounds (i8** @_ZTVN10__cxxabiv117__class_type_infoE, i64 2) to i8*), i8* getelementptr inbounds ([66 x i8]* @_ZTSN3irr4core12irrAllocatorINS_5scene12ISkinnedMesh12SPositionKeyEEE, i32 0, i32 0) }
@_ZTVN3irr4core12irrAllocatorIjEE = linkonce_odr unnamed_addr constant [6 x i8*] [i8* null, i8* bitcast ({ i8*, i8* }* @_ZTIN3irr4core12irrAllocatorIjEE to i8*), i8* bitcast (void (%"class.irr::core::irrAllocator.24"*)* @_ZN3irr4core12irrAllocatorIjED2Ev to i8*), i8* bitcast (void (%"class.irr::core::irrAllocator.24"*)* @_ZN3irr4core12irrAllocatorIjED0Ev to i8*), i8* bitcast (i8* (%"class.irr::core::irrAllocator.24"*, i64)* @_ZN3irr4core12irrAllocatorIjE12internal_newEm to i8*), i8* bitcast (void (%"class.irr::core::irrAllocator.24"*, i8*)* @_ZN3irr4core12irrAllocatorIjE15internal_deleteEPv to i8*)], align 8
@_ZTSN3irr4core12irrAllocatorIjEE = linkonce_odr constant [29 x i8] c"N3irr4core12irrAllocatorIjEE\00"
@_ZTIN3irr4core12irrAllocatorIjEE = linkonce_odr constant { i8*, i8* } { i8* bitcast (i8** getelementptr inbounds (i8** @_ZTVN10__cxxabiv117__class_type_infoE, i64 2) to i8*), i8* getelementptr inbounds ([29 x i8]* @_ZTSN3irr4core12irrAllocatorIjEE, i32 0, i32 0) }
@_ZTVN3irr5scene15SSkinMeshBufferE = linkonce_odr unnamed_addr constant [41 x i8*] [i8* inttoptr (i64 552 to i8*), i8* null, i8* bitcast ({ i8*, i8*, i8* }* @_ZTIN3irr5scene15SSkinMeshBufferE to i8*), i8* bitcast (%"class.irr::video::SMaterial"* (%"struct.irr::scene::SSkinMeshBuffer"*)* @_ZN3irr5scene15SSkinMeshBuffer11getMaterialEv to i8*), i8* bitcast (%"class.irr::video::SMaterial"* (%"struct.irr::scene::SSkinMeshBuffer"*)* @_ZNK3irr5scene15SSkinMeshBuffer11getMaterialEv to i8*), i8* bitcast (i32 (%"struct.irr::scene::SSkinMeshBuffer"*)* @_ZNK3irr5scene15SSkinMeshBuffer13getVertexTypeEv to i8*), i8* bitcast (i8* (%"struct.irr::scene::SSkinMeshBuffer"*)* @_ZNK3irr5scene15SSkinMeshBuffer11getVerticesEv to i8*), i8* bitcast (i8* (%"struct.irr::scene::SSkinMeshBuffer"*)* @_ZN3irr5scene15SSkinMeshBuffer11getVerticesEv to i8*), i8* bitcast (i32 (%"struct.irr::scene::SSkinMeshBuffer"*)* @_ZNK3irr5scene15SSkinMeshBuffer14getVertexCountEv to i8*), i8* bitcast (i32 (%"struct.irr::scene::SSkinMeshBuffer"*)* @_ZNK3irr5scene15SSkinMeshBuffer12getIndexTypeEv to i8*), i8* bitcast (i16* (%"struct.irr::scene::SSkinMeshBuffer"*)* @_ZNK3irr5scene15SSkinMeshBuffer10getIndicesEv to i8*), i8* bitcast (i16* (%"struct.irr::scene::SSkinMeshBuffer"*)* @_ZN3irr5scene15SSkinMeshBuffer10getIndicesEv to i8*), i8* bitcast (i32 (%"struct.irr::scene::SSkinMeshBuffer"*)* @_ZNK3irr5scene15SSkinMeshBuffer13getIndexCountEv to i8*), i8* bitcast (%"class.irr::core::aabbox3d"* (%"struct.irr::scene::SSkinMeshBuffer"*)* @_ZNK3irr5scene15SSkinMeshBuffer14getBoundingBoxEv to i8*), i8* bitcast (void (%"struct.irr::scene::SSkinMeshBuffer"*, %"class.irr::core::aabbox3d"*)* @_ZN3irr5scene15SSkinMeshBuffer14setBoundingBoxERKNS_4core8aabbox3dIfEE to i8*), i8* bitcast (void (%"struct.irr::scene::SSkinMeshBuffer"*)* @_ZN3irr5scene15SSkinMeshBuffer22recalculateBoundingBoxEv to i8*), i8* bitcast (%"class.irr::core::vector3d"* (%"struct.irr::scene::SSkinMeshBuffer"*, i32)* @_ZNK3irr5scene15SSkinMeshBuffer11getPositionEj to i8*), i8* bitcast (%"class.irr::core::vector3d"* (%"struct.irr::scene::SSkinMeshBuffer"*, i32)* @_ZN3irr5scene15SSkinMeshBuffer11getPositionEj to i8*), i8* bitcast (%"class.irr::core::vector3d"* (%"struct.irr::scene::SSkinMeshBuffer"*, i32)* @_ZNK3irr5scene15SSkinMeshBuffer9getNormalEj to i8*), i8* bitcast (%"class.irr::core::vector3d"* (%"struct.irr::scene::SSkinMeshBuffer"*, i32)* @_ZN3irr5scene15SSkinMeshBuffer9getNormalEj to i8*), i8* bitcast (%"class.irr::core::vector2d"* (%"struct.irr::scene::SSkinMeshBuffer"*, i32)* @_ZNK3irr5scene15SSkinMeshBuffer10getTCoordsEj to i8*), i8* bitcast (%"class.irr::core::vector2d"* (%"struct.irr::scene::SSkinMeshBuffer"*, i32)* @_ZN3irr5scene15SSkinMeshBuffer10getTCoordsEj to i8*), i8* bitcast (i32 (%"struct.irr::scene::SSkinMeshBuffer"*)* @_ZNK3irr5scene15SSkinMeshBuffer16getPrimitiveTypeEv to i8*), i8* bitcast (void (%"struct.irr::scene::SSkinMeshBuffer"*, i8*, i32, i16*, i32)* @_ZN3irr5scene15SSkinMeshBuffer6appendEPKvjPKtj to i8*), i8* bitcast (void (%"struct.irr::scene::SSkinMeshBuffer"*, %"class.irr::scene::IMeshBuffer"*)* @_ZN3irr5scene15SSkinMeshBuffer6appendEPKNS0_11IMeshBufferE to i8*), i8* bitcast (i32 (%"struct.irr::scene::SSkinMeshBuffer"*)* @_ZNK3irr5scene15SSkinMeshBuffer29getHardwareMappingHint_VertexEv to i8*), i8* bitcast (i32 (%"struct.irr::scene::SSkinMeshBuffer"*)* @_ZNK3irr5scene15SSkinMeshBuffer28getHardwareMappingHint_IndexEv to i8*), i8* bitcast (void (%"struct.irr::scene::SSkinMeshBuffer"*, i32, i32)* @_ZN3irr5scene15SSkinMeshBuffer22setHardwareMappingHintENS0_18E_HARDWARE_MAPPINGENS0_13E_BUFFER_TYPEE to i8*), i8* bitcast (void (%"struct.irr::scene::SSkinMeshBuffer"*, i32)* @_ZN3irr5scene15SSkinMeshBuffer8setDirtyENS0_13E_BUFFER_TYPEE to i8*), i8* bitcast (i32 (%"struct.irr::scene::SSkinMeshBuffer"*)* @_ZNK3irr5scene15SSkinMeshBuffer19getChangedID_VertexEv to i8*), i8* bitcast (i32 (%"struct.irr::scene::SSkinMeshBuffer"*)* @_ZNK3irr5scene15SSkinMeshBuffer18getChangedID_IndexEv to i8*), i8* bitcast (void (%"struct.irr::scene::SSkinMeshBuffer"*)* @_ZN3irr5scene15SSkinMeshBufferD1Ev to i8*), i8* bitcast (void (%"struct.irr::scene::SSkinMeshBuffer"*)* @_ZN3irr5scene15SSkinMeshBufferD0Ev to i8*), i8* bitcast (%"struct.irr::video::S3DVertex"* (%"struct.irr::scene::SSkinMeshBuffer"*, i32)* @_ZN3irr5scene15SSkinMeshBuffer9getVertexEj to i8*), i8* bitcast (void (%"struct.irr::scene::SSkinMeshBuffer"*)* @_ZN3irr5scene15SSkinMeshBuffer17convertTo2TCoordsEv to i8*), i8* bitcast (void (%"struct.irr::scene::SSkinMeshBuffer"*)* @_ZN3irr5scene15SSkinMeshBuffer17convertToTangentsEv to i8*), i8* inttoptr (i64 -552 to i8*), i8* inttoptr (i64 -552 to i8*), i8* bitcast ({ i8*, i8*, i8* }* @_ZTIN3irr5scene15SSkinMeshBufferE to i8*), i8* bitcast (void (%"struct.irr::scene::SSkinMeshBuffer"*)* @_ZTv0_n24_N3irr5scene15SSkinMeshBufferD1Ev to i8*), i8* bitcast (void (%"struct.irr::scene::SSkinMeshBuffer"*)* @_ZTv0_n24_N3irr5scene15SSkinMeshBufferD0Ev to i8*)], align 8
@_ZTTN3irr5scene15SSkinMeshBufferE = linkonce_odr unnamed_addr constant [4 x i8*] [i8* bitcast (i8** getelementptr inbounds ([41 x i8*]* @_ZTVN3irr5scene15SSkinMeshBufferE, i64 0, i64 3) to i8*), i8* bitcast (i8** getelementptr inbounds ([38 x i8*]* @_ZTCN3irr5scene15SSkinMeshBufferE0_NS0_11IMeshBufferE, i64 0, i64 3) to i8*), i8* bitcast (i8** getelementptr inbounds ([38 x i8*]* @_ZTCN3irr5scene15SSkinMeshBufferE0_NS0_11IMeshBufferE, i64 0, i64 36) to i8*), i8* bitcast (i8** getelementptr inbounds ([41 x i8*]* @_ZTVN3irr5scene15SSkinMeshBufferE, i64 0, i64 39) to i8*)]
@_ZTCN3irr5scene15SSkinMeshBufferE0_NS0_11IMeshBufferE = linkonce_odr unnamed_addr constant [38 x i8*] [i8* inttoptr (i64 552 to i8*), i8* null, i8* bitcast ({ i8*, i8*, i32, i32, i8*, i64 }* @_ZTIN3irr5scene11IMeshBufferE to i8*), i8* bitcast (void ()* @__cxa_pure_virtual to i8*), i8* bitcast (void ()* @__cxa_pure_virtual to i8*), i8* bitcast (void ()* @__cxa_pure_virtual to i8*), i8* bitcast (void ()* @__cxa_pure_virtual to i8*), i8* bitcast (void ()* @__cxa_pure_virtual to i8*), i8* bitcast (void ()* @__cxa_pure_virtual to i8*), i8* bitcast (void ()* @__cxa_pure_virtual to i8*), i8* bitcast (void ()* @__cxa_pure_virtual to i8*), i8* bitcast (void ()* @__cxa_pure_virtual to i8*), i8* bitcast (void ()* @__cxa_pure_virtual to i8*), i8* bitcast (void ()* @__cxa_pure_virtual to i8*), i8* bitcast (void ()* @__cxa_pure_virtual to i8*), i8* bitcast (void ()* @__cxa_pure_virtual to i8*), i8* bitcast (void ()* @__cxa_pure_virtual to i8*), i8* bitcast (void ()* @__cxa_pure_virtual to i8*), i8* bitcast (void ()* @__cxa_pure_virtual to i8*), i8* bitcast (void ()* @__cxa_pure_virtual to i8*), i8* bitcast (void ()* @__cxa_pure_virtual to i8*), i8* bitcast (void ()* @__cxa_pure_virtual to i8*), i8* bitcast (void ()* @__cxa_pure_virtual to i8*), i8* bitcast (void ()* @__cxa_pure_virtual to i8*), i8* bitcast (void ()* @__cxa_pure_virtual to i8*), i8* bitcast (void ()* @__cxa_pure_virtual to i8*), i8* bitcast (void ()* @__cxa_pure_virtual to i8*), i8* bitcast (void ()* @__cxa_pure_virtual to i8*), i8* bitcast (void ()* @__cxa_pure_virtual to i8*), i8* bitcast (void ()* @__cxa_pure_virtual to i8*), i8* bitcast (void ()* @__cxa_pure_virtual to i8*), i8* bitcast (void (%"class.irr::scene::IMeshBuffer"*)* @_ZN3irr5scene11IMeshBufferD1Ev to i8*), i8* bitcast (void (%"class.irr::scene::IMeshBuffer"*)* @_ZN3irr5scene11IMeshBufferD0Ev to i8*), i8* inttoptr (i64 -552 to i8*), i8* inttoptr (i64 -552 to i8*), i8* bitcast ({ i8*, i8*, i32, i32, i8*, i64 }* @_ZTIN3irr5scene11IMeshBufferE to i8*), i8* bitcast (void (%"class.irr::scene::IMeshBuffer"*)* @_ZTv0_n24_N3irr5scene11IMeshBufferD1Ev to i8*), i8* bitcast (void (%"class.irr::scene::IMeshBuffer"*)* @_ZTv0_n24_N3irr5scene11IMeshBufferD0Ev to i8*)]
@_ZTSN3irr5scene11IMeshBufferE = linkonce_odr constant [26 x i8] c"N3irr5scene11IMeshBufferE\00"
@_ZTIN3irr5scene11IMeshBufferE = linkonce_odr constant { i8*, i8*, i32, i32, i8*, i64 } { i8* bitcast (i8** getelementptr inbounds (i8** @_ZTVN10__cxxabiv121__vmi_class_type_infoE, i64 2) to i8*), i8* getelementptr inbounds ([26 x i8]* @_ZTSN3irr5scene11IMeshBufferE, i32 0, i32 0), i32 0, i32 1, i8* bitcast ({ i8*, i8* }* @_ZTIN3irr17IReferenceCountedE to i8*), i64 -6141 }
@_ZTSN3irr5scene15SSkinMeshBufferE = linkonce_odr constant [30 x i8] c"N3irr5scene15SSkinMeshBufferE\00"
@_ZTIN3irr5scene15SSkinMeshBufferE = linkonce_odr constant { i8*, i8*, i8* } { i8* bitcast (i8** getelementptr inbounds (i8** @_ZTVN10__cxxabiv120__si_class_type_infoE, i64 2) to i8*), i8* getelementptr inbounds ([30 x i8]* @_ZTSN3irr5scene15SSkinMeshBufferE, i32 0, i32 0), i8* bitcast ({ i8*, i8*, i32, i32, i8*, i64 }* @_ZTIN3irr5scene11IMeshBufferE to i8*) }
@_ZTVN3irr5scene11IMeshBufferE = linkonce_odr unnamed_addr constant [38 x i8*] [i8* inttoptr (i64 8 to i8*), i8* null, i8* bitcast ({ i8*, i8*, i32, i32, i8*, i64 }* @_ZTIN3irr5scene11IMeshBufferE to i8*), i8* bitcast (void ()* @__cxa_pure_virtual to i8*), i8* bitcast (void ()* @__cxa_pure_virtual to i8*), i8* bitcast (void ()* @__cxa_pure_virtual to i8*), i8* bitcast (void ()* @__cxa_pure_virtual to i8*), i8* bitcast (void ()* @__cxa_pure_virtual to i8*), i8* bitcast (void ()* @__cxa_pure_virtual to i8*), i8* bitcast (void ()* @__cxa_pure_virtual to i8*), i8* bitcast (void ()* @__cxa_pure_virtual to i8*), i8* bitcast (void ()* @__cxa_pure_virtual to i8*), i8* bitcast (void ()* @__cxa_pure_virtual to i8*), i8* bitcast (void ()* @__cxa_pure_virtual to i8*), i8* bitcast (void ()* @__cxa_pure_virtual to i8*), i8* bitcast (void ()* @__cxa_pure_virtual to i8*), i8* bitcast (void ()* @__cxa_pure_virtual to i8*), i8* bitcast (void ()* @__cxa_pure_virtual to i8*), i8* bitcast (void ()* @__cxa_pure_virtual to i8*), i8* bitcast (void ()* @__cxa_pure_virtual to i8*), i8* bitcast (void ()* @__cxa_pure_virtual to i8*), i8* bitcast (void ()* @__cxa_pure_virtual to i8*), i8* bitcast (void ()* @__cxa_pure_virtual to i8*), i8* bitcast (void ()* @__cxa_pure_virtual to i8*), i8* bitcast (void ()* @__cxa_pure_virtual to i8*), i8* bitcast (void ()* @__cxa_pure_virtual to i8*), i8* bitcast (void ()* @__cxa_pure_virtual to i8*), i8* bitcast (void ()* @__cxa_pure_virtual to i8*), i8* bitcast (void ()* @__cxa_pure_virtual to i8*), i8* bitcast (void ()* @__cxa_pure_virtual to i8*), i8* bitcast (void ()* @__cxa_pure_virtual to i8*), i8* bitcast (void (%"class.irr::scene::IMeshBuffer"*)* @_ZN3irr5scene11IMeshBufferD1Ev to i8*), i8* bitcast (void (%"class.irr::scene::IMeshBuffer"*)* @_ZN3irr5scene11IMeshBufferD0Ev to i8*), i8* inttoptr (i64 -8 to i8*), i8* inttoptr (i64 -8 to i8*), i8* bitcast ({ i8*, i8*, i32, i32, i8*, i64 }* @_ZTIN3irr5scene11IMeshBufferE to i8*), i8* bitcast (void (%"class.irr::scene::IMeshBuffer"*)* @_ZTv0_n24_N3irr5scene11IMeshBufferD1Ev to i8*), i8* bitcast (void (%"class.irr::scene::IMeshBuffer"*)* @_ZTv0_n24_N3irr5scene11IMeshBufferD0Ev to i8*)], align 8
@_ZTTN3irr5scene11IMeshBufferE = linkonce_odr unnamed_addr constant [2 x i8*] [i8* bitcast (i8** getelementptr inbounds ([38 x i8*]* @_ZTVN3irr5scene11IMeshBufferE, i64 0, i64 3) to i8*), i8* bitcast (i8** getelementptr inbounds ([38 x i8*]* @_ZTVN3irr5scene11IMeshBufferE, i64 0, i64 36) to i8*)]
@_ZTVN3irr4core12irrAllocatorINS0_8CMatrix4IfEEEE = linkonce_odr unnamed_addr constant [6 x i8*] [i8* null, i8* bitcast ({ i8*, i8* }* @_ZTIN3irr4core12irrAllocatorINS0_8CMatrix4IfEEEE to i8*), i8* bitcast (void (%"class.irr::core::irrAllocator.11"*)* @_ZN3irr4core12irrAllocatorINS0_8CMatrix4IfEEED2Ev to i8*), i8* bitcast (void (%"class.irr::core::irrAllocator.11"*)* @_ZN3irr4core12irrAllocatorINS0_8CMatrix4IfEEED0Ev to i8*), i8* bitcast (i8* (%"class.irr::core::irrAllocator.11"*, i64)* @_ZN3irr4core12irrAllocatorINS0_8CMatrix4IfEEE12internal_newEm to i8*), i8* bitcast (void (%"class.irr::core::irrAllocator.11"*, i8*)* @_ZN3irr4core12irrAllocatorINS0_8CMatrix4IfEEE15internal_deleteEPv to i8*)], align 8
@_ZTSN3irr4core12irrAllocatorINS0_8CMatrix4IfEEEE = linkonce_odr constant [45 x i8] c"N3irr4core12irrAllocatorINS0_8CMatrix4IfEEEE\00"
@_ZTIN3irr4core12irrAllocatorINS0_8CMatrix4IfEEEE = linkonce_odr constant { i8*, i8* } { i8* bitcast (i8** getelementptr inbounds (i8** @_ZTVN10__cxxabiv117__class_type_infoE, i64 2) to i8*), i8* getelementptr inbounds ([45 x i8]* @_ZTSN3irr4core12irrAllocatorINS0_8CMatrix4IfEEEE, i32 0, i32 0) }
@_ZTVN3irr4core12irrAllocatorItEE = linkonce_odr unnamed_addr constant [6 x i8*] [i8* null, i8* bitcast ({ i8*, i8* }* @_ZTIN3irr4core12irrAllocatorItEE to i8*), i8* bitcast (void (%"class.irr::core::irrAllocator.9"*)* @_ZN3irr4core12irrAllocatorItED2Ev to i8*), i8* bitcast (void (%"class.irr::core::irrAllocator.9"*)* @_ZN3irr4core12irrAllocatorItED0Ev to i8*), i8* bitcast (i8* (%"class.irr::core::irrAllocator.9"*, i64)* @_ZN3irr4core12irrAllocatorItE12internal_newEm to i8*), i8* bitcast (void (%"class.irr::core::irrAllocator.9"*, i8*)* @_ZN3irr4core12irrAllocatorItE15internal_deleteEPv to i8*)], align 8
@_ZTSN3irr4core12irrAllocatorItEE = linkonce_odr constant [29 x i8] c"N3irr4core12irrAllocatorItEE\00"
@_ZTIN3irr4core12irrAllocatorItEE = linkonce_odr constant { i8*, i8* } { i8* bitcast (i8** getelementptr inbounds (i8** @_ZTVN10__cxxabiv117__class_type_infoE, i64 2) to i8*), i8* getelementptr inbounds ([29 x i8]* @_ZTSN3irr4core12irrAllocatorItEE, i32 0, i32 0) }
@_ZTVN3irr4core12irrAllocatorINS_5video9S3DVertexEEE = linkonce_odr unnamed_addr constant [6 x i8*] [i8* null, i8* bitcast ({ i8*, i8* }* @_ZTIN3irr4core12irrAllocatorINS_5video9S3DVertexEEE to i8*), i8* bitcast (void (%"class.irr::core::irrAllocator.6"*)* @_ZN3irr4core12irrAllocatorINS_5video9S3DVertexEED2Ev to i8*), i8* bitcast (void (%"class.irr::core::irrAllocator.6"*)* @_ZN3irr4core12irrAllocatorINS_5video9S3DVertexEED0Ev to i8*), i8* bitcast (i8* (%"class.irr::core::irrAllocator.6"*, i64)* @_ZN3irr4core12irrAllocatorINS_5video9S3DVertexEE12internal_newEm to i8*), i8* bitcast (void (%"class.irr::core::irrAllocator.6"*, i8*)* @_ZN3irr4core12irrAllocatorINS_5video9S3DVertexEE15internal_deleteEPv to i8*)], align 8
@_ZTSN3irr4core12irrAllocatorINS_5video9S3DVertexEEE = linkonce_odr constant [48 x i8] c"N3irr4core12irrAllocatorINS_5video9S3DVertexEEE\00"
@_ZTIN3irr4core12irrAllocatorINS_5video9S3DVertexEEE = linkonce_odr constant { i8*, i8* } { i8* bitcast (i8** getelementptr inbounds (i8** @_ZTVN10__cxxabiv117__class_type_infoE, i64 2) to i8*), i8* getelementptr inbounds ([48 x i8]* @_ZTSN3irr4core12irrAllocatorINS_5video9S3DVertexEEE, i32 0, i32 0) }
@_ZTVN3irr4core12irrAllocatorINS_5video17S3DVertex2TCoordsEEE = linkonce_odr unnamed_addr constant [6 x i8*] [i8* null, i8* bitcast ({ i8*, i8* }* @_ZTIN3irr4core12irrAllocatorINS_5video17S3DVertex2TCoordsEEE to i8*), i8* bitcast (void (%"class.irr::core::irrAllocator.3"*)* @_ZN3irr4core12irrAllocatorINS_5video17S3DVertex2TCoordsEED2Ev to i8*), i8* bitcast (void (%"class.irr::core::irrAllocator.3"*)* @_ZN3irr4core12irrAllocatorINS_5video17S3DVertex2TCoordsEED0Ev to i8*), i8* bitcast (i8* (%"class.irr::core::irrAllocator.3"*, i64)* @_ZN3irr4core12irrAllocatorINS_5video17S3DVertex2TCoordsEE12internal_newEm to i8*), i8* bitcast (void (%"class.irr::core::irrAllocator.3"*, i8*)* @_ZN3irr4core12irrAllocatorINS_5video17S3DVertex2TCoordsEE15internal_deleteEPv to i8*)], align 8
@_ZTSN3irr4core12irrAllocatorINS_5video17S3DVertex2TCoordsEEE = linkonce_odr constant [57 x i8] c"N3irr4core12irrAllocatorINS_5video17S3DVertex2TCoordsEEE\00"
@_ZTIN3irr4core12irrAllocatorINS_5video17S3DVertex2TCoordsEEE = linkonce_odr constant { i8*, i8* } { i8* bitcast (i8** getelementptr inbounds (i8** @_ZTVN10__cxxabiv117__class_type_infoE, i64 2) to i8*), i8* getelementptr inbounds ([57 x i8]* @_ZTSN3irr4core12irrAllocatorINS_5video17S3DVertex2TCoordsEEE, i32 0, i32 0) }
@_ZTVN3irr4core12irrAllocatorINS_5video17S3DVertexTangentsEEE = linkonce_odr unnamed_addr constant [6 x i8*] [i8* null, i8* bitcast ({ i8*, i8* }* @_ZTIN3irr4core12irrAllocatorINS_5video17S3DVertexTangentsEEE to i8*), i8* bitcast (void (%"class.irr::core::irrAllocator.1"*)* @_ZN3irr4core12irrAllocatorINS_5video17S3DVertexTangentsEED2Ev to i8*), i8* bitcast (void (%"class.irr::core::irrAllocator.1"*)* @_ZN3irr4core12irrAllocatorINS_5video17S3DVertexTangentsEED0Ev to i8*), i8* bitcast (i8* (%"class.irr::core::irrAllocator.1"*, i64)* @_ZN3irr4core12irrAllocatorINS_5video17S3DVertexTangentsEE12internal_newEm to i8*), i8* bitcast (void (%"class.irr::core::irrAllocator.1"*, i8*)* @_ZN3irr4core12irrAllocatorINS_5video17S3DVertexTangentsEE15internal_deleteEPv to i8*)], align 8
@_ZTSN3irr4core12irrAllocatorINS_5video17S3DVertexTangentsEEE = linkonce_odr constant [57 x i8] c"N3irr4core12irrAllocatorINS_5video17S3DVertexTangentsEEE\00"
@_ZTIN3irr4core12irrAllocatorINS_5video17S3DVertexTangentsEEE = linkonce_odr constant { i8*, i8* } { i8* bitcast (i8** getelementptr inbounds (i8** @_ZTVN10__cxxabiv117__class_type_infoE, i64 2) to i8*), i8* getelementptr inbounds ([57 x i8]* @_ZTSN3irr4core12irrAllocatorINS_5video17S3DVertexTangentsEEE, i32 0, i32 0) }
@_ZTVN3irr17IReferenceCountedE = linkonce_odr unnamed_addr constant [4 x i8*] [i8* null, i8* bitcast ({ i8*, i8* }* @_ZTIN3irr17IReferenceCountedE to i8*), i8* bitcast (void (%"class.irr::IReferenceCounted"*)* @_ZN3irr17IReferenceCountedD2Ev to i8*), i8* bitcast (void (%"class.irr::IReferenceCounted"*)* @_ZN3irr17IReferenceCountedD0Ev to i8*)], align 8
@llvm.global_ctors = appending global [1 x { i32, void ()*, i8* }] [{ i32, void ()*, i8* } { i32 65535, void ()* @_GLOBAL__sub_I_CSkinnedMesh.cpp, i8* null }]

define internal void @__cxx_global_var_init() section ".text.startup" {
  call void @_ZN3irr4core6stringIcNS0_12irrAllocatorIcEEEC2IcEEPKT_(%"class.irr::core::string"* @_ZN3irr5scene6quake3L15irrEmptyStringcE, i8* getelementptr inbounds ([1 x i8]* @.str, i32 0, i32 0))
  %1 = call i32 @__cxa_atexit(void (i8*)* bitcast (void (%"class.irr::core::string"*)* @_ZN3irr4core6stringIcNS0_12irrAllocatorIcEEED2Ev to void (i8*)*), i8* bitcast (%"class.irr::core::string"* @_ZN3irr5scene6quake3L15irrEmptyStringcE to i8*), i8* @__dso_handle) #1
  ret void
}

; Function Attrs: uwtable
define linkonce_odr void @_ZN3irr4core6stringIcNS0_12irrAllocatorIcEEEC2IcEEPKT_(%"class.irr::core::string"* %this, i8* %c) unnamed_addr #0 align 2 {
  %1 = alloca %"class.irr::core::string"*, align 8
  %2 = alloca i8*, align 8
  %3 = alloca i8*
  %4 = alloca i32
  store %"class.irr::core::string"* %this, %"class.irr::core::string"** %1, align 8
  store i8* %c, i8** %2, align 8
  %5 = load %"class.irr::core::string"** %1
  %6 = getelementptr inbounds %"class.irr::core::string"* %5, i32 0, i32 0
  store i8* null, i8** %6, align 8
  %7 = getelementptr inbounds %"class.irr::core::string"* %5, i32 0, i32 1
  store i32 0, i32* %7, align 4
  %8 = getelementptr inbounds %"class.irr::core::string"* %5, i32 0, i32 2
  store i32 0, i32* %8, align 4
  %9 = getelementptr inbounds %"class.irr::core::string"* %5, i32 0, i32 3
  call void @_ZN3irr4core12irrAllocatorIcEC2Ev(%"class.irr::core::irrAllocator"* %9) #1
  %10 = load i8** %2, align 8
  %11 = invoke dereferenceable(24) %"class.irr::core::string"* @_ZN3irr4core6stringIcNS0_12irrAllocatorIcEEEaSIcEERS4_PKT_(%"class.irr::core::string"* %5, i8* %10)
          to label %12 unwind label %13

; <label>:12                                      ; preds = %0
  ret void

; <label>:13                                      ; preds = %0
  %14 = landingpad { i8*, i32 } personality i8* bitcast (i32 (...)* @__gxx_personality_v0 to i8*)
          cleanup
  %15 = extractvalue { i8*, i32 } %14, 0
  store i8* %15, i8** %3
  %16 = extractvalue { i8*, i32 } %14, 1
  store i32 %16, i32* %4
  invoke void @_ZN3irr4core12irrAllocatorIcED2Ev(%"class.irr::core::irrAllocator"* %9)
          to label %17 unwind label %23

; <label>:17                                      ; preds = %13
  br label %18

; <label>:18                                      ; preds = %17
  %19 = load i8** %3
  %20 = load i32* %4
  %21 = insertvalue { i8*, i32 } undef, i8* %19, 0
  %22 = insertvalue { i8*, i32 } %21, i32 %20, 1
  resume { i8*, i32 } %22

; <label>:23                                      ; preds = %13
  %24 = landingpad { i8*, i32 } personality i8* bitcast (i32 (...)* @__gxx_personality_v0 to i8*)
          catch i8* null
  %25 = extractvalue { i8*, i32 } %24, 0
  call void @__clang_call_terminate(i8* %25) #11
  unreachable
}

; Function Attrs: uwtable
define linkonce_odr void @_ZN3irr4core6stringIcNS0_12irrAllocatorIcEEED2Ev(%"class.irr::core::string"* %this) unnamed_addr #0 align 2 {
  %1 = alloca %"class.irr::core::string"*, align 8
  %2 = alloca i8*
  %3 = alloca i32
  store %"class.irr::core::string"* %this, %"class.irr::core::string"** %1, align 8
  %4 = load %"class.irr::core::string"** %1
  %5 = getelementptr inbounds %"class.irr::core::string"* %4, i32 0, i32 3
  %6 = getelementptr inbounds %"class.irr::core::string"* %4, i32 0, i32 0
  %7 = load i8** %6, align 8
  invoke void @_ZN3irr4core12irrAllocatorIcE10deallocateEPc(%"class.irr::core::irrAllocator"* %5, i8* %7)
          to label %8 unwind label %10

; <label>:8                                       ; preds = %0
  %9 = getelementptr inbounds %"class.irr::core::string"* %4, i32 0, i32 3
  call void @_ZN3irr4core12irrAllocatorIcED2Ev(%"class.irr::core::irrAllocator"* %9)
  ret void

; <label>:10                                      ; preds = %0
  %11 = landingpad { i8*, i32 } personality i8* bitcast (i32 (...)* @__gxx_personality_v0 to i8*)
          cleanup
  %12 = extractvalue { i8*, i32 } %11, 0
  store i8* %12, i8** %2
  %13 = extractvalue { i8*, i32 } %11, 1
  store i32 %13, i32* %3
  %14 = getelementptr inbounds %"class.irr::core::string"* %4, i32 0, i32 3
  invoke void @_ZN3irr4core12irrAllocatorIcED2Ev(%"class.irr::core::irrAllocator"* %14)
          to label %15 unwind label %21

; <label>:15                                      ; preds = %10
  br label %16

; <label>:16                                      ; preds = %15
  %17 = load i8** %2
  %18 = load i32* %3
  %19 = insertvalue { i8*, i32 } undef, i8* %17, 0
  %20 = insertvalue { i8*, i32 } %19, i32 %18, 1
  resume { i8*, i32 } %20

; <label>:21                                      ; preds = %10
  %22 = landingpad { i8*, i32 } personality i8* bitcast (i32 (...)* @__gxx_personality_v0 to i8*)
          catch i8* null
  %23 = extractvalue { i8*, i32 } %22, 0
  call void @__clang_call_terminate(i8* %23) #11
  unreachable
}

; Function Attrs: nounwind
declare i32 @__cxa_atexit(void (i8*)*, i8*, i8*) #1

; Function Attrs: uwtable
define void @_ZN3irr5scene12CSkinnedMeshC2Ev(%"class.irr::scene::CSkinnedMesh"* %this, i8** %vtt) unnamed_addr #0 align 2 {
  %1 = alloca %"class.irr::scene::CSkinnedMesh"*, align 8
  %2 = alloca i8**, align 8
  %3 = alloca i8*
  %4 = alloca i32
  store %"class.irr::scene::CSkinnedMesh"* %this, %"class.irr::scene::CSkinnedMesh"** %1, align 8
  store i8** %vtt, i8*** %2, align 8
  %5 = load %"class.irr::scene::CSkinnedMesh"** %1
  %6 = load i8*** %2
  %7 = bitcast %"class.irr::scene::CSkinnedMesh"* %5 to %"class.irr::scene::ISkinnedMesh"*
  %8 = getelementptr inbounds i8** %6, i64 1
  call void @_ZN3irr5scene12ISkinnedMeshC2Ev(%"class.irr::scene::ISkinnedMesh"* %7, i8** %8)
  %9 = load i8** %6
  %10 = bitcast %"class.irr::scene::CSkinnedMesh"* %5 to i32 (...)***
  %11 = bitcast i8* %9 to i32 (...)**
  store i32 (...)** %11, i32 (...)*** %10
  %12 = getelementptr inbounds i8** %6, i64 7
  %13 = load i8** %12
  %14 = bitcast %"class.irr::scene::CSkinnedMesh"* %5 to i8**
  %15 = load i8** %14
  %16 = getelementptr i8* %15, i64 -24
  %17 = bitcast i8* %16 to i64*
  %18 = load i64* %17
  %19 = bitcast %"class.irr::scene::CSkinnedMesh"* %5 to i8*
  %20 = getelementptr inbounds i8* %19, i64 %18
  %21 = bitcast i8* %20 to i32 (...)***
  %22 = bitcast i8* %13 to i32 (...)**
  store i32 (...)** %22, i32 (...)*** %21
  %23 = getelementptr inbounds %"class.irr::scene::CSkinnedMesh"* %5, i32 0, i32 1
  store %"class.irr::core::array"* null, %"class.irr::core::array"** %23, align 8
  %24 = getelementptr inbounds %"class.irr::scene::CSkinnedMesh"* %5, i32 0, i32 2
  invoke void @_ZN3irr4core5arrayIPNS_5scene15SSkinMeshBufferENS0_12irrAllocatorIS4_EEEC2Ev(%"class.irr::core::array"* %24)
          to label %25 unwind label %45

; <label>:25                                      ; preds = %0
  %26 = getelementptr inbounds %"class.irr::scene::CSkinnedMesh"* %5, i32 0, i32 3
  invoke void @_ZN3irr4core5arrayIPNS_5scene12ISkinnedMesh6SJointENS0_12irrAllocatorIS5_EEEC2Ev(%"class.irr::core::array.14"* %26)
          to label %27 unwind label %49

; <label>:27                                      ; preds = %25
  %28 = getelementptr inbounds %"class.irr::scene::CSkinnedMesh"* %5, i32 0, i32 4
  invoke void @_ZN3irr4core5arrayIPNS_5scene12ISkinnedMesh6SJointENS0_12irrAllocatorIS5_EEEC2Ev(%"class.irr::core::array.14"* %28)
          to label %29 unwind label %53

; <label>:29                                      ; preds = %27
  %30 = getelementptr inbounds %"class.irr::scene::CSkinnedMesh"* %5, i32 0, i32 5
  invoke void @_ZN3irr4core5arrayINS1_IbNS0_12irrAllocatorIbEEEENS2_IS4_EEEC2Ev(%"class.irr::core::array.17"* %30)
          to label %31 unwind label %57

; <label>:31                                      ; preds = %29
  %32 = getelementptr inbounds %"class.irr::scene::CSkinnedMesh"* %5, i32 0, i32 6
  invoke void @_ZN3irr4core8aabbox3dIfEC2Ev(%"class.irr::core::aabbox3d"* %32)
          to label %33 unwind label %61

; <label>:33                                      ; preds = %31
  %34 = getelementptr inbounds %"class.irr::scene::CSkinnedMesh"* %5, i32 0, i32 7
  store float 0.000000e+00, float* %34, align 4
  %35 = getelementptr inbounds %"class.irr::scene::CSkinnedMesh"* %5, i32 0, i32 8
  store float 2.500000e+01, float* %35, align 4
  %36 = getelementptr inbounds %"class.irr::scene::CSkinnedMesh"* %5, i32 0, i32 9
  store float -1.000000e+00, float* %36, align 4
  %37 = getelementptr inbounds %"class.irr::scene::CSkinnedMesh"* %5, i32 0, i32 10
  store i8 0, i8* %37, align 1
  %38 = getelementptr inbounds %"class.irr::scene::CSkinnedMesh"* %5, i32 0, i32 11
  store i8 1, i8* %38, align 1
  %39 = getelementptr inbounds %"class.irr::scene::CSkinnedMesh"* %5, i32 0, i32 12
  store i8 0, i8* %39, align 1
  %40 = getelementptr inbounds %"class.irr::scene::CSkinnedMesh"* %5, i32 0, i32 13
  store i8 0, i8* %40, align 1
  %41 = getelementptr inbounds %"class.irr::scene::CSkinnedMesh"* %5, i32 0, i32 14
  store i8 1, i8* %41, align 1
  %42 = getelementptr inbounds %"class.irr::scene::CSkinnedMesh"* %5, i32 0, i32 15
  store i8 0, i8* %42, align 1
  %43 = getelementptr inbounds %"class.irr::scene::CSkinnedMesh"* %5, i32 0, i32 2
  %44 = getelementptr inbounds %"class.irr::scene::CSkinnedMesh"* %5, i32 0, i32 1
  store %"class.irr::core::array"* %43, %"class.irr::core::array"** %44, align 8
  ret void

; <label>:45                                      ; preds = %0
  %46 = landingpad { i8*, i32 } personality i8* bitcast (i32 (...)* @__gxx_personality_v0 to i8*)
          cleanup
  %47 = extractvalue { i8*, i32 } %46, 0
  store i8* %47, i8** %3
  %48 = extractvalue { i8*, i32 } %46, 1
  store i32 %48, i32* %4
  br label %72

; <label>:49                                      ; preds = %25
  %50 = landingpad { i8*, i32 } personality i8* bitcast (i32 (...)* @__gxx_personality_v0 to i8*)
          cleanup
  %51 = extractvalue { i8*, i32 } %50, 0
  store i8* %51, i8** %3
  %52 = extractvalue { i8*, i32 } %50, 1
  store i32 %52, i32* %4
  br label %70

; <label>:53                                      ; preds = %27
  %54 = landingpad { i8*, i32 } personality i8* bitcast (i32 (...)* @__gxx_personality_v0 to i8*)
          cleanup
  %55 = extractvalue { i8*, i32 } %54, 0
  store i8* %55, i8** %3
  %56 = extractvalue { i8*, i32 } %54, 1
  store i32 %56, i32* %4
  br label %68

; <label>:57                                      ; preds = %29
  %58 = landingpad { i8*, i32 } personality i8* bitcast (i32 (...)* @__gxx_personality_v0 to i8*)
          cleanup
  %59 = extractvalue { i8*, i32 } %58, 0
  store i8* %59, i8** %3
  %60 = extractvalue { i8*, i32 } %58, 1
  store i32 %60, i32* %4
  br label %66

; <label>:61                                      ; preds = %31
  %62 = landingpad { i8*, i32 } personality i8* bitcast (i32 (...)* @__gxx_personality_v0 to i8*)
          cleanup
  %63 = extractvalue { i8*, i32 } %62, 0
  store i8* %63, i8** %3
  %64 = extractvalue { i8*, i32 } %62, 1
  store i32 %64, i32* %4
  invoke void @_ZN3irr4core5arrayINS1_IbNS0_12irrAllocatorIbEEEENS2_IS4_EEED2Ev(%"class.irr::core::array.17"* %30)
          to label %65 unwind label %81

; <label>:65                                      ; preds = %61
  br label %66

; <label>:66                                      ; preds = %65, %57
  invoke void @_ZN3irr4core5arrayIPNS_5scene12ISkinnedMesh6SJointENS0_12irrAllocatorIS5_EEED2Ev(%"class.irr::core::array.14"* %28)
          to label %67 unwind label %81

; <label>:67                                      ; preds = %66
  br label %68

; <label>:68                                      ; preds = %67, %53
  invoke void @_ZN3irr4core5arrayIPNS_5scene12ISkinnedMesh6SJointENS0_12irrAllocatorIS5_EEED2Ev(%"class.irr::core::array.14"* %26)
          to label %69 unwind label %81

; <label>:69                                      ; preds = %68
  br label %70

; <label>:70                                      ; preds = %69, %49
  invoke void @_ZN3irr4core5arrayIPNS_5scene15SSkinMeshBufferENS0_12irrAllocatorIS4_EEED2Ev(%"class.irr::core::array"* %24)
          to label %71 unwind label %81

; <label>:71                                      ; preds = %70
  br label %72

; <label>:72                                      ; preds = %71, %45
  %73 = bitcast %"class.irr::scene::CSkinnedMesh"* %5 to %"class.irr::scene::ISkinnedMesh"*
  %74 = getelementptr inbounds i8** %6, i64 1
  invoke void @_ZN3irr5scene12ISkinnedMeshD2Ev(%"class.irr::scene::ISkinnedMesh"* %73, i8** %74)
          to label %75 unwind label %81

; <label>:75                                      ; preds = %72
  br label %76

; <label>:76                                      ; preds = %75
  %77 = load i8** %3
  %78 = load i32* %4
  %79 = insertvalue { i8*, i32 } undef, i8* %77, 0
  %80 = insertvalue { i8*, i32 } %79, i32 %78, 1
  resume { i8*, i32 } %80

; <label>:81                                      ; preds = %72, %70, %68, %66, %61
  %82 = landingpad { i8*, i32 } personality i8* bitcast (i32 (...)* @__gxx_personality_v0 to i8*)
          catch i8* null
  %83 = extractvalue { i8*, i32 } %82, 0
  call void @__clang_call_terminate(i8* %83) #11
  unreachable
}

; Function Attrs: inlinehint uwtable
define linkonce_odr void @_ZN3irr5scene12ISkinnedMeshC2Ev(%"class.irr::scene::ISkinnedMesh"* %this, i8** %vtt) unnamed_addr #2 align 2 {
  %1 = alloca %"class.irr::scene::ISkinnedMesh"*, align 8
  %2 = alloca i8**, align 8
  store %"class.irr::scene::ISkinnedMesh"* %this, %"class.irr::scene::ISkinnedMesh"** %1, align 8
  store i8** %vtt, i8*** %2, align 8
  %3 = load %"class.irr::scene::ISkinnedMesh"** %1
  %4 = load i8*** %2
  %5 = bitcast %"class.irr::scene::ISkinnedMesh"* %3 to %"class.irr::scene::IAnimatedMesh"*
  %6 = getelementptr inbounds i8** %4, i64 1
  call void @_ZN3irr5scene13IAnimatedMeshC2Ev(%"class.irr::scene::IAnimatedMesh"* %5, i8** %6)
  %7 = load i8** %4
  %8 = bitcast %"class.irr::scene::ISkinnedMesh"* %3 to i32 (...)***
  %9 = bitcast i8* %7 to i32 (...)**
  store i32 (...)** %9, i32 (...)*** %8
  %10 = getelementptr inbounds i8** %4, i64 5
  %11 = load i8** %10
  %12 = bitcast %"class.irr::scene::ISkinnedMesh"* %3 to i8**
  %13 = load i8** %12
  %14 = getelementptr i8* %13, i64 -24
  %15 = bitcast i8* %14 to i64*
  %16 = load i64* %15
  %17 = bitcast %"class.irr::scene::ISkinnedMesh"* %3 to i8*
  %18 = getelementptr inbounds i8* %17, i64 %16
  %19 = bitcast i8* %18 to i32 (...)***
  %20 = bitcast i8* %11 to i32 (...)**
  store i32 (...)** %20, i32 (...)*** %19
  ret void
}

; Function Attrs: nounwind uwtable
define linkonce_odr void @_ZN3irr4core5arrayIPNS_5scene15SSkinMeshBufferENS0_12irrAllocatorIS4_EEEC2Ev(%"class.irr::core::array"* %this) unnamed_addr #3 align 2 {
  %1 = alloca %"class.irr::core::array"*, align 8
  store %"class.irr::core::array"* %this, %"class.irr::core::array"** %1, align 8
  %2 = load %"class.irr::core::array"** %1
  %3 = getelementptr inbounds %"class.irr::core::array"* %2, i32 0, i32 0
  store %"struct.irr::scene::SSkinMeshBuffer"** null, %"struct.irr::scene::SSkinMeshBuffer"*** %3, align 8
  %4 = getelementptr inbounds %"class.irr::core::array"* %2, i32 0, i32 1
  store i32 0, i32* %4, align 4
  %5 = getelementptr inbounds %"class.irr::core::array"* %2, i32 0, i32 2
  store i32 0, i32* %5, align 4
  %6 = getelementptr inbounds %"class.irr::core::array"* %2, i32 0, i32 3
  call void @_ZN3irr4core12irrAllocatorIPNS_5scene15SSkinMeshBufferEEC2Ev(%"class.irr::core::irrAllocator.12"* %6) #1
  %7 = getelementptr inbounds %"class.irr::core::array"* %2, i32 0, i32 4
  %8 = load i8* %7, align 8
  %9 = and i8 %8, -16
  %10 = or i8 %9, 1
  store i8 %10, i8* %7, align 8
  %11 = getelementptr inbounds %"class.irr::core::array"* %2, i32 0, i32 4
  %12 = load i8* %11, align 8
  %13 = and i8 %12, -17
  %14 = or i8 %13, 16
  store i8 %14, i8* %11, align 8
  %15 = getelementptr inbounds %"class.irr::core::array"* %2, i32 0, i32 4
  %16 = load i8* %15, align 8
  %17 = and i8 %16, -33
  %18 = or i8 %17, 32
  store i8 %18, i8* %15, align 8
  ret void
}

declare i32 @__gxx_personality_v0(...)

; Function Attrs: nounwind uwtable
define linkonce_odr void @_ZN3irr4core5arrayIPNS_5scene12ISkinnedMesh6SJointENS0_12irrAllocatorIS5_EEEC2Ev(%"class.irr::core::array.14"* %this) unnamed_addr #3 align 2 {
  %1 = alloca %"class.irr::core::array.14"*, align 8
  store %"class.irr::core::array.14"* %this, %"class.irr::core::array.14"** %1, align 8
  %2 = load %"class.irr::core::array.14"** %1
  %3 = getelementptr inbounds %"class.irr::core::array.14"* %2, i32 0, i32 0
  store %"struct.irr::scene::ISkinnedMesh::SJoint"** null, %"struct.irr::scene::ISkinnedMesh::SJoint"*** %3, align 8
  %4 = getelementptr inbounds %"class.irr::core::array.14"* %2, i32 0, i32 1
  store i32 0, i32* %4, align 4
  %5 = getelementptr inbounds %"class.irr::core::array.14"* %2, i32 0, i32 2
  store i32 0, i32* %5, align 4
  %6 = getelementptr inbounds %"class.irr::core::array.14"* %2, i32 0, i32 3
  call void @_ZN3irr4core12irrAllocatorIPNS_5scene12ISkinnedMesh6SJointEEC2Ev(%"class.irr::core::irrAllocator.15"* %6) #1
  %7 = getelementptr inbounds %"class.irr::core::array.14"* %2, i32 0, i32 4
  %8 = load i8* %7, align 8
  %9 = and i8 %8, -16
  %10 = or i8 %9, 1
  store i8 %10, i8* %7, align 8
  %11 = getelementptr inbounds %"class.irr::core::array.14"* %2, i32 0, i32 4
  %12 = load i8* %11, align 8
  %13 = and i8 %12, -17
  %14 = or i8 %13, 16
  store i8 %14, i8* %11, align 8
  %15 = getelementptr inbounds %"class.irr::core::array.14"* %2, i32 0, i32 4
  %16 = load i8* %15, align 8
  %17 = and i8 %16, -33
  %18 = or i8 %17, 32
  store i8 %18, i8* %15, align 8
  ret void
}

; Function Attrs: nounwind uwtable
define linkonce_odr void @_ZN3irr4core5arrayINS1_IbNS0_12irrAllocatorIbEEEENS2_IS4_EEEC2Ev(%"class.irr::core::array.17"* %this) unnamed_addr #3 align 2 {
  %1 = alloca %"class.irr::core::array.17"*, align 8
  store %"class.irr::core::array.17"* %this, %"class.irr::core::array.17"** %1, align 8
  %2 = load %"class.irr::core::array.17"** %1
  %3 = getelementptr inbounds %"class.irr::core::array.17"* %2, i32 0, i32 0
  store %"class.irr::core::array.18"* null, %"class.irr::core::array.18"** %3, align 8
  %4 = getelementptr inbounds %"class.irr::core::array.17"* %2, i32 0, i32 1
  store i32 0, i32* %4, align 4
  %5 = getelementptr inbounds %"class.irr::core::array.17"* %2, i32 0, i32 2
  store i32 0, i32* %5, align 4
  %6 = getelementptr inbounds %"class.irr::core::array.17"* %2, i32 0, i32 3
  call void @_ZN3irr4core12irrAllocatorINS0_5arrayIbNS1_IbEEEEEC2Ev(%"class.irr::core::irrAllocator.21"* %6) #1
  %7 = getelementptr inbounds %"class.irr::core::array.17"* %2, i32 0, i32 4
  %8 = load i8* %7, align 8
  %9 = and i8 %8, -16
  %10 = or i8 %9, 1
  store i8 %10, i8* %7, align 8
  %11 = getelementptr inbounds %"class.irr::core::array.17"* %2, i32 0, i32 4
  %12 = load i8* %11, align 8
  %13 = and i8 %12, -17
  %14 = or i8 %13, 16
  store i8 %14, i8* %11, align 8
  %15 = getelementptr inbounds %"class.irr::core::array.17"* %2, i32 0, i32 4
  %16 = load i8* %15, align 8
  %17 = and i8 %16, -33
  %18 = or i8 %17, 32
  store i8 %18, i8* %15, align 8
  ret void
}

; Function Attrs: uwtable
define linkonce_odr void @_ZN3irr4core8aabbox3dIfEC2Ev(%"class.irr::core::aabbox3d"* %this) unnamed_addr #0 align 2 {
  %1 = alloca %"class.irr::core::aabbox3d"*, align 8
  store %"class.irr::core::aabbox3d"* %this, %"class.irr::core::aabbox3d"** %1, align 8
  %2 = load %"class.irr::core::aabbox3d"** %1
  %3 = getelementptr inbounds %"class.irr::core::aabbox3d"* %2, i32 0, i32 0
  call void @_ZN3irr4core8vector3dIfEC2Efff(%"class.irr::core::vector3d"* %3, float -1.000000e+00, float -1.000000e+00, float -1.000000e+00)
  %4 = getelementptr inbounds %"class.irr::core::aabbox3d"* %2, i32 0, i32 1
  call void @_ZN3irr4core8vector3dIfEC2Efff(%"class.irr::core::vector3d"* %4, float 1.000000e+00, float 1.000000e+00, float 1.000000e+00)
  ret void
}

; Function Attrs: uwtable
define linkonce_odr void @_ZN3irr4core5arrayINS1_IbNS0_12irrAllocatorIbEEEENS2_IS4_EEED2Ev(%"class.irr::core::array.17"* %this) unnamed_addr #0 align 2 {
  %1 = alloca %"class.irr::core::array.17"*, align 8
  %2 = alloca i8*
  %3 = alloca i32
  store %"class.irr::core::array.17"* %this, %"class.irr::core::array.17"** %1, align 8
  %4 = load %"class.irr::core::array.17"** %1
  invoke void @_ZN3irr4core5arrayINS1_IbNS0_12irrAllocatorIbEEEENS2_IS4_EEE5clearEv(%"class.irr::core::array.17"* %4)
          to label %5 unwind label %7

; <label>:5                                       ; preds = %0
  %6 = getelementptr inbounds %"class.irr::core::array.17"* %4, i32 0, i32 3
  call void @_ZN3irr4core12irrAllocatorINS0_5arrayIbNS1_IbEEEEED2Ev(%"class.irr::core::irrAllocator.21"* %6)
  ret void

; <label>:7                                       ; preds = %0
  %8 = landingpad { i8*, i32 } personality i8* bitcast (i32 (...)* @__gxx_personality_v0 to i8*)
          cleanup
  %9 = extractvalue { i8*, i32 } %8, 0
  store i8* %9, i8** %2
  %10 = extractvalue { i8*, i32 } %8, 1
  store i32 %10, i32* %3
  %11 = getelementptr inbounds %"class.irr::core::array.17"* %4, i32 0, i32 3
  invoke void @_ZN3irr4core12irrAllocatorINS0_5arrayIbNS1_IbEEEEED2Ev(%"class.irr::core::irrAllocator.21"* %11)
          to label %12 unwind label %18

; <label>:12                                      ; preds = %7
  br label %13

; <label>:13                                      ; preds = %12
  %14 = load i8** %2
  %15 = load i32* %3
  %16 = insertvalue { i8*, i32 } undef, i8* %14, 0
  %17 = insertvalue { i8*, i32 } %16, i32 %15, 1
  resume { i8*, i32 } %17

; <label>:18                                      ; preds = %7
  %19 = landingpad { i8*, i32 } personality i8* bitcast (i32 (...)* @__gxx_personality_v0 to i8*)
          catch i8* null
  %20 = extractvalue { i8*, i32 } %19, 0
  call void @__clang_call_terminate(i8* %20) #11
  unreachable
}

; Function Attrs: noinline noreturn nounwind
define linkonce_odr hidden void @__clang_call_terminate(i8*) #4 {
  %2 = call i8* @__cxa_begin_catch(i8* %0) #1
  call void @_ZSt9terminatev() #11
  unreachable
}

declare i8* @__cxa_begin_catch(i8*)

declare void @_ZSt9terminatev()

; Function Attrs: uwtable
define linkonce_odr void @_ZN3irr4core5arrayIPNS_5scene12ISkinnedMesh6SJointENS0_12irrAllocatorIS5_EEED2Ev(%"class.irr::core::array.14"* %this) unnamed_addr #0 align 2 {
  %1 = alloca %"class.irr::core::array.14"*, align 8
  %2 = alloca i8*
  %3 = alloca i32
  store %"class.irr::core::array.14"* %this, %"class.irr::core::array.14"** %1, align 8
  %4 = load %"class.irr::core::array.14"** %1
  invoke void @_ZN3irr4core5arrayIPNS_5scene12ISkinnedMesh6SJointENS0_12irrAllocatorIS5_EEE5clearEv(%"class.irr::core::array.14"* %4)
          to label %5 unwind label %7

; <label>:5                                       ; preds = %0
  %6 = getelementptr inbounds %"class.irr::core::array.14"* %4, i32 0, i32 3
  call void @_ZN3irr4core12irrAllocatorIPNS_5scene12ISkinnedMesh6SJointEED2Ev(%"class.irr::core::irrAllocator.15"* %6)
  ret void

; <label>:7                                       ; preds = %0
  %8 = landingpad { i8*, i32 } personality i8* bitcast (i32 (...)* @__gxx_personality_v0 to i8*)
          cleanup
  %9 = extractvalue { i8*, i32 } %8, 0
  store i8* %9, i8** %2
  %10 = extractvalue { i8*, i32 } %8, 1
  store i32 %10, i32* %3
  %11 = getelementptr inbounds %"class.irr::core::array.14"* %4, i32 0, i32 3
  invoke void @_ZN3irr4core12irrAllocatorIPNS_5scene12ISkinnedMesh6SJointEED2Ev(%"class.irr::core::irrAllocator.15"* %11)
          to label %12 unwind label %18

; <label>:12                                      ; preds = %7
  br label %13

; <label>:13                                      ; preds = %12
  %14 = load i8** %2
  %15 = load i32* %3
  %16 = insertvalue { i8*, i32 } undef, i8* %14, 0
  %17 = insertvalue { i8*, i32 } %16, i32 %15, 1
  resume { i8*, i32 } %17

; <label>:18                                      ; preds = %7
  %19 = landingpad { i8*, i32 } personality i8* bitcast (i32 (...)* @__gxx_personality_v0 to i8*)
          catch i8* null
  %20 = extractvalue { i8*, i32 } %19, 0
  call void @__clang_call_terminate(i8* %20) #11
  unreachable
}

; Function Attrs: uwtable
define linkonce_odr void @_ZN3irr4core5arrayIPNS_5scene15SSkinMeshBufferENS0_12irrAllocatorIS4_EEED2Ev(%"class.irr::core::array"* %this) unnamed_addr #0 align 2 {
  %1 = alloca %"class.irr::core::array"*, align 8
  %2 = alloca i8*
  %3 = alloca i32
  store %"class.irr::core::array"* %this, %"class.irr::core::array"** %1, align 8
  %4 = load %"class.irr::core::array"** %1
  invoke void @_ZN3irr4core5arrayIPNS_5scene15SSkinMeshBufferENS0_12irrAllocatorIS4_EEE5clearEv(%"class.irr::core::array"* %4)
          to label %5 unwind label %7

; <label>:5                                       ; preds = %0
  %6 = getelementptr inbounds %"class.irr::core::array"* %4, i32 0, i32 3
  call void @_ZN3irr4core12irrAllocatorIPNS_5scene15SSkinMeshBufferEED2Ev(%"class.irr::core::irrAllocator.12"* %6)
  ret void

; <label>:7                                       ; preds = %0
  %8 = landingpad { i8*, i32 } personality i8* bitcast (i32 (...)* @__gxx_personality_v0 to i8*)
          cleanup
  %9 = extractvalue { i8*, i32 } %8, 0
  store i8* %9, i8** %2
  %10 = extractvalue { i8*, i32 } %8, 1
  store i32 %10, i32* %3
  %11 = getelementptr inbounds %"class.irr::core::array"* %4, i32 0, i32 3
  invoke void @_ZN3irr4core12irrAllocatorIPNS_5scene15SSkinMeshBufferEED2Ev(%"class.irr::core::irrAllocator.12"* %11)
          to label %12 unwind label %18

; <label>:12                                      ; preds = %7
  br label %13

; <label>:13                                      ; preds = %12
  %14 = load i8** %2
  %15 = load i32* %3
  %16 = insertvalue { i8*, i32 } undef, i8* %14, 0
  %17 = insertvalue { i8*, i32 } %16, i32 %15, 1
  resume { i8*, i32 } %17

; <label>:18                                      ; preds = %7
  %19 = landingpad { i8*, i32 } personality i8* bitcast (i32 (...)* @__gxx_personality_v0 to i8*)
          catch i8* null
  %20 = extractvalue { i8*, i32 } %19, 0
  call void @__clang_call_terminate(i8* %20) #11
  unreachable
}

; Function Attrs: inlinehint nounwind uwtable
define linkonce_odr void @_ZN3irr5scene12ISkinnedMeshD2Ev(%"class.irr::scene::ISkinnedMesh"* %this, i8** %vtt) unnamed_addr #5 align 2 {
  %1 = alloca %"class.irr::scene::ISkinnedMesh"*, align 8
  %2 = alloca i8**, align 8
  store %"class.irr::scene::ISkinnedMesh"* %this, %"class.irr::scene::ISkinnedMesh"** %1, align 8
  store i8** %vtt, i8*** %2, align 8
  %3 = load %"class.irr::scene::ISkinnedMesh"** %1
  %4 = load i8*** %2
  %5 = bitcast %"class.irr::scene::ISkinnedMesh"* %3 to %"class.irr::scene::IAnimatedMesh"*
  %6 = getelementptr inbounds i8** %4, i64 1
  call void @_ZN3irr5scene13IAnimatedMeshD2Ev(%"class.irr::scene::IAnimatedMesh"* %5, i8** %6)
  ret void
}

; Function Attrs: uwtable
define void @_ZN3irr5scene12CSkinnedMeshC1Ev(%"class.irr::scene::CSkinnedMesh"* %this) unnamed_addr #0 align 2 {
  %1 = alloca %"class.irr::scene::CSkinnedMesh"*, align 8
  %2 = alloca i8*
  %3 = alloca i32
  store %"class.irr::scene::CSkinnedMesh"* %this, %"class.irr::scene::CSkinnedMesh"** %1, align 8
  %4 = load %"class.irr::scene::CSkinnedMesh"** %1
  %5 = bitcast %"class.irr::scene::CSkinnedMesh"* %4 to i8*
  %6 = getelementptr inbounds i8* %5, i64 192
  %7 = bitcast i8* %6 to %"class.irr::IReferenceCounted"*
  call void @_ZN3irr17IReferenceCountedC2Ev(%"class.irr::IReferenceCounted"* %7)
  %8 = bitcast %"class.irr::scene::CSkinnedMesh"* %4 to %"class.irr::scene::ISkinnedMesh"*
  invoke void @_ZN3irr5scene12ISkinnedMeshC2Ev(%"class.irr::scene::ISkinnedMesh"* %8, i8** getelementptr inbounds ([8 x i8*]* @_ZTTN3irr5scene12CSkinnedMeshE, i64 0, i64 1))
          to label %9 unwind label %36

; <label>:9                                       ; preds = %0
  %10 = bitcast %"class.irr::scene::CSkinnedMesh"* %4 to i32 (...)***
  store i32 (...)** bitcast (i8** getelementptr inbounds ([45 x i8*]* @_ZTVN3irr5scene12CSkinnedMeshE, i64 0, i64 3) to i32 (...)**), i32 (...)*** %10
  %11 = bitcast %"class.irr::scene::CSkinnedMesh"* %4 to i8*
  %12 = getelementptr inbounds i8* %11, i64 192
  %13 = bitcast i8* %12 to i32 (...)***
  store i32 (...)** bitcast (i8** getelementptr inbounds ([45 x i8*]* @_ZTVN3irr5scene12CSkinnedMeshE, i64 0, i64 43) to i32 (...)**), i32 (...)*** %13
  %14 = getelementptr inbounds %"class.irr::scene::CSkinnedMesh"* %4, i32 0, i32 1
  store %"class.irr::core::array"* null, %"class.irr::core::array"** %14, align 8
  %15 = getelementptr inbounds %"class.irr::scene::CSkinnedMesh"* %4, i32 0, i32 2
  invoke void @_ZN3irr4core5arrayIPNS_5scene15SSkinMeshBufferENS0_12irrAllocatorIS4_EEEC2Ev(%"class.irr::core::array"* %15)
          to label %16 unwind label %40

; <label>:16                                      ; preds = %9
  %17 = getelementptr inbounds %"class.irr::scene::CSkinnedMesh"* %4, i32 0, i32 3
  invoke void @_ZN3irr4core5arrayIPNS_5scene12ISkinnedMesh6SJointENS0_12irrAllocatorIS5_EEEC2Ev(%"class.irr::core::array.14"* %17)
          to label %18 unwind label %44

; <label>:18                                      ; preds = %16
  %19 = getelementptr inbounds %"class.irr::scene::CSkinnedMesh"* %4, i32 0, i32 4
  invoke void @_ZN3irr4core5arrayIPNS_5scene12ISkinnedMesh6SJointENS0_12irrAllocatorIS5_EEEC2Ev(%"class.irr::core::array.14"* %19)
          to label %20 unwind label %48

; <label>:20                                      ; preds = %18
  %21 = getelementptr inbounds %"class.irr::scene::CSkinnedMesh"* %4, i32 0, i32 5
  invoke void @_ZN3irr4core5arrayINS1_IbNS0_12irrAllocatorIbEEEENS2_IS4_EEEC2Ev(%"class.irr::core::array.17"* %21)
          to label %22 unwind label %52

; <label>:22                                      ; preds = %20
  %23 = getelementptr inbounds %"class.irr::scene::CSkinnedMesh"* %4, i32 0, i32 6
  invoke void @_ZN3irr4core8aabbox3dIfEC2Ev(%"class.irr::core::aabbox3d"* %23)
          to label %24 unwind label %56

; <label>:24                                      ; preds = %22
  %25 = getelementptr inbounds %"class.irr::scene::CSkinnedMesh"* %4, i32 0, i32 7
  store float 0.000000e+00, float* %25, align 4
  %26 = getelementptr inbounds %"class.irr::scene::CSkinnedMesh"* %4, i32 0, i32 8
  store float 2.500000e+01, float* %26, align 4
  %27 = getelementptr inbounds %"class.irr::scene::CSkinnedMesh"* %4, i32 0, i32 9
  store float -1.000000e+00, float* %27, align 4
  %28 = getelementptr inbounds %"class.irr::scene::CSkinnedMesh"* %4, i32 0, i32 10
  store i8 0, i8* %28, align 1
  %29 = getelementptr inbounds %"class.irr::scene::CSkinnedMesh"* %4, i32 0, i32 11
  store i8 1, i8* %29, align 1
  %30 = getelementptr inbounds %"class.irr::scene::CSkinnedMesh"* %4, i32 0, i32 12
  store i8 0, i8* %30, align 1
  %31 = getelementptr inbounds %"class.irr::scene::CSkinnedMesh"* %4, i32 0, i32 13
  store i8 0, i8* %31, align 1
  %32 = getelementptr inbounds %"class.irr::scene::CSkinnedMesh"* %4, i32 0, i32 14
  store i8 1, i8* %32, align 1
  %33 = getelementptr inbounds %"class.irr::scene::CSkinnedMesh"* %4, i32 0, i32 15
  store i8 0, i8* %33, align 1
  %34 = getelementptr inbounds %"class.irr::scene::CSkinnedMesh"* %4, i32 0, i32 2
  %35 = getelementptr inbounds %"class.irr::scene::CSkinnedMesh"* %4, i32 0, i32 1
  store %"class.irr::core::array"* %34, %"class.irr::core::array"** %35, align 8
  ret void

; <label>:36                                      ; preds = %0
  %37 = landingpad { i8*, i32 } personality i8* bitcast (i32 (...)* @__gxx_personality_v0 to i8*)
          cleanup
  %38 = extractvalue { i8*, i32 } %37, 0
  store i8* %38, i8** %2
  %39 = extractvalue { i8*, i32 } %37, 1
  store i32 %39, i32* %3
  br label %70

; <label>:40                                      ; preds = %9
  %41 = landingpad { i8*, i32 } personality i8* bitcast (i32 (...)* @__gxx_personality_v0 to i8*)
          cleanup
  %42 = extractvalue { i8*, i32 } %41, 0
  store i8* %42, i8** %2
  %43 = extractvalue { i8*, i32 } %41, 1
  store i32 %43, i32* %3
  br label %67

; <label>:44                                      ; preds = %16
  %45 = landingpad { i8*, i32 } personality i8* bitcast (i32 (...)* @__gxx_personality_v0 to i8*)
          cleanup
  %46 = extractvalue { i8*, i32 } %45, 0
  store i8* %46, i8** %2
  %47 = extractvalue { i8*, i32 } %45, 1
  store i32 %47, i32* %3
  br label %65

; <label>:48                                      ; preds = %18
  %49 = landingpad { i8*, i32 } personality i8* bitcast (i32 (...)* @__gxx_personality_v0 to i8*)
          cleanup
  %50 = extractvalue { i8*, i32 } %49, 0
  store i8* %50, i8** %2
  %51 = extractvalue { i8*, i32 } %49, 1
  store i32 %51, i32* %3
  br label %63

; <label>:52                                      ; preds = %20
  %53 = landingpad { i8*, i32 } personality i8* bitcast (i32 (...)* @__gxx_personality_v0 to i8*)
          cleanup
  %54 = extractvalue { i8*, i32 } %53, 0
  store i8* %54, i8** %2
  %55 = extractvalue { i8*, i32 } %53, 1
  store i32 %55, i32* %3
  br label %61

; <label>:56                                      ; preds = %22
  %57 = landingpad { i8*, i32 } personality i8* bitcast (i32 (...)* @__gxx_personality_v0 to i8*)
          cleanup
  %58 = extractvalue { i8*, i32 } %57, 0
  store i8* %58, i8** %2
  %59 = extractvalue { i8*, i32 } %57, 1
  store i32 %59, i32* %3
  invoke void @_ZN3irr4core5arrayINS1_IbNS0_12irrAllocatorIbEEEENS2_IS4_EEED2Ev(%"class.irr::core::array.17"* %21)
          to label %60 unwind label %80

; <label>:60                                      ; preds = %56
  br label %61

; <label>:61                                      ; preds = %60, %52
  invoke void @_ZN3irr4core5arrayIPNS_5scene12ISkinnedMesh6SJointENS0_12irrAllocatorIS5_EEED2Ev(%"class.irr::core::array.14"* %19)
          to label %62 unwind label %80

; <label>:62                                      ; preds = %61
  br label %63

; <label>:63                                      ; preds = %62, %48
  invoke void @_ZN3irr4core5arrayIPNS_5scene12ISkinnedMesh6SJointENS0_12irrAllocatorIS5_EEED2Ev(%"class.irr::core::array.14"* %17)
          to label %64 unwind label %80

; <label>:64                                      ; preds = %63
  br label %65

; <label>:65                                      ; preds = %64, %44
  invoke void @_ZN3irr4core5arrayIPNS_5scene15SSkinMeshBufferENS0_12irrAllocatorIS4_EEED2Ev(%"class.irr::core::array"* %15)
          to label %66 unwind label %80

; <label>:66                                      ; preds = %65
  br label %67

; <label>:67                                      ; preds = %66, %40
  %68 = bitcast %"class.irr::scene::CSkinnedMesh"* %4 to %"class.irr::scene::ISkinnedMesh"*
  invoke void @_ZN3irr5scene12ISkinnedMeshD2Ev(%"class.irr::scene::ISkinnedMesh"* %68, i8** getelementptr inbounds ([8 x i8*]* @_ZTTN3irr5scene12CSkinnedMeshE, i64 0, i64 1))
          to label %69 unwind label %80

; <label>:69                                      ; preds = %67
  br label %70

; <label>:70                                      ; preds = %69, %36
  %71 = bitcast %"class.irr::scene::CSkinnedMesh"* %4 to i8*
  %72 = getelementptr inbounds i8* %71, i64 192
  %73 = bitcast i8* %72 to %"class.irr::IReferenceCounted"*
  invoke void @_ZN3irr17IReferenceCountedD2Ev(%"class.irr::IReferenceCounted"* %73)
          to label %74 unwind label %80

; <label>:74                                      ; preds = %70
  br label %75

; <label>:75                                      ; preds = %74
  %76 = load i8** %2
  %77 = load i32* %3
  %78 = insertvalue { i8*, i32 } undef, i8* %76, 0
  %79 = insertvalue { i8*, i32 } %78, i32 %77, 1
  resume { i8*, i32 } %79

; <label>:80                                      ; preds = %70, %67, %65, %63, %61, %56
  %81 = landingpad { i8*, i32 } personality i8* bitcast (i32 (...)* @__gxx_personality_v0 to i8*)
          catch i8* null
  %82 = extractvalue { i8*, i32 } %81, 0
  call void @__clang_call_terminate(i8* %82) #11
  unreachable
}

; Function Attrs: nounwind uwtable
define linkonce_odr void @_ZN3irr17IReferenceCountedC2Ev(%"class.irr::IReferenceCounted"* %this) unnamed_addr #3 align 2 {
  %1 = alloca %"class.irr::IReferenceCounted"*, align 8
  store %"class.irr::IReferenceCounted"* %this, %"class.irr::IReferenceCounted"** %1, align 8
  %2 = load %"class.irr::IReferenceCounted"** %1
  %3 = bitcast %"class.irr::IReferenceCounted"* %2 to i32 (...)***
  store i32 (...)** bitcast (i8** getelementptr inbounds ([4 x i8*]* @_ZTVN3irr17IReferenceCountedE, i64 0, i64 2) to i32 (...)**), i32 (...)*** %3
  %4 = getelementptr inbounds %"class.irr::IReferenceCounted"* %2, i32 0, i32 1
  store i8* null, i8** %4, align 8
  %5 = getelementptr inbounds %"class.irr::IReferenceCounted"* %2, i32 0, i32 2
  store i32 1, i32* %5, align 4
  ret void
}

; Function Attrs: uwtable
define void @_ZN3irr5scene12CSkinnedMeshD2Ev(%"class.irr::scene::CSkinnedMesh"* %this, i8** %vtt) unnamed_addr #0 align 2 {
  %1 = alloca %"class.irr::scene::CSkinnedMesh"*, align 8
  %2 = alloca i8**, align 8
  %i = alloca i32, align 4
  %3 = alloca i8*
  %4 = alloca i32
  %j = alloca i32, align 4
  store %"class.irr::scene::CSkinnedMesh"* %this, %"class.irr::scene::CSkinnedMesh"** %1, align 8
  store i8** %vtt, i8*** %2, align 8
  %5 = load %"class.irr::scene::CSkinnedMesh"** %1
  %6 = load i8*** %2
  %7 = load i8** %6
  %8 = bitcast %"class.irr::scene::CSkinnedMesh"* %5 to i32 (...)***
  %9 = bitcast i8* %7 to i32 (...)**
  store i32 (...)** %9, i32 (...)*** %8
  %10 = getelementptr inbounds i8** %6, i64 7
  %11 = load i8** %10
  %12 = bitcast %"class.irr::scene::CSkinnedMesh"* %5 to i8**
  %13 = load i8** %12
  %14 = getelementptr i8* %13, i64 -24
  %15 = bitcast i8* %14 to i64*
  %16 = load i64* %15
  %17 = bitcast %"class.irr::scene::CSkinnedMesh"* %5 to i8*
  %18 = getelementptr inbounds i8* %17, i64 %16
  %19 = bitcast i8* %18 to i32 (...)***
  %20 = bitcast i8* %11 to i32 (...)**
  store i32 (...)** %20, i32 (...)*** %19
  store i32 0, i32* %i, align 4
  br label %21

; <label>:21                                      ; preds = %38, %0
  %22 = load i32* %i, align 4
  %23 = getelementptr inbounds %"class.irr::scene::CSkinnedMesh"* %5, i32 0, i32 3
  %24 = invoke i32 @_ZNK3irr4core5arrayIPNS_5scene12ISkinnedMesh6SJointENS0_12irrAllocatorIS5_EEE4sizeEv(%"class.irr::core::array.14"* %23)
          to label %25 unwind label %41

; <label>:25                                      ; preds = %21
  %26 = icmp ult i32 %22, %24
  br i1 %26, label %27, label %50

; <label>:27                                      ; preds = %25
  %28 = getelementptr inbounds %"class.irr::scene::CSkinnedMesh"* %5, i32 0, i32 3
  %29 = load i32* %i, align 4
  %30 = invoke dereferenceable(8) %"struct.irr::scene::ISkinnedMesh::SJoint"** @_ZN3irr4core5arrayIPNS_5scene12ISkinnedMesh6SJointENS0_12irrAllocatorIS5_EEEixEj(%"class.irr::core::array.14"* %28, i32 %29)
          to label %31 unwind label %41

; <label>:31                                      ; preds = %27
  %32 = load %"struct.irr::scene::ISkinnedMesh::SJoint"** %30
  %33 = icmp eq %"struct.irr::scene::ISkinnedMesh::SJoint"* %32, null
  br i1 %33, label %37, label %34

; <label>:34                                      ; preds = %31
  invoke void @_ZN3irr5scene12ISkinnedMesh6SJointD2Ev(%"struct.irr::scene::ISkinnedMesh::SJoint"* %32)
          to label %35 unwind label %45

; <label>:35                                      ; preds = %34
  %36 = bitcast %"struct.irr::scene::ISkinnedMesh::SJoint"* %32 to i8*
  call void @_ZdlPv(i8* %36) #12
  br label %37

; <label>:37                                      ; preds = %35, %31
  br label %38

; <label>:38                                      ; preds = %37
  %39 = load i32* %i, align 4
  %40 = add i32 %39, 1
  store i32 %40, i32* %i, align 4
  br label %21

; <label>:41                                      ; preds = %68, %64, %57, %51, %27, %21
  %42 = landingpad { i8*, i32 } personality i8* bitcast (i32 (...)* @__gxx_personality_v0 to i8*)
          cleanup
  %43 = extractvalue { i8*, i32 } %42, 0
  store i8* %43, i8** %3
  %44 = extractvalue { i8*, i32 } %42, 1
  store i32 %44, i32* %4
  br label %99

; <label>:45                                      ; preds = %34
  %46 = landingpad { i8*, i32 } personality i8* bitcast (i32 (...)* @__gxx_personality_v0 to i8*)
          cleanup
  %47 = extractvalue { i8*, i32 } %46, 0
  store i8* %47, i8** %3
  %48 = extractvalue { i8*, i32 } %46, 1
  store i32 %48, i32* %4
  %49 = bitcast %"struct.irr::scene::ISkinnedMesh::SJoint"* %32 to i8*
  call void @_ZdlPv(i8* %49) #12
  br label %99

; <label>:50                                      ; preds = %25
  store i32 0, i32* %j, align 4
  br label %51

; <label>:51                                      ; preds = %81, %50
  %52 = load i32* %j, align 4
  %53 = getelementptr inbounds %"class.irr::scene::CSkinnedMesh"* %5, i32 0, i32 2
  %54 = invoke i32 @_ZNK3irr4core5arrayIPNS_5scene15SSkinMeshBufferENS0_12irrAllocatorIS4_EEE4sizeEv(%"class.irr::core::array"* %53)
          to label %55 unwind label %41

; <label>:55                                      ; preds = %51
  %56 = icmp ult i32 %52, %54
  br i1 %56, label %57, label %84

; <label>:57                                      ; preds = %55
  %58 = getelementptr inbounds %"class.irr::scene::CSkinnedMesh"* %5, i32 0, i32 2
  %59 = load i32* %j, align 4
  %60 = invoke dereferenceable(8) %"struct.irr::scene::SSkinMeshBuffer"** @_ZN3irr4core5arrayIPNS_5scene15SSkinMeshBufferENS0_12irrAllocatorIS4_EEEixEj(%"class.irr::core::array"* %58, i32 %59)
          to label %61 unwind label %41

; <label>:61                                      ; preds = %57
  %62 = load %"struct.irr::scene::SSkinMeshBuffer"** %60
  %63 = icmp ne %"struct.irr::scene::SSkinMeshBuffer"* %62, null
  br i1 %63, label %64, label %80

; <label>:64                                      ; preds = %61
  %65 = getelementptr inbounds %"class.irr::scene::CSkinnedMesh"* %5, i32 0, i32 2
  %66 = load i32* %j, align 4
  %67 = invoke dereferenceable(8) %"struct.irr::scene::SSkinMeshBuffer"** @_ZN3irr4core5arrayIPNS_5scene15SSkinMeshBufferENS0_12irrAllocatorIS4_EEEixEj(%"class.irr::core::array"* %65, i32 %66)
          to label %68 unwind label %41

; <label>:68                                      ; preds = %64
  %69 = load %"struct.irr::scene::SSkinMeshBuffer"** %67
  %70 = bitcast %"struct.irr::scene::SSkinMeshBuffer"* %69 to i8**
  %71 = load i8** %70
  %72 = getelementptr i8* %71, i64 -24
  %73 = bitcast i8* %72 to i64*
  %74 = load i64* %73
  %75 = bitcast %"struct.irr::scene::SSkinMeshBuffer"* %69 to i8*
  %76 = getelementptr inbounds i8* %75, i64 %74
  %77 = bitcast i8* %76 to %"class.irr::IReferenceCounted"*
  %78 = invoke zeroext i1 @_ZNK3irr17IReferenceCounted4dropEv(%"class.irr::IReferenceCounted"* %77)
          to label %79 unwind label %41

; <label>:79                                      ; preds = %68
  br label %80

; <label>:80                                      ; preds = %79, %61
  br label %81

; <label>:81                                      ; preds = %80
  %82 = load i32* %j, align 4
  %83 = add i32 %82, 1
  store i32 %83, i32* %j, align 4
  br label %51

; <label>:84                                      ; preds = %55
  %85 = getelementptr inbounds %"class.irr::scene::CSkinnedMesh"* %5, i32 0, i32 5
  invoke void @_ZN3irr4core5arrayINS1_IbNS0_12irrAllocatorIbEEEENS2_IS4_EEED2Ev(%"class.irr::core::array.17"* %85)
          to label %86 unwind label %95

; <label>:86                                      ; preds = %84
  %87 = getelementptr inbounds %"class.irr::scene::CSkinnedMesh"* %5, i32 0, i32 4
  invoke void @_ZN3irr4core5arrayIPNS_5scene12ISkinnedMesh6SJointENS0_12irrAllocatorIS5_EEED2Ev(%"class.irr::core::array.14"* %87)
          to label %88 unwind label %102

; <label>:88                                      ; preds = %86
  %89 = getelementptr inbounds %"class.irr::scene::CSkinnedMesh"* %5, i32 0, i32 3
  invoke void @_ZN3irr4core5arrayIPNS_5scene12ISkinnedMesh6SJointENS0_12irrAllocatorIS5_EEED2Ev(%"class.irr::core::array.14"* %89)
          to label %90 unwind label %109

; <label>:90                                      ; preds = %88
  %91 = getelementptr inbounds %"class.irr::scene::CSkinnedMesh"* %5, i32 0, i32 2
  invoke void @_ZN3irr4core5arrayIPNS_5scene15SSkinMeshBufferENS0_12irrAllocatorIS4_EEED2Ev(%"class.irr::core::array"* %91)
          to label %92 unwind label %116

; <label>:92                                      ; preds = %90
  %93 = bitcast %"class.irr::scene::CSkinnedMesh"* %5 to %"class.irr::scene::ISkinnedMesh"*
  %94 = getelementptr inbounds i8** %6, i64 1
  call void @_ZN3irr5scene12ISkinnedMeshD2Ev(%"class.irr::scene::ISkinnedMesh"* %93, i8** %94)
  ret void

; <label>:95                                      ; preds = %84
  %96 = landingpad { i8*, i32 } personality i8* bitcast (i32 (...)* @__gxx_personality_v0 to i8*)
          cleanup
  %97 = extractvalue { i8*, i32 } %96, 0
  store i8* %97, i8** %3
  %98 = extractvalue { i8*, i32 } %96, 1
  store i32 %98, i32* %4
  br label %106

; <label>:99                                      ; preds = %45, %41
  %100 = getelementptr inbounds %"class.irr::scene::CSkinnedMesh"* %5, i32 0, i32 5
  invoke void @_ZN3irr4core5arrayINS1_IbNS0_12irrAllocatorIbEEEENS2_IS4_EEED2Ev(%"class.irr::core::array.17"* %100)
          to label %101 unwind label %132

; <label>:101                                     ; preds = %99
  br label %106

; <label>:102                                     ; preds = %86
  %103 = landingpad { i8*, i32 } personality i8* bitcast (i32 (...)* @__gxx_personality_v0 to i8*)
          cleanup
  %104 = extractvalue { i8*, i32 } %103, 0
  store i8* %104, i8** %3
  %105 = extractvalue { i8*, i32 } %103, 1
  store i32 %105, i32* %4
  br label %113

; <label>:106                                     ; preds = %101, %95
  %107 = getelementptr inbounds %"class.irr::scene::CSkinnedMesh"* %5, i32 0, i32 4
  invoke void @_ZN3irr4core5arrayIPNS_5scene12ISkinnedMesh6SJointENS0_12irrAllocatorIS5_EEED2Ev(%"class.irr::core::array.14"* %107)
          to label %108 unwind label %132

; <label>:108                                     ; preds = %106
  br label %113

; <label>:109                                     ; preds = %88
  %110 = landingpad { i8*, i32 } personality i8* bitcast (i32 (...)* @__gxx_personality_v0 to i8*)
          cleanup
  %111 = extractvalue { i8*, i32 } %110, 0
  store i8* %111, i8** %3
  %112 = extractvalue { i8*, i32 } %110, 1
  store i32 %112, i32* %4
  br label %120

; <label>:113                                     ; preds = %108, %102
  %114 = getelementptr inbounds %"class.irr::scene::CSkinnedMesh"* %5, i32 0, i32 3
  invoke void @_ZN3irr4core5arrayIPNS_5scene12ISkinnedMesh6SJointENS0_12irrAllocatorIS5_EEED2Ev(%"class.irr::core::array.14"* %114)
          to label %115 unwind label %132

; <label>:115                                     ; preds = %113
  br label %120

; <label>:116                                     ; preds = %90
  %117 = landingpad { i8*, i32 } personality i8* bitcast (i32 (...)* @__gxx_personality_v0 to i8*)
          cleanup
  %118 = extractvalue { i8*, i32 } %117, 0
  store i8* %118, i8** %3
  %119 = extractvalue { i8*, i32 } %117, 1
  store i32 %119, i32* %4
  br label %123

; <label>:120                                     ; preds = %115, %109
  %121 = getelementptr inbounds %"class.irr::scene::CSkinnedMesh"* %5, i32 0, i32 2
  invoke void @_ZN3irr4core5arrayIPNS_5scene15SSkinMeshBufferENS0_12irrAllocatorIS4_EEED2Ev(%"class.irr::core::array"* %121)
          to label %122 unwind label %132

; <label>:122                                     ; preds = %120
  br label %123

; <label>:123                                     ; preds = %122, %116
  %124 = bitcast %"class.irr::scene::CSkinnedMesh"* %5 to %"class.irr::scene::ISkinnedMesh"*
  %125 = getelementptr inbounds i8** %6, i64 1
  invoke void @_ZN3irr5scene12ISkinnedMeshD2Ev(%"class.irr::scene::ISkinnedMesh"* %124, i8** %125)
          to label %126 unwind label %132

; <label>:126                                     ; preds = %123
  br label %127

; <label>:127                                     ; preds = %126
  %128 = load i8** %3
  %129 = load i32* %4
  %130 = insertvalue { i8*, i32 } undef, i8* %128, 0
  %131 = insertvalue { i8*, i32 } %130, i32 %129, 1
  resume { i8*, i32 } %131

; <label>:132                                     ; preds = %123, %120, %113, %106, %99
  %133 = landingpad { i8*, i32 } personality i8* bitcast (i32 (...)* @__gxx_personality_v0 to i8*)
          catch i8* null
  %134 = extractvalue { i8*, i32 } %133, 0
  call void @__clang_call_terminate(i8* %134) #11
  unreachable
}

; Function Attrs: nounwind uwtable
define linkonce_odr i32 @_ZNK3irr4core5arrayIPNS_5scene12ISkinnedMesh6SJointENS0_12irrAllocatorIS5_EEE4sizeEv(%"class.irr::core::array.14"* %this) #3 align 2 {
  %1 = alloca %"class.irr::core::array.14"*, align 8
  store %"class.irr::core::array.14"* %this, %"class.irr::core::array.14"** %1, align 8
  %2 = load %"class.irr::core::array.14"** %1
  %3 = getelementptr inbounds %"class.irr::core::array.14"* %2, i32 0, i32 2
  %4 = load i32* %3, align 4
  ret i32 %4
}

; Function Attrs: nounwind uwtable
define linkonce_odr dereferenceable(8) %"struct.irr::scene::ISkinnedMesh::SJoint"** @_ZN3irr4core5arrayIPNS_5scene12ISkinnedMesh6SJointENS0_12irrAllocatorIS5_EEEixEj(%"class.irr::core::array.14"* %this, i32 %index) #3 align 2 {
  %1 = alloca %"class.irr::core::array.14"*, align 8
  %2 = alloca i32, align 4
  store %"class.irr::core::array.14"* %this, %"class.irr::core::array.14"** %1, align 8
  store i32 %index, i32* %2, align 4
  %3 = load %"class.irr::core::array.14"** %1
  %4 = load i32* %2, align 4
  %5 = zext i32 %4 to i64
  %6 = getelementptr inbounds %"class.irr::core::array.14"* %3, i32 0, i32 0
  %7 = load %"struct.irr::scene::ISkinnedMesh::SJoint"*** %6, align 8
  %8 = getelementptr inbounds %"struct.irr::scene::ISkinnedMesh::SJoint"** %7, i64 %5
  ret %"struct.irr::scene::ISkinnedMesh::SJoint"** %8
}

; Function Attrs: inlinehint uwtable
define linkonce_odr void @_ZN3irr5scene12ISkinnedMesh6SJointD2Ev(%"struct.irr::scene::ISkinnedMesh::SJoint"* %this) unnamed_addr #2 align 2 {
  %1 = alloca %"struct.irr::scene::ISkinnedMesh::SJoint"*, align 8
  %2 = alloca i8*
  %3 = alloca i32
  store %"struct.irr::scene::ISkinnedMesh::SJoint"* %this, %"struct.irr::scene::ISkinnedMesh::SJoint"** %1, align 8
  %4 = load %"struct.irr::scene::ISkinnedMesh::SJoint"** %1
  %5 = getelementptr inbounds %"struct.irr::scene::ISkinnedMesh::SJoint"* %4, i32 0, i32 7
  invoke void @_ZN3irr4core5arrayINS_5scene12ISkinnedMesh7SWeightENS0_12irrAllocatorIS4_EEED2Ev(%"class.irr::core::array.35"* %5)
          to label %6 unwind label %18

; <label>:6                                       ; preds = %0
  %7 = getelementptr inbounds %"struct.irr::scene::ISkinnedMesh::SJoint"* %4, i32 0, i32 6
  invoke void @_ZN3irr4core5arrayINS_5scene12ISkinnedMesh12SRotationKeyENS0_12irrAllocatorIS4_EEED2Ev(%"class.irr::core::array.32"* %7)
          to label %8 unwind label %23

; <label>:8                                       ; preds = %6
  %9 = getelementptr inbounds %"struct.irr::scene::ISkinnedMesh::SJoint"* %4, i32 0, i32 5
  invoke void @_ZN3irr4core5arrayINS_5scene12ISkinnedMesh9SScaleKeyENS0_12irrAllocatorIS4_EEED2Ev(%"class.irr::core::array.29"* %9)
          to label %10 unwind label %28

; <label>:10                                      ; preds = %8
  %11 = getelementptr inbounds %"struct.irr::scene::ISkinnedMesh::SJoint"* %4, i32 0, i32 4
  invoke void @_ZN3irr4core5arrayINS_5scene12ISkinnedMesh12SPositionKeyENS0_12irrAllocatorIS4_EEED2Ev(%"class.irr::core::array.26"* %11)
          to label %12 unwind label %35

; <label>:12                                      ; preds = %10
  %13 = getelementptr inbounds %"struct.irr::scene::ISkinnedMesh::SJoint"* %4, i32 0, i32 3
  invoke void @_ZN3irr4core5arrayIjNS0_12irrAllocatorIjEEED2Ev(%"class.irr::core::array.23"* %13)
          to label %14 unwind label %42

; <label>:14                                      ; preds = %12
  %15 = getelementptr inbounds %"struct.irr::scene::ISkinnedMesh::SJoint"* %4, i32 0, i32 2
  invoke void @_ZN3irr4core5arrayIPNS_5scene12ISkinnedMesh6SJointENS0_12irrAllocatorIS5_EEED2Ev(%"class.irr::core::array.14"* %15)
          to label %16 unwind label %49

; <label>:16                                      ; preds = %14
  %17 = getelementptr inbounds %"struct.irr::scene::ISkinnedMesh::SJoint"* %4, i32 0, i32 0
  call void @_ZN3irr4core6stringIcNS0_12irrAllocatorIcEEED2Ev(%"class.irr::core::string"* %17)
  ret void

; <label>:18                                      ; preds = %0
  %19 = landingpad { i8*, i32 } personality i8* bitcast (i32 (...)* @__gxx_personality_v0 to i8*)
          cleanup
  %20 = extractvalue { i8*, i32 } %19, 0
  store i8* %20, i8** %2
  %21 = extractvalue { i8*, i32 } %19, 1
  store i32 %21, i32* %3
  %22 = getelementptr inbounds %"struct.irr::scene::ISkinnedMesh::SJoint"* %4, i32 0, i32 6
  invoke void @_ZN3irr4core5arrayINS_5scene12ISkinnedMesh12SRotationKeyENS0_12irrAllocatorIS4_EEED2Ev(%"class.irr::core::array.32"* %22)
          to label %27 unwind label %64

; <label>:23                                      ; preds = %6
  %24 = landingpad { i8*, i32 } personality i8* bitcast (i32 (...)* @__gxx_personality_v0 to i8*)
          cleanup
  %25 = extractvalue { i8*, i32 } %24, 0
  store i8* %25, i8** %2
  %26 = extractvalue { i8*, i32 } %24, 1
  store i32 %26, i32* %3
  br label %32

; <label>:27                                      ; preds = %18
  br label %32

; <label>:28                                      ; preds = %8
  %29 = landingpad { i8*, i32 } personality i8* bitcast (i32 (...)* @__gxx_personality_v0 to i8*)
          cleanup
  %30 = extractvalue { i8*, i32 } %29, 0
  store i8* %30, i8** %2
  %31 = extractvalue { i8*, i32 } %29, 1
  store i32 %31, i32* %3
  br label %39

; <label>:32                                      ; preds = %27, %23
  %33 = getelementptr inbounds %"struct.irr::scene::ISkinnedMesh::SJoint"* %4, i32 0, i32 5
  invoke void @_ZN3irr4core5arrayINS_5scene12ISkinnedMesh9SScaleKeyENS0_12irrAllocatorIS4_EEED2Ev(%"class.irr::core::array.29"* %33)
          to label %34 unwind label %64

; <label>:34                                      ; preds = %32
  br label %39

; <label>:35                                      ; preds = %10
  %36 = landingpad { i8*, i32 } personality i8* bitcast (i32 (...)* @__gxx_personality_v0 to i8*)
          cleanup
  %37 = extractvalue { i8*, i32 } %36, 0
  store i8* %37, i8** %2
  %38 = extractvalue { i8*, i32 } %36, 1
  store i32 %38, i32* %3
  br label %46

; <label>:39                                      ; preds = %34, %28
  %40 = getelementptr inbounds %"struct.irr::scene::ISkinnedMesh::SJoint"* %4, i32 0, i32 4
  invoke void @_ZN3irr4core5arrayINS_5scene12ISkinnedMesh12SPositionKeyENS0_12irrAllocatorIS4_EEED2Ev(%"class.irr::core::array.26"* %40)
          to label %41 unwind label %64

; <label>:41                                      ; preds = %39
  br label %46

; <label>:42                                      ; preds = %12
  %43 = landingpad { i8*, i32 } personality i8* bitcast (i32 (...)* @__gxx_personality_v0 to i8*)
          cleanup
  %44 = extractvalue { i8*, i32 } %43, 0
  store i8* %44, i8** %2
  %45 = extractvalue { i8*, i32 } %43, 1
  store i32 %45, i32* %3
  br label %53

; <label>:46                                      ; preds = %41, %35
  %47 = getelementptr inbounds %"struct.irr::scene::ISkinnedMesh::SJoint"* %4, i32 0, i32 3
  invoke void @_ZN3irr4core5arrayIjNS0_12irrAllocatorIjEEED2Ev(%"class.irr::core::array.23"* %47)
          to label %48 unwind label %64

; <label>:48                                      ; preds = %46
  br label %53

; <label>:49                                      ; preds = %14
  %50 = landingpad { i8*, i32 } personality i8* bitcast (i32 (...)* @__gxx_personality_v0 to i8*)
          cleanup
  %51 = extractvalue { i8*, i32 } %50, 0
  store i8* %51, i8** %2
  %52 = extractvalue { i8*, i32 } %50, 1
  store i32 %52, i32* %3
  br label %56

; <label>:53                                      ; preds = %48, %42
  %54 = getelementptr inbounds %"struct.irr::scene::ISkinnedMesh::SJoint"* %4, i32 0, i32 2
  invoke void @_ZN3irr4core5arrayIPNS_5scene12ISkinnedMesh6SJointENS0_12irrAllocatorIS5_EEED2Ev(%"class.irr::core::array.14"* %54)
          to label %55 unwind label %64

; <label>:55                                      ; preds = %53
  br label %56

; <label>:56                                      ; preds = %55, %49
  %57 = getelementptr inbounds %"struct.irr::scene::ISkinnedMesh::SJoint"* %4, i32 0, i32 0
  invoke void @_ZN3irr4core6stringIcNS0_12irrAllocatorIcEEED2Ev(%"class.irr::core::string"* %57)
          to label %58 unwind label %64

; <label>:58                                      ; preds = %56
  br label %59

; <label>:59                                      ; preds = %58
  %60 = load i8** %2
  %61 = load i32* %3
  %62 = insertvalue { i8*, i32 } undef, i8* %60, 0
  %63 = insertvalue { i8*, i32 } %62, i32 %61, 1
  resume { i8*, i32 } %63

; <label>:64                                      ; preds = %56, %53, %46, %39, %32, %18
  %65 = landingpad { i8*, i32 } personality i8* bitcast (i32 (...)* @__gxx_personality_v0 to i8*)
          catch i8* null
  %66 = extractvalue { i8*, i32 } %65, 0
  call void @__clang_call_terminate(i8* %66) #11
  unreachable
}

; Function Attrs: nobuiltin nounwind
declare void @_ZdlPv(i8*) #6

; Function Attrs: nounwind uwtable
define linkonce_odr i32 @_ZNK3irr4core5arrayIPNS_5scene15SSkinMeshBufferENS0_12irrAllocatorIS4_EEE4sizeEv(%"class.irr::core::array"* %this) #3 align 2 {
  %1 = alloca %"class.irr::core::array"*, align 8
  store %"class.irr::core::array"* %this, %"class.irr::core::array"** %1, align 8
  %2 = load %"class.irr::core::array"** %1
  %3 = getelementptr inbounds %"class.irr::core::array"* %2, i32 0, i32 2
  %4 = load i32* %3, align 4
  ret i32 %4
}

; Function Attrs: nounwind uwtable
define linkonce_odr dereferenceable(8) %"struct.irr::scene::SSkinMeshBuffer"** @_ZN3irr4core5arrayIPNS_5scene15SSkinMeshBufferENS0_12irrAllocatorIS4_EEEixEj(%"class.irr::core::array"* %this, i32 %index) #3 align 2 {
  %1 = alloca %"class.irr::core::array"*, align 8
  %2 = alloca i32, align 4
  store %"class.irr::core::array"* %this, %"class.irr::core::array"** %1, align 8
  store i32 %index, i32* %2, align 4
  %3 = load %"class.irr::core::array"** %1
  %4 = load i32* %2, align 4
  %5 = zext i32 %4 to i64
  %6 = getelementptr inbounds %"class.irr::core::array"* %3, i32 0, i32 0
  %7 = load %"struct.irr::scene::SSkinMeshBuffer"*** %6, align 8
  %8 = getelementptr inbounds %"struct.irr::scene::SSkinMeshBuffer"** %7, i64 %5
  ret %"struct.irr::scene::SSkinMeshBuffer"** %8
}

; Function Attrs: uwtable
define linkonce_odr zeroext i1 @_ZNK3irr17IReferenceCounted4dropEv(%"class.irr::IReferenceCounted"* %this) #0 align 2 {
  %1 = alloca i1, align 1
  %2 = alloca %"class.irr::IReferenceCounted"*, align 8
  store %"class.irr::IReferenceCounted"* %this, %"class.irr::IReferenceCounted"** %2, align 8
  %3 = load %"class.irr::IReferenceCounted"** %2
  %4 = getelementptr inbounds %"class.irr::IReferenceCounted"* %3, i32 0, i32 2
  %5 = load i32* %4, align 4
  %6 = add nsw i32 %5, -1
  store i32 %6, i32* %4, align 4
  %7 = getelementptr inbounds %"class.irr::IReferenceCounted"* %3, i32 0, i32 2
  %8 = load i32* %7, align 4
  %9 = icmp ne i32 %8, 0
  br i1 %9, label %18, label %10

; <label>:10                                      ; preds = %0
  %11 = icmp eq %"class.irr::IReferenceCounted"* %3, null
  br i1 %11, label %17, label %12

; <label>:12                                      ; preds = %10
  %13 = bitcast %"class.irr::IReferenceCounted"* %3 to void (%"class.irr::IReferenceCounted"*)***
  %14 = load void (%"class.irr::IReferenceCounted"*)*** %13
  %15 = getelementptr inbounds void (%"class.irr::IReferenceCounted"*)** %14, i64 1
  %16 = load void (%"class.irr::IReferenceCounted"*)** %15
  call void %16(%"class.irr::IReferenceCounted"* %3)
  br label %17

; <label>:17                                      ; preds = %12, %10
  store i1 true, i1* %1
  br label %19

; <label>:18                                      ; preds = %0
  store i1 false, i1* %1
  br label %19

; <label>:19                                      ; preds = %18, %17
  %20 = load i1* %1
  ret i1 %20
}

; Function Attrs: uwtable
define void @_ZN3irr5scene12CSkinnedMeshD1Ev(%"class.irr::scene::CSkinnedMesh"* %this) unnamed_addr #0 align 2 {
  %1 = alloca %"class.irr::scene::CSkinnedMesh"*, align 8
  %2 = alloca i8*
  %3 = alloca i32
  store %"class.irr::scene::CSkinnedMesh"* %this, %"class.irr::scene::CSkinnedMesh"** %1, align 8
  %4 = load %"class.irr::scene::CSkinnedMesh"** %1
  invoke void @_ZN3irr5scene12CSkinnedMeshD2Ev(%"class.irr::scene::CSkinnedMesh"* %4, i8** getelementptr inbounds ([8 x i8*]* @_ZTTN3irr5scene12CSkinnedMeshE, i64 0, i64 0))
          to label %5 unwind label %9

; <label>:5                                       ; preds = %0
  %6 = bitcast %"class.irr::scene::CSkinnedMesh"* %4 to i8*
  %7 = getelementptr inbounds i8* %6, i64 192
  %8 = bitcast i8* %7 to %"class.irr::IReferenceCounted"*
  call void @_ZN3irr17IReferenceCountedD2Ev(%"class.irr::IReferenceCounted"* %8)
  ret void

; <label>:9                                       ; preds = %0
  %10 = landingpad { i8*, i32 } personality i8* bitcast (i32 (...)* @__gxx_personality_v0 to i8*)
          cleanup
  %11 = extractvalue { i8*, i32 } %10, 0
  store i8* %11, i8** %2
  %12 = extractvalue { i8*, i32 } %10, 1
  store i32 %12, i32* %3
  %13 = bitcast %"class.irr::scene::CSkinnedMesh"* %4 to i8*
  %14 = getelementptr inbounds i8* %13, i64 192
  %15 = bitcast i8* %14 to %"class.irr::IReferenceCounted"*
  invoke void @_ZN3irr17IReferenceCountedD2Ev(%"class.irr::IReferenceCounted"* %15)
          to label %16 unwind label %22

; <label>:16                                      ; preds = %9
  br label %17

; <label>:17                                      ; preds = %16
  %18 = load i8** %2
  %19 = load i32* %3
  %20 = insertvalue { i8*, i32 } undef, i8* %18, 0
  %21 = insertvalue { i8*, i32 } %20, i32 %19, 1
  resume { i8*, i32 } %21

; <label>:22                                      ; preds = %9
  %23 = landingpad { i8*, i32 } personality i8* bitcast (i32 (...)* @__gxx_personality_v0 to i8*)
          catch i8* null
  %24 = extractvalue { i8*, i32 } %23, 0
  call void @__clang_call_terminate(i8* %24) #11
  unreachable
}

; Function Attrs: uwtable
define void @_ZTv0_n24_N3irr5scene12CSkinnedMeshD1Ev(%"class.irr::scene::CSkinnedMesh"* %this) unnamed_addr #0 align 2 {
  %1 = alloca %"class.irr::scene::CSkinnedMesh"*, align 8
  store %"class.irr::scene::CSkinnedMesh"* %this, %"class.irr::scene::CSkinnedMesh"** %1, align 8
  %2 = load %"class.irr::scene::CSkinnedMesh"** %1
  %3 = bitcast %"class.irr::scene::CSkinnedMesh"* %2 to i8*
  %4 = bitcast i8* %3 to i8**
  %5 = load i8** %4
  %6 = getelementptr inbounds i8* %5, i64 -24
  %7 = bitcast i8* %6 to i64*
  %8 = load i64* %7
  %9 = getelementptr inbounds i8* %3, i64 %8
  %10 = bitcast i8* %9 to %"class.irr::scene::CSkinnedMesh"*
  call void @_ZN3irr5scene12CSkinnedMeshD1Ev(%"class.irr::scene::CSkinnedMesh"* %10)
  ret void
}

; Function Attrs: uwtable
define void @_ZN3irr5scene12CSkinnedMeshD0Ev(%"class.irr::scene::CSkinnedMesh"* %this) unnamed_addr #0 align 2 {
  %1 = alloca %"class.irr::scene::CSkinnedMesh"*, align 8
  %2 = alloca i8*
  %3 = alloca i32
  store %"class.irr::scene::CSkinnedMesh"* %this, %"class.irr::scene::CSkinnedMesh"** %1, align 8
  %4 = load %"class.irr::scene::CSkinnedMesh"** %1
  invoke void @_ZN3irr5scene12CSkinnedMeshD1Ev(%"class.irr::scene::CSkinnedMesh"* %4)
          to label %5 unwind label %7

; <label>:5                                       ; preds = %0
  %6 = bitcast %"class.irr::scene::CSkinnedMesh"* %4 to i8*
  call void @_ZdlPv(i8* %6) #12
  ret void

; <label>:7                                       ; preds = %0
  %8 = landingpad { i8*, i32 } personality i8* bitcast (i32 (...)* @__gxx_personality_v0 to i8*)
          cleanup
  %9 = extractvalue { i8*, i32 } %8, 0
  store i8* %9, i8** %2
  %10 = extractvalue { i8*, i32 } %8, 1
  store i32 %10, i32* %3
  %11 = bitcast %"class.irr::scene::CSkinnedMesh"* %4 to i8*
  call void @_ZdlPv(i8* %11) #12
  br label %12

; <label>:12                                      ; preds = %7
  %13 = load i8** %2
  %14 = load i32* %3
  %15 = insertvalue { i8*, i32 } undef, i8* %13, 0
  %16 = insertvalue { i8*, i32 } %15, i32 %14, 1
  resume { i8*, i32 } %16
}

; Function Attrs: uwtable
define void @_ZTv0_n24_N3irr5scene12CSkinnedMeshD0Ev(%"class.irr::scene::CSkinnedMesh"* %this) unnamed_addr #0 align 2 {
  %1 = alloca %"class.irr::scene::CSkinnedMesh"*, align 8
  store %"class.irr::scene::CSkinnedMesh"* %this, %"class.irr::scene::CSkinnedMesh"** %1, align 8
  %2 = load %"class.irr::scene::CSkinnedMesh"** %1
  %3 = bitcast %"class.irr::scene::CSkinnedMesh"* %2 to i8*
  %4 = bitcast i8* %3 to i8**
  %5 = load i8** %4
  %6 = getelementptr inbounds i8* %5, i64 -24
  %7 = bitcast i8* %6 to i64*
  %8 = load i64* %7
  %9 = getelementptr inbounds i8* %3, i64 %8
  %10 = bitcast i8* %9 to %"class.irr::scene::CSkinnedMesh"*
  call void @_ZN3irr5scene12CSkinnedMeshD0Ev(%"class.irr::scene::CSkinnedMesh"* %10)
  ret void
}

; Function Attrs: uwtable
define i32 @_ZNK3irr5scene12CSkinnedMesh13getFrameCountEv(%"class.irr::scene::CSkinnedMesh"* %this) unnamed_addr #0 align 2 {
  %1 = alloca %"class.irr::scene::CSkinnedMesh"*, align 8
  store %"class.irr::scene::CSkinnedMesh"* %this, %"class.irr::scene::CSkinnedMesh"** %1, align 8
  %2 = load %"class.irr::scene::CSkinnedMesh"** %1
  %3 = getelementptr inbounds %"class.irr::scene::CSkinnedMesh"* %2, i32 0, i32 7
  %4 = load float* %3, align 4
  %5 = call i32 @_ZN3irr4core7floor32Ef(float %4)
  ret i32 %5
}

; Function Attrs: inlinehint nounwind uwtable
define linkonce_odr i32 @_ZN3irr4core7floor32Ef(float %x) #5 {
  %1 = alloca float, align 4
  store float %x, float* %1, align 4
  %2 = load float* %1, align 4
  %3 = call float @floorf(float %2) #13
  %4 = fptosi float %3 to i32
  ret i32 %4
}

; Function Attrs: nounwind uwtable
define float @_ZNK3irr5scene12CSkinnedMesh17getAnimationSpeedEv(%"class.irr::scene::CSkinnedMesh"* %this) unnamed_addr #3 align 2 {
  %1 = alloca %"class.irr::scene::CSkinnedMesh"*, align 8
  store %"class.irr::scene::CSkinnedMesh"* %this, %"class.irr::scene::CSkinnedMesh"** %1, align 8
  %2 = load %"class.irr::scene::CSkinnedMesh"** %1
  %3 = getelementptr inbounds %"class.irr::scene::CSkinnedMesh"* %2, i32 0, i32 8
  %4 = load float* %3, align 4
  ret float %4
}

; Function Attrs: nounwind uwtable
define void @_ZN3irr5scene12CSkinnedMesh17setAnimationSpeedEf(%"class.irr::scene::CSkinnedMesh"* %this, float %fps) unnamed_addr #3 align 2 {
  %1 = alloca %"class.irr::scene::CSkinnedMesh"*, align 8
  %2 = alloca float, align 4
  store %"class.irr::scene::CSkinnedMesh"* %this, %"class.irr::scene::CSkinnedMesh"** %1, align 8
  store float %fps, float* %2, align 4
  %3 = load %"class.irr::scene::CSkinnedMesh"** %1
  %4 = load float* %2, align 4
  %5 = getelementptr inbounds %"class.irr::scene::CSkinnedMesh"* %3, i32 0, i32 8
  store float %4, float* %5, align 4
  ret void
}

; Function Attrs: uwtable
define %"class.irr::scene::IMesh"* @_ZN3irr5scene12CSkinnedMesh7getMeshEiiii(%"class.irr::scene::CSkinnedMesh"* %this, i32 %frame, i32 %detailLevel, i32 %startFrameLoop, i32 %endFrameLoop) unnamed_addr #0 align 2 {
  %1 = alloca %"class.irr::scene::IMesh"*, align 8
  %2 = alloca %"class.irr::scene::CSkinnedMesh"*, align 8
  %3 = alloca i32, align 4
  %4 = alloca i32, align 4
  %5 = alloca i32, align 4
  %6 = alloca i32, align 4
  store %"class.irr::scene::CSkinnedMesh"* %this, %"class.irr::scene::CSkinnedMesh"** %2, align 8
  store i32 %frame, i32* %3, align 4
  store i32 %detailLevel, i32* %4, align 4
  store i32 %startFrameLoop, i32* %5, align 4
  store i32 %endFrameLoop, i32* %6, align 4
  %7 = load %"class.irr::scene::CSkinnedMesh"** %2
  %8 = load i32* %3, align 4
  %9 = icmp eq i32 %8, -1
  br i1 %9, label %10, label %12

; <label>:10                                      ; preds = %0
  %11 = bitcast %"class.irr::scene::CSkinnedMesh"* %7 to %"class.irr::scene::IMesh"*
  store %"class.irr::scene::IMesh"* %11, %"class.irr::scene::IMesh"** %1
  br label %24

; <label>:12                                      ; preds = %0
  %13 = bitcast %"class.irr::scene::CSkinnedMesh"* %7 to void (%"class.irr::scene::CSkinnedMesh"*, float, float)***
  %14 = load void (%"class.irr::scene::CSkinnedMesh"*, float, float)*** %13
  %15 = getelementptr inbounds void (%"class.irr::scene::CSkinnedMesh"*, float, float)** %14, i64 21
  %16 = load void (%"class.irr::scene::CSkinnedMesh"*, float, float)** %15
  %17 = load i32* %3, align 4
  %18 = sitofp i32 %17 to float
  call void %16(%"class.irr::scene::CSkinnedMesh"* %7, float %18, float 1.000000e+00)
  %19 = bitcast %"class.irr::scene::CSkinnedMesh"* %7 to void (%"class.irr::scene::CSkinnedMesh"*, float)***
  %20 = load void (%"class.irr::scene::CSkinnedMesh"*, float)*** %19
  %21 = getelementptr inbounds void (%"class.irr::scene::CSkinnedMesh"*, float)** %20, i64 22
  %22 = load void (%"class.irr::scene::CSkinnedMesh"*, float)** %21
  call void %22(%"class.irr::scene::CSkinnedMesh"* %7, float 1.000000e+00)
  %23 = bitcast %"class.irr::scene::CSkinnedMesh"* %7 to %"class.irr::scene::IMesh"*
  store %"class.irr::scene::IMesh"* %23, %"class.irr::scene::IMesh"** %1
  br label %24

; <label>:24                                      ; preds = %12, %10
  %25 = load %"class.irr::scene::IMesh"** %1
  ret %"class.irr::scene::IMesh"* %25
}

; Function Attrs: uwtable
define void @_ZN3irr5scene12CSkinnedMesh11animateMeshEff(%"class.irr::scene::CSkinnedMesh"* %this, float %frame, float %blend) unnamed_addr #0 align 2 {
  %1 = alloca %"class.irr::scene::CSkinnedMesh"*, align 8
  %2 = alloca float, align 4
  %3 = alloca float, align 4
  %i = alloca i32, align 4
  %joint = alloca %"struct.irr::scene::ISkinnedMesh::SJoint"*, align 8
  %oldPosition = alloca %"class.irr::core::vector3d", align 4
  %oldScale = alloca %"class.irr::core::vector3d", align 4
  %oldRotation = alloca %"class.irr::core::quaternion", align 4
  %position = alloca %"class.irr::core::vector3d", align 4
  %scale = alloca %"class.irr::core::vector3d", align 4
  %rotation = alloca %"class.irr::core::quaternion", align 4
  %4 = alloca %"class.irr::core::vector3d", align 4
  %5 = alloca %"class.irr::core::vector3d", align 4
  %6 = alloca %"class.irr::core::quaternion", align 4
  %7 = alloca %"class.irr::core::quaternion", align 4
  store %"class.irr::scene::CSkinnedMesh"* %this, %"class.irr::scene::CSkinnedMesh"** %1, align 8
  store float %frame, float* %2, align 4
  store float %blend, float* %3, align 4
  %8 = load %"class.irr::scene::CSkinnedMesh"** %1
  %9 = getelementptr inbounds %"class.irr::scene::CSkinnedMesh"* %8, i32 0, i32 12
  %10 = load i8* %9, align 1
  %11 = trunc i8 %10 to i1
  br i1 %11, label %12, label %17

; <label>:12                                      ; preds = %0
  %13 = getelementptr inbounds %"class.irr::scene::CSkinnedMesh"* %8, i32 0, i32 9
  %14 = load float* %13, align 4
  %15 = load float* %2, align 4
  %16 = fcmp oeq float %14, %15
  br i1 %16, label %17, label %18

; <label>:17                                      ; preds = %12, %0
  br label %102

; <label>:18                                      ; preds = %12
  %19 = load float* %2, align 4
  %20 = getelementptr inbounds %"class.irr::scene::CSkinnedMesh"* %8, i32 0, i32 9
  store float %19, float* %20, align 4
  %21 = getelementptr inbounds %"class.irr::scene::CSkinnedMesh"* %8, i32 0, i32 10
  store i8 0, i8* %21, align 1
  %22 = load float* %3, align 4
  %23 = fcmp ole float %22, 0.000000e+00
  br i1 %23, label %24, label %25

; <label>:24                                      ; preds = %18
  br label %102

; <label>:25                                      ; preds = %18
  store i32 0, i32* %i, align 4
  br label %26

; <label>:26                                      ; preds = %94, %25
  %27 = load i32* %i, align 4
  %28 = getelementptr inbounds %"class.irr::scene::CSkinnedMesh"* %8, i32 0, i32 3
  %29 = call i32 @_ZNK3irr4core5arrayIPNS_5scene12ISkinnedMesh6SJointENS0_12irrAllocatorIS5_EEE4sizeEv(%"class.irr::core::array.14"* %28)
  %30 = icmp ult i32 %27, %29
  br i1 %30, label %31, label %97

; <label>:31                                      ; preds = %26
  %32 = getelementptr inbounds %"class.irr::scene::CSkinnedMesh"* %8, i32 0, i32 3
  %33 = load i32* %i, align 4
  %34 = call dereferenceable(8) %"struct.irr::scene::ISkinnedMesh::SJoint"** @_ZN3irr4core5arrayIPNS_5scene12ISkinnedMesh6SJointENS0_12irrAllocatorIS5_EEEixEj(%"class.irr::core::array.14"* %32, i32 %33)
  %35 = load %"struct.irr::scene::ISkinnedMesh::SJoint"** %34
  store %"struct.irr::scene::ISkinnedMesh::SJoint"* %35, %"struct.irr::scene::ISkinnedMesh::SJoint"** %joint, align 8
  %36 = load %"struct.irr::scene::ISkinnedMesh::SJoint"** %joint, align 8
  %37 = getelementptr inbounds %"struct.irr::scene::ISkinnedMesh::SJoint"* %36, i32 0, i32 11
  call void @_ZN3irr4core8vector3dIfEC2ERKS2_(%"class.irr::core::vector3d"* %oldPosition, %"class.irr::core::vector3d"* dereferenceable(12) %37)
  %38 = load %"struct.irr::scene::ISkinnedMesh::SJoint"** %joint, align 8
  %39 = getelementptr inbounds %"struct.irr::scene::ISkinnedMesh::SJoint"* %38, i32 0, i32 12
  call void @_ZN3irr4core8vector3dIfEC2ERKS2_(%"class.irr::core::vector3d"* %oldScale, %"class.irr::core::vector3d"* dereferenceable(12) %39)
  %40 = load %"struct.irr::scene::ISkinnedMesh::SJoint"** %joint, align 8
  %41 = getelementptr inbounds %"struct.irr::scene::ISkinnedMesh::SJoint"* %40, i32 0, i32 13
  %42 = bitcast %"class.irr::core::quaternion"* %oldRotation to i8*
  %43 = bitcast %"class.irr::core::quaternion"* %41 to i8*
  call void @llvm.memcpy.p0i8.p0i8.i64(i8* %42, i8* %43, i64 16, i32 4, i1 false)
  call void @_ZN3irr4core8vector3dIfEC2ERKS2_(%"class.irr::core::vector3d"* %position, %"class.irr::core::vector3d"* dereferenceable(12) %oldPosition)
  call void @_ZN3irr4core8vector3dIfEC2ERKS2_(%"class.irr::core::vector3d"* %scale, %"class.irr::core::vector3d"* dereferenceable(12) %oldScale)
  %44 = bitcast %"class.irr::core::quaternion"* %rotation to i8*
  %45 = bitcast %"class.irr::core::quaternion"* %oldRotation to i8*
  call void @llvm.memcpy.p0i8.p0i8.i64(i8* %44, i8* %45, i64 16, i32 4, i1 false)
  %46 = load float* %2, align 4
  %47 = load %"struct.irr::scene::ISkinnedMesh::SJoint"** %joint, align 8
  %48 = load %"struct.irr::scene::ISkinnedMesh::SJoint"** %joint, align 8
  %49 = getelementptr inbounds %"struct.irr::scene::ISkinnedMesh::SJoint"* %48, i32 0, i32 17
  %50 = load %"struct.irr::scene::ISkinnedMesh::SJoint"** %joint, align 8
  %51 = getelementptr inbounds %"struct.irr::scene::ISkinnedMesh::SJoint"* %50, i32 0, i32 18
  %52 = load %"struct.irr::scene::ISkinnedMesh::SJoint"** %joint, align 8
  %53 = getelementptr inbounds %"struct.irr::scene::ISkinnedMesh::SJoint"* %52, i32 0, i32 19
  call void @_ZN3irr5scene12CSkinnedMesh12getFrameDataEfPNS0_12ISkinnedMesh6SJointERNS_4core8vector3dIfEERiS8_S9_RNS5_10quaternionES9_(%"class.irr::scene::CSkinnedMesh"* %8, float %46, %"struct.irr::scene::ISkinnedMesh::SJoint"* %47, %"class.irr::core::vector3d"* dereferenceable(12) %position, i32* dereferenceable(4) %49, %"class.irr::core::vector3d"* dereferenceable(12) %scale, i32* dereferenceable(4) %51, %"class.irr::core::quaternion"* dereferenceable(16) %rotation, i32* dereferenceable(4) %53)
  %54 = load float* %3, align 4
  %55 = fcmp oeq float %54, 1.000000e+00
  br i1 %55, label %56, label %66

; <label>:56                                      ; preds = %31
  %57 = load %"struct.irr::scene::ISkinnedMesh::SJoint"** %joint, align 8
  %58 = getelementptr inbounds %"struct.irr::scene::ISkinnedMesh::SJoint"* %57, i32 0, i32 11
  %59 = call dereferenceable(12) %"class.irr::core::vector3d"* @_ZN3irr4core8vector3dIfEaSERKS2_(%"class.irr::core::vector3d"* %58, %"class.irr::core::vector3d"* dereferenceable(12) %position)
  %60 = load %"struct.irr::scene::ISkinnedMesh::SJoint"** %joint, align 8
  %61 = getelementptr inbounds %"struct.irr::scene::ISkinnedMesh::SJoint"* %60, i32 0, i32 12
  %62 = call dereferenceable(12) %"class.irr::core::vector3d"* @_ZN3irr4core8vector3dIfEaSERKS2_(%"class.irr::core::vector3d"* %61, %"class.irr::core::vector3d"* dereferenceable(12) %scale)
  %63 = load %"struct.irr::scene::ISkinnedMesh::SJoint"** %joint, align 8
  %64 = getelementptr inbounds %"struct.irr::scene::ISkinnedMesh::SJoint"* %63, i32 0, i32 13
  %65 = call dereferenceable(16) %"class.irr::core::quaternion"* @_ZN3irr4core10quaternionaSERKS1_(%"class.irr::core::quaternion"* %64, %"class.irr::core::quaternion"* dereferenceable(16) %rotation)
  br label %93

; <label>:66                                      ; preds = %31
  %67 = load %"struct.irr::scene::ISkinnedMesh::SJoint"** %joint, align 8
  %68 = getelementptr inbounds %"struct.irr::scene::ISkinnedMesh::SJoint"* %67, i32 0, i32 11
  %69 = load float* %3, align 4
  call void @_ZN3irr4core4lerpINS0_8vector3dIfEEEET_RKS4_S6_f(%"class.irr::core::vector3d"* sret %4, %"class.irr::core::vector3d"* dereferenceable(12) %oldPosition, %"class.irr::core::vector3d"* dereferenceable(12) %position, float %69)
  %70 = call dereferenceable(12) %"class.irr::core::vector3d"* @_ZN3irr4core8vector3dIfEaSERKS2_(%"class.irr::core::vector3d"* %68, %"class.irr::core::vector3d"* dereferenceable(12) %4)
  %71 = load %"struct.irr::scene::ISkinnedMesh::SJoint"** %joint, align 8
  %72 = getelementptr inbounds %"struct.irr::scene::ISkinnedMesh::SJoint"* %71, i32 0, i32 12
  %73 = load float* %3, align 4
  call void @_ZN3irr4core4lerpINS0_8vector3dIfEEEET_RKS4_S6_f(%"class.irr::core::vector3d"* sret %5, %"class.irr::core::vector3d"* dereferenceable(12) %oldScale, %"class.irr::core::vector3d"* dereferenceable(12) %scale, float %73)
  %74 = call dereferenceable(12) %"class.irr::core::vector3d"* @_ZN3irr4core8vector3dIfEaSERKS2_(%"class.irr::core::vector3d"* %72, %"class.irr::core::vector3d"* dereferenceable(12) %5)
  %75 = load %"struct.irr::scene::ISkinnedMesh::SJoint"** %joint, align 8
  %76 = getelementptr inbounds %"struct.irr::scene::ISkinnedMesh::SJoint"* %75, i32 0, i32 13
  %77 = bitcast %"class.irr::core::quaternion"* %6 to i8*
  %78 = bitcast %"class.irr::core::quaternion"* %oldRotation to i8*
  call void @llvm.memcpy.p0i8.p0i8.i64(i8* %77, i8* %78, i64 16, i32 4, i1 false)
  %79 = bitcast %"class.irr::core::quaternion"* %7 to i8*
  %80 = bitcast %"class.irr::core::quaternion"* %rotation to i8*
  call void @llvm.memcpy.p0i8.p0i8.i64(i8* %79, i8* %80, i64 16, i32 4, i1 false)
  %81 = load float* %3, align 4
  %82 = bitcast %"class.irr::core::quaternion"* %6 to { <2 x float>, <2 x float> }*
  %83 = getelementptr { <2 x float>, <2 x float> }* %82, i32 0, i32 0
  %84 = load <2 x float>* %83, align 1
  %85 = getelementptr { <2 x float>, <2 x float> }* %82, i32 0, i32 1
  %86 = load <2 x float>* %85, align 1
  %87 = bitcast %"class.irr::core::quaternion"* %7 to { <2 x float>, <2 x float> }*
  %88 = getelementptr { <2 x float>, <2 x float> }* %87, i32 0, i32 0
  %89 = load <2 x float>* %88, align 1
  %90 = getelementptr { <2 x float>, <2 x float> }* %87, i32 0, i32 1
  %91 = load <2 x float>* %90, align 1
  %92 = call dereferenceable(16) %"class.irr::core::quaternion"* @_ZN3irr4core10quaternion5slerpES1_S1_ff(%"class.irr::core::quaternion"* %76, <2 x float> %84, <2 x float> %86, <2 x float> %89, <2 x float> %91, float %81, float 0x3FA99999A0000000)
  br label %93

; <label>:93                                      ; preds = %66, %56
  br label %94

; <label>:94                                      ; preds = %93
  %95 = load i32* %i, align 4
  %96 = add i32 %95, 1
  store i32 %96, i32* %i, align 4
  br label %26

; <label>:97                                      ; preds = %26
  call void @_ZN3irr5scene12CSkinnedMesh29buildAllLocalAnimatedMatricesEv(%"class.irr::scene::CSkinnedMesh"* %8)
  %98 = bitcast %"class.irr::scene::CSkinnedMesh"* %8 to void (%"class.irr::scene::CSkinnedMesh"*)***
  %99 = load void (%"class.irr::scene::CSkinnedMesh"*)*** %98
  %100 = getelementptr inbounds void (%"class.irr::scene::CSkinnedMesh"*)** %99, i64 36
  %101 = load void (%"class.irr::scene::CSkinnedMesh"*)** %100
  call void %101(%"class.irr::scene::CSkinnedMesh"* %8)
  br label %102

; <label>:102                                     ; preds = %97, %24, %17
  ret void
}

; Function Attrs: nounwind uwtable
define linkonce_odr void @_ZN3irr4core8vector3dIfEC2ERKS2_(%"class.irr::core::vector3d"* %this, %"class.irr::core::vector3d"* dereferenceable(12) %other) unnamed_addr #3 align 2 {
  %1 = alloca %"class.irr::core::vector3d"*, align 8
  %2 = alloca %"class.irr::core::vector3d"*, align 8
  store %"class.irr::core::vector3d"* %this, %"class.irr::core::vector3d"** %1, align 8
  store %"class.irr::core::vector3d"* %other, %"class.irr::core::vector3d"** %2, align 8
  %3 = load %"class.irr::core::vector3d"** %1
  %4 = getelementptr inbounds %"class.irr::core::vector3d"* %3, i32 0, i32 0
  %5 = load %"class.irr::core::vector3d"** %2, align 8
  %6 = getelementptr inbounds %"class.irr::core::vector3d"* %5, i32 0, i32 0
  %7 = load float* %6, align 4
  store float %7, float* %4, align 4
  %8 = getelementptr inbounds %"class.irr::core::vector3d"* %3, i32 0, i32 1
  %9 = load %"class.irr::core::vector3d"** %2, align 8
  %10 = getelementptr inbounds %"class.irr::core::vector3d"* %9, i32 0, i32 1
  %11 = load float* %10, align 4
  store float %11, float* %8, align 4
  %12 = getelementptr inbounds %"class.irr::core::vector3d"* %3, i32 0, i32 2
  %13 = load %"class.irr::core::vector3d"** %2, align 8
  %14 = getelementptr inbounds %"class.irr::core::vector3d"* %13, i32 0, i32 2
  %15 = load float* %14, align 4
  store float %15, float* %12, align 4
  ret void
}

; Function Attrs: nounwind
declare void @llvm.memcpy.p0i8.p0i8.i64(i8* nocapture, i8* nocapture readonly, i64, i32, i1) #1

; Function Attrs: uwtable
define void @_ZN3irr5scene12CSkinnedMesh12getFrameDataEfPNS0_12ISkinnedMesh6SJointERNS_4core8vector3dIfEERiS8_S9_RNS5_10quaternionES9_(%"class.irr::scene::CSkinnedMesh"* %this, float %frame, %"struct.irr::scene::ISkinnedMesh::SJoint"* %joint, %"class.irr::core::vector3d"* dereferenceable(12) %position, i32* dereferenceable(4) %positionHint, %"class.irr::core::vector3d"* dereferenceable(12) %scale, i32* dereferenceable(4) %scaleHint, %"class.irr::core::quaternion"* dereferenceable(16) %rotation, i32* dereferenceable(4) %rotationHint) #0 align 2 {
  %1 = alloca %"class.irr::scene::CSkinnedMesh"*, align 8
  %2 = alloca float, align 4
  %3 = alloca %"struct.irr::scene::ISkinnedMesh::SJoint"*, align 8
  %4 = alloca %"class.irr::core::vector3d"*, align 8
  %5 = alloca i32*, align 8
  %6 = alloca %"class.irr::core::vector3d"*, align 8
  %7 = alloca i32*, align 8
  %8 = alloca %"class.irr::core::quaternion"*, align 8
  %9 = alloca i32*, align 8
  %foundPositionIndex = alloca i32, align 4
  %foundScaleIndex = alloca i32, align 4
  %foundRotationIndex = alloca i32, align 4
  %PositionKeys = alloca %"class.irr::core::array.26"*, align 8
  %ScaleKeys = alloca %"class.irr::core::array.29"*, align 8
  %RotationKeys = alloca %"class.irr::core::array.32"*, align 8
  %i = alloca i32, align 4
  %KeyA = alloca %"struct.irr::scene::ISkinnedMesh::SPositionKey"*, align 8
  %KeyB = alloca %"struct.irr::scene::ISkinnedMesh::SPositionKey"*, align 8
  %fd1 = alloca float, align 4
  %fd2 = alloca float, align 4
  %10 = alloca %"class.irr::core::vector3d", align 4
  %11 = alloca %"class.irr::core::vector3d", align 4
  %12 = alloca %"class.irr::core::vector3d", align 4
  %13 = alloca %"class.irr::core::vector3d", align 4
  %i1 = alloca i32, align 4
  %KeyA2 = alloca %"struct.irr::scene::ISkinnedMesh::SScaleKey"*, align 8
  %KeyB3 = alloca %"struct.irr::scene::ISkinnedMesh::SScaleKey"*, align 8
  %fd14 = alloca float, align 4
  %fd25 = alloca float, align 4
  %14 = alloca %"class.irr::core::vector3d", align 4
  %15 = alloca %"class.irr::core::vector3d", align 4
  %16 = alloca %"class.irr::core::vector3d", align 4
  %17 = alloca %"class.irr::core::vector3d", align 4
  %i6 = alloca i32, align 4
  %KeyA7 = alloca %"struct.irr::scene::ISkinnedMesh::SRotationKey"*, align 8
  %KeyB8 = alloca %"struct.irr::scene::ISkinnedMesh::SRotationKey"*, align 8
  %fd19 = alloca float, align 4
  %fd210 = alloca float, align 4
  %t = alloca float, align 4
  %18 = alloca %"class.irr::core::quaternion", align 4
  %19 = alloca %"class.irr::core::quaternion", align 4
  store %"class.irr::scene::CSkinnedMesh"* %this, %"class.irr::scene::CSkinnedMesh"** %1, align 8
  store float %frame, float* %2, align 4
  store %"struct.irr::scene::ISkinnedMesh::SJoint"* %joint, %"struct.irr::scene::ISkinnedMesh::SJoint"** %3, align 8
  store %"class.irr::core::vector3d"* %position, %"class.irr::core::vector3d"** %4, align 8
  store i32* %positionHint, i32** %5, align 8
  store %"class.irr::core::vector3d"* %scale, %"class.irr::core::vector3d"** %6, align 8
  store i32* %scaleHint, i32** %7, align 8
  store %"class.irr::core::quaternion"* %rotation, %"class.irr::core::quaternion"** %8, align 8
  store i32* %rotationHint, i32** %9, align 8
  %20 = load %"class.irr::scene::CSkinnedMesh"** %1
  store i32 -1, i32* %foundPositionIndex, align 4
  store i32 -1, i32* %foundScaleIndex, align 4
  store i32 -1, i32* %foundRotationIndex, align 4
  %21 = load %"struct.irr::scene::ISkinnedMesh::SJoint"** %3, align 8
  %22 = getelementptr inbounds %"struct.irr::scene::ISkinnedMesh::SJoint"* %21, i32 0, i32 15
  %23 = load %"struct.irr::scene::ISkinnedMesh::SJoint"** %22, align 8
  %24 = icmp ne %"struct.irr::scene::ISkinnedMesh::SJoint"* %23, null
  br i1 %24, label %25, label %526

; <label>:25                                      ; preds = %0
  %26 = load %"struct.irr::scene::ISkinnedMesh::SJoint"** %3, align 8
  %27 = getelementptr inbounds %"struct.irr::scene::ISkinnedMesh::SJoint"* %26, i32 0, i32 15
  %28 = load %"struct.irr::scene::ISkinnedMesh::SJoint"** %27, align 8
  %29 = getelementptr inbounds %"struct.irr::scene::ISkinnedMesh::SJoint"* %28, i32 0, i32 4
  store %"class.irr::core::array.26"* %29, %"class.irr::core::array.26"** %PositionKeys, align 8
  %30 = load %"struct.irr::scene::ISkinnedMesh::SJoint"** %3, align 8
  %31 = getelementptr inbounds %"struct.irr::scene::ISkinnedMesh::SJoint"* %30, i32 0, i32 15
  %32 = load %"struct.irr::scene::ISkinnedMesh::SJoint"** %31, align 8
  %33 = getelementptr inbounds %"struct.irr::scene::ISkinnedMesh::SJoint"* %32, i32 0, i32 5
  store %"class.irr::core::array.29"* %33, %"class.irr::core::array.29"** %ScaleKeys, align 8
  %34 = load %"struct.irr::scene::ISkinnedMesh::SJoint"** %3, align 8
  %35 = getelementptr inbounds %"struct.irr::scene::ISkinnedMesh::SJoint"* %34, i32 0, i32 15
  %36 = load %"struct.irr::scene::ISkinnedMesh::SJoint"** %35, align 8
  %37 = getelementptr inbounds %"struct.irr::scene::ISkinnedMesh::SJoint"* %36, i32 0, i32 6
  store %"class.irr::core::array.32"* %37, %"class.irr::core::array.32"** %RotationKeys, align 8
  %38 = load %"class.irr::core::array.26"** %PositionKeys, align 8
  %39 = call i32 @_ZNK3irr4core5arrayINS_5scene12ISkinnedMesh12SPositionKeyENS0_12irrAllocatorIS4_EEE4sizeEv(%"class.irr::core::array.26"* %38)
  %40 = icmp ne i32 %39, 0
  br i1 %40, label %41, label %195

; <label>:41                                      ; preds = %25
  store i32 -1, i32* %foundPositionIndex, align 4
  %42 = load i32** %5, align 8
  %43 = load i32* %42, align 4
  %44 = icmp sge i32 %43, 0
  br i1 %44, label %45, label %113

; <label>:45                                      ; preds = %41
  %46 = load i32** %5, align 8
  %47 = load i32* %46, align 4
  %48 = load %"class.irr::core::array.26"** %PositionKeys, align 8
  %49 = call i32 @_ZNK3irr4core5arrayINS_5scene12ISkinnedMesh12SPositionKeyENS0_12irrAllocatorIS4_EEE4sizeEv(%"class.irr::core::array.26"* %48)
  %50 = icmp ult i32 %47, %49
  br i1 %50, label %51, label %113

; <label>:51                                      ; preds = %45
  %52 = load i32** %5, align 8
  %53 = load i32* %52, align 4
  %54 = icmp sgt i32 %53, 0
  br i1 %54, label %55, label %77

; <label>:55                                      ; preds = %51
  %56 = load %"class.irr::core::array.26"** %PositionKeys, align 8
  %57 = load i32** %5, align 8
  %58 = load i32* %57, align 4
  %59 = call dereferenceable(16) %"struct.irr::scene::ISkinnedMesh::SPositionKey"* @_ZNK3irr4core5arrayINS_5scene12ISkinnedMesh12SPositionKeyENS0_12irrAllocatorIS4_EEEixEj(%"class.irr::core::array.26"* %56, i32 %58)
  %60 = getelementptr inbounds %"struct.irr::scene::ISkinnedMesh::SPositionKey"* %59, i32 0, i32 0
  %61 = load float* %60, align 4
  %62 = load float* %2, align 4
  %63 = fcmp oge float %61, %62
  br i1 %63, label %64, label %77

; <label>:64                                      ; preds = %55
  %65 = load %"class.irr::core::array.26"** %PositionKeys, align 8
  %66 = load i32** %5, align 8
  %67 = load i32* %66, align 4
  %68 = sub nsw i32 %67, 1
  %69 = call dereferenceable(16) %"struct.irr::scene::ISkinnedMesh::SPositionKey"* @_ZNK3irr4core5arrayINS_5scene12ISkinnedMesh12SPositionKeyENS0_12irrAllocatorIS4_EEEixEj(%"class.irr::core::array.26"* %65, i32 %68)
  %70 = getelementptr inbounds %"struct.irr::scene::ISkinnedMesh::SPositionKey"* %69, i32 0, i32 0
  %71 = load float* %70, align 4
  %72 = load float* %2, align 4
  %73 = fcmp olt float %71, %72
  br i1 %73, label %74, label %77

; <label>:74                                      ; preds = %64
  %75 = load i32** %5, align 8
  %76 = load i32* %75, align 4
  store i32 %76, i32* %foundPositionIndex, align 4
  br label %112

; <label>:77                                      ; preds = %64, %55, %51
  %78 = load i32** %5, align 8
  %79 = load i32* %78, align 4
  %80 = add nsw i32 %79, 1
  %81 = load %"class.irr::core::array.26"** %PositionKeys, align 8
  %82 = call i32 @_ZNK3irr4core5arrayINS_5scene12ISkinnedMesh12SPositionKeyENS0_12irrAllocatorIS4_EEE4sizeEv(%"class.irr::core::array.26"* %81)
  %83 = icmp slt i32 %80, %82
  br i1 %83, label %84, label %111

; <label>:84                                      ; preds = %77
  %85 = load %"class.irr::core::array.26"** %PositionKeys, align 8
  %86 = load i32** %5, align 8
  %87 = load i32* %86, align 4
  %88 = add nsw i32 %87, 1
  %89 = call dereferenceable(16) %"struct.irr::scene::ISkinnedMesh::SPositionKey"* @_ZNK3irr4core5arrayINS_5scene12ISkinnedMesh12SPositionKeyENS0_12irrAllocatorIS4_EEEixEj(%"class.irr::core::array.26"* %85, i32 %88)
  %90 = getelementptr inbounds %"struct.irr::scene::ISkinnedMesh::SPositionKey"* %89, i32 0, i32 0
  %91 = load float* %90, align 4
  %92 = load float* %2, align 4
  %93 = fcmp oge float %91, %92
  br i1 %93, label %94, label %110

; <label>:94                                      ; preds = %84
  %95 = load %"class.irr::core::array.26"** %PositionKeys, align 8
  %96 = load i32** %5, align 8
  %97 = load i32* %96, align 4
  %98 = add nsw i32 %97, 0
  %99 = call dereferenceable(16) %"struct.irr::scene::ISkinnedMesh::SPositionKey"* @_ZNK3irr4core5arrayINS_5scene12ISkinnedMesh12SPositionKeyENS0_12irrAllocatorIS4_EEEixEj(%"class.irr::core::array.26"* %95, i32 %98)
  %100 = getelementptr inbounds %"struct.irr::scene::ISkinnedMesh::SPositionKey"* %99, i32 0, i32 0
  %101 = load float* %100, align 4
  %102 = load float* %2, align 4
  %103 = fcmp olt float %101, %102
  br i1 %103, label %104, label %110

; <label>:104                                     ; preds = %94
  %105 = load i32** %5, align 8
  %106 = load i32* %105, align 4
  %107 = add nsw i32 %106, 1
  store i32 %107, i32* %105, align 4
  %108 = load i32** %5, align 8
  %109 = load i32* %108, align 4
  store i32 %109, i32* %foundPositionIndex, align 4
  br label %110

; <label>:110                                     ; preds = %104, %94, %84
  br label %111

; <label>:111                                     ; preds = %110, %77
  br label %112

; <label>:112                                     ; preds = %111, %74
  br label %113

; <label>:113                                     ; preds = %112, %45, %41
  %114 = load i32* %foundPositionIndex, align 4
  %115 = icmp eq i32 %114, -1
  br i1 %115, label %116, label %139

; <label>:116                                     ; preds = %113
  store i32 0, i32* %i, align 4
  br label %117

; <label>:117                                     ; preds = %135, %116
  %118 = load i32* %i, align 4
  %119 = load %"class.irr::core::array.26"** %PositionKeys, align 8
  %120 = call i32 @_ZNK3irr4core5arrayINS_5scene12ISkinnedMesh12SPositionKeyENS0_12irrAllocatorIS4_EEE4sizeEv(%"class.irr::core::array.26"* %119)
  %121 = icmp ult i32 %118, %120
  br i1 %121, label %122, label %138

; <label>:122                                     ; preds = %117
  %123 = load %"class.irr::core::array.26"** %PositionKeys, align 8
  %124 = load i32* %i, align 4
  %125 = call dereferenceable(16) %"struct.irr::scene::ISkinnedMesh::SPositionKey"* @_ZNK3irr4core5arrayINS_5scene12ISkinnedMesh12SPositionKeyENS0_12irrAllocatorIS4_EEEixEj(%"class.irr::core::array.26"* %123, i32 %124)
  %126 = getelementptr inbounds %"struct.irr::scene::ISkinnedMesh::SPositionKey"* %125, i32 0, i32 0
  %127 = load float* %126, align 4
  %128 = load float* %2, align 4
  %129 = fcmp oge float %127, %128
  br i1 %129, label %130, label %134

; <label>:130                                     ; preds = %122
  %131 = load i32* %i, align 4
  store i32 %131, i32* %foundPositionIndex, align 4
  %132 = load i32* %i, align 4
  %133 = load i32** %5, align 8
  store i32 %132, i32* %133, align 4
  br label %138

; <label>:134                                     ; preds = %122
  br label %135

; <label>:135                                     ; preds = %134
  %136 = load i32* %i, align 4
  %137 = add i32 %136, 1
  store i32 %137, i32* %i, align 4
  br label %117

; <label>:138                                     ; preds = %130, %117
  br label %139

; <label>:139                                     ; preds = %138, %113
  %140 = load i32* %foundPositionIndex, align 4
  %141 = icmp ne i32 %140, -1
  br i1 %141, label %142, label %194

; <label>:142                                     ; preds = %139
  %143 = getelementptr inbounds %"class.irr::scene::CSkinnedMesh"* %20, i32 0, i32 11
  %144 = load i8* %143, align 1
  %145 = zext i8 %144 to i32
  %146 = icmp eq i32 %145, 0
  br i1 %146, label %150, label %147

; <label>:147                                     ; preds = %142
  %148 = load i32* %foundPositionIndex, align 4
  %149 = icmp eq i32 %148, 0
  br i1 %149, label %150, label %157

; <label>:150                                     ; preds = %147, %142
  %151 = load %"class.irr::core::vector3d"** %4, align 8
  %152 = load %"class.irr::core::array.26"** %PositionKeys, align 8
  %153 = load i32* %foundPositionIndex, align 4
  %154 = call dereferenceable(16) %"struct.irr::scene::ISkinnedMesh::SPositionKey"* @_ZNK3irr4core5arrayINS_5scene12ISkinnedMesh12SPositionKeyENS0_12irrAllocatorIS4_EEEixEj(%"class.irr::core::array.26"* %152, i32 %153)
  %155 = getelementptr inbounds %"struct.irr::scene::ISkinnedMesh::SPositionKey"* %154, i32 0, i32 1
  %156 = call dereferenceable(12) %"class.irr::core::vector3d"* @_ZN3irr4core8vector3dIfEaSERKS2_(%"class.irr::core::vector3d"* %151, %"class.irr::core::vector3d"* dereferenceable(12) %155)
  br label %193

; <label>:157                                     ; preds = %147
  %158 = getelementptr inbounds %"class.irr::scene::CSkinnedMesh"* %20, i32 0, i32 11
  %159 = load i8* %158, align 1
  %160 = zext i8 %159 to i32
  %161 = icmp eq i32 %160, 1
  br i1 %161, label %162, label %192

; <label>:162                                     ; preds = %157
  %163 = load %"class.irr::core::array.26"** %PositionKeys, align 8
  %164 = load i32* %foundPositionIndex, align 4
  %165 = call dereferenceable(16) %"struct.irr::scene::ISkinnedMesh::SPositionKey"* @_ZNK3irr4core5arrayINS_5scene12ISkinnedMesh12SPositionKeyENS0_12irrAllocatorIS4_EEEixEj(%"class.irr::core::array.26"* %163, i32 %164)
  store %"struct.irr::scene::ISkinnedMesh::SPositionKey"* %165, %"struct.irr::scene::ISkinnedMesh::SPositionKey"** %KeyA, align 8
  %166 = load %"class.irr::core::array.26"** %PositionKeys, align 8
  %167 = load i32* %foundPositionIndex, align 4
  %168 = sub nsw i32 %167, 1
  %169 = call dereferenceable(16) %"struct.irr::scene::ISkinnedMesh::SPositionKey"* @_ZNK3irr4core5arrayINS_5scene12ISkinnedMesh12SPositionKeyENS0_12irrAllocatorIS4_EEEixEj(%"class.irr::core::array.26"* %166, i32 %168)
  store %"struct.irr::scene::ISkinnedMesh::SPositionKey"* %169, %"struct.irr::scene::ISkinnedMesh::SPositionKey"** %KeyB, align 8
  %170 = load float* %2, align 4
  %171 = load %"struct.irr::scene::ISkinnedMesh::SPositionKey"** %KeyA, align 8
  %172 = getelementptr inbounds %"struct.irr::scene::ISkinnedMesh::SPositionKey"* %171, i32 0, i32 0
  %173 = load float* %172, align 4
  %174 = fsub float %170, %173
  store float %174, float* %fd1, align 4
  %175 = load %"struct.irr::scene::ISkinnedMesh::SPositionKey"** %KeyB, align 8
  %176 = getelementptr inbounds %"struct.irr::scene::ISkinnedMesh::SPositionKey"* %175, i32 0, i32 0
  %177 = load float* %176, align 4
  %178 = load float* %2, align 4
  %179 = fsub float %177, %178
  store float %179, float* %fd2, align 4
  %180 = load %"class.irr::core::vector3d"** %4, align 8
  %181 = load %"struct.irr::scene::ISkinnedMesh::SPositionKey"** %KeyB, align 8
  %182 = getelementptr inbounds %"struct.irr::scene::ISkinnedMesh::SPositionKey"* %181, i32 0, i32 1
  %183 = load %"struct.irr::scene::ISkinnedMesh::SPositionKey"** %KeyA, align 8
  %184 = getelementptr inbounds %"struct.irr::scene::ISkinnedMesh::SPositionKey"* %183, i32 0, i32 1
  call void @_ZNK3irr4core8vector3dIfEmiERKS2_(%"class.irr::core::vector3d"* sret %11, %"class.irr::core::vector3d"* %182, %"class.irr::core::vector3d"* dereferenceable(12) %184)
  %185 = load float* %fd1, align 4
  %186 = load float* %fd2, align 4
  %187 = fadd float %185, %186
  call void @_ZNK3irr4core8vector3dIfEdvEf(%"class.irr::core::vector3d"* sret %12, %"class.irr::core::vector3d"* %11, float %187)
  %188 = load float* %fd1, align 4
  call void @_ZNK3irr4core8vector3dIfEmlEf(%"class.irr::core::vector3d"* sret %13, %"class.irr::core::vector3d"* %12, float %188)
  %189 = load %"struct.irr::scene::ISkinnedMesh::SPositionKey"** %KeyA, align 8
  %190 = getelementptr inbounds %"struct.irr::scene::ISkinnedMesh::SPositionKey"* %189, i32 0, i32 1
  call void @_ZNK3irr4core8vector3dIfEplERKS2_(%"class.irr::core::vector3d"* sret %10, %"class.irr::core::vector3d"* %13, %"class.irr::core::vector3d"* dereferenceable(12) %190)
  %191 = call dereferenceable(12) %"class.irr::core::vector3d"* @_ZN3irr4core8vector3dIfEaSERKS2_(%"class.irr::core::vector3d"* %180, %"class.irr::core::vector3d"* dereferenceable(12) %10)
  br label %192

; <label>:192                                     ; preds = %162, %157
  br label %193

; <label>:193                                     ; preds = %192, %150
  br label %194

; <label>:194                                     ; preds = %193, %139
  br label %195

; <label>:195                                     ; preds = %194, %25
  %196 = load %"class.irr::core::array.29"** %ScaleKeys, align 8
  %197 = call i32 @_ZNK3irr4core5arrayINS_5scene12ISkinnedMesh9SScaleKeyENS0_12irrAllocatorIS4_EEE4sizeEv(%"class.irr::core::array.29"* %196)
  %198 = icmp ne i32 %197, 0
  br i1 %198, label %199, label %353

; <label>:199                                     ; preds = %195
  store i32 -1, i32* %foundScaleIndex, align 4
  %200 = load i32** %7, align 8
  %201 = load i32* %200, align 4
  %202 = icmp sge i32 %201, 0
  br i1 %202, label %203, label %271

; <label>:203                                     ; preds = %199
  %204 = load i32** %7, align 8
  %205 = load i32* %204, align 4
  %206 = load %"class.irr::core::array.29"** %ScaleKeys, align 8
  %207 = call i32 @_ZNK3irr4core5arrayINS_5scene12ISkinnedMesh9SScaleKeyENS0_12irrAllocatorIS4_EEE4sizeEv(%"class.irr::core::array.29"* %206)
  %208 = icmp ult i32 %205, %207
  br i1 %208, label %209, label %271

; <label>:209                                     ; preds = %203
  %210 = load i32** %7, align 8
  %211 = load i32* %210, align 4
  %212 = icmp sgt i32 %211, 0
  br i1 %212, label %213, label %235

; <label>:213                                     ; preds = %209
  %214 = load %"class.irr::core::array.29"** %ScaleKeys, align 8
  %215 = load i32** %7, align 8
  %216 = load i32* %215, align 4
  %217 = call dereferenceable(16) %"struct.irr::scene::ISkinnedMesh::SScaleKey"* @_ZNK3irr4core5arrayINS_5scene12ISkinnedMesh9SScaleKeyENS0_12irrAllocatorIS4_EEEixEj(%"class.irr::core::array.29"* %214, i32 %216)
  %218 = getelementptr inbounds %"struct.irr::scene::ISkinnedMesh::SScaleKey"* %217, i32 0, i32 0
  %219 = load float* %218, align 4
  %220 = load float* %2, align 4
  %221 = fcmp oge float %219, %220
  br i1 %221, label %222, label %235

; <label>:222                                     ; preds = %213
  %223 = load %"class.irr::core::array.29"** %ScaleKeys, align 8
  %224 = load i32** %7, align 8
  %225 = load i32* %224, align 4
  %226 = sub nsw i32 %225, 1
  %227 = call dereferenceable(16) %"struct.irr::scene::ISkinnedMesh::SScaleKey"* @_ZNK3irr4core5arrayINS_5scene12ISkinnedMesh9SScaleKeyENS0_12irrAllocatorIS4_EEEixEj(%"class.irr::core::array.29"* %223, i32 %226)
  %228 = getelementptr inbounds %"struct.irr::scene::ISkinnedMesh::SScaleKey"* %227, i32 0, i32 0
  %229 = load float* %228, align 4
  %230 = load float* %2, align 4
  %231 = fcmp olt float %229, %230
  br i1 %231, label %232, label %235

; <label>:232                                     ; preds = %222
  %233 = load i32** %7, align 8
  %234 = load i32* %233, align 4
  store i32 %234, i32* %foundScaleIndex, align 4
  br label %270

; <label>:235                                     ; preds = %222, %213, %209
  %236 = load i32** %7, align 8
  %237 = load i32* %236, align 4
  %238 = add nsw i32 %237, 1
  %239 = load %"class.irr::core::array.29"** %ScaleKeys, align 8
  %240 = call i32 @_ZNK3irr4core5arrayINS_5scene12ISkinnedMesh9SScaleKeyENS0_12irrAllocatorIS4_EEE4sizeEv(%"class.irr::core::array.29"* %239)
  %241 = icmp slt i32 %238, %240
  br i1 %241, label %242, label %269

; <label>:242                                     ; preds = %235
  %243 = load %"class.irr::core::array.29"** %ScaleKeys, align 8
  %244 = load i32** %7, align 8
  %245 = load i32* %244, align 4
  %246 = add nsw i32 %245, 1
  %247 = call dereferenceable(16) %"struct.irr::scene::ISkinnedMesh::SScaleKey"* @_ZNK3irr4core5arrayINS_5scene12ISkinnedMesh9SScaleKeyENS0_12irrAllocatorIS4_EEEixEj(%"class.irr::core::array.29"* %243, i32 %246)
  %248 = getelementptr inbounds %"struct.irr::scene::ISkinnedMesh::SScaleKey"* %247, i32 0, i32 0
  %249 = load float* %248, align 4
  %250 = load float* %2, align 4
  %251 = fcmp oge float %249, %250
  br i1 %251, label %252, label %268

; <label>:252                                     ; preds = %242
  %253 = load %"class.irr::core::array.29"** %ScaleKeys, align 8
  %254 = load i32** %7, align 8
  %255 = load i32* %254, align 4
  %256 = add nsw i32 %255, 0
  %257 = call dereferenceable(16) %"struct.irr::scene::ISkinnedMesh::SScaleKey"* @_ZNK3irr4core5arrayINS_5scene12ISkinnedMesh9SScaleKeyENS0_12irrAllocatorIS4_EEEixEj(%"class.irr::core::array.29"* %253, i32 %256)
  %258 = getelementptr inbounds %"struct.irr::scene::ISkinnedMesh::SScaleKey"* %257, i32 0, i32 0
  %259 = load float* %258, align 4
  %260 = load float* %2, align 4
  %261 = fcmp olt float %259, %260
  br i1 %261, label %262, label %268

; <label>:262                                     ; preds = %252
  %263 = load i32** %7, align 8
  %264 = load i32* %263, align 4
  %265 = add nsw i32 %264, 1
  store i32 %265, i32* %263, align 4
  %266 = load i32** %7, align 8
  %267 = load i32* %266, align 4
  store i32 %267, i32* %foundScaleIndex, align 4
  br label %268

; <label>:268                                     ; preds = %262, %252, %242
  br label %269

; <label>:269                                     ; preds = %268, %235
  br label %270

; <label>:270                                     ; preds = %269, %232
  br label %271

; <label>:271                                     ; preds = %270, %203, %199
  %272 = load i32* %foundScaleIndex, align 4
  %273 = icmp eq i32 %272, -1
  br i1 %273, label %274, label %297

; <label>:274                                     ; preds = %271
  store i32 0, i32* %i1, align 4
  br label %275

; <label>:275                                     ; preds = %293, %274
  %276 = load i32* %i1, align 4
  %277 = load %"class.irr::core::array.29"** %ScaleKeys, align 8
  %278 = call i32 @_ZNK3irr4core5arrayINS_5scene12ISkinnedMesh9SScaleKeyENS0_12irrAllocatorIS4_EEE4sizeEv(%"class.irr::core::array.29"* %277)
  %279 = icmp ult i32 %276, %278
  br i1 %279, label %280, label %296

; <label>:280                                     ; preds = %275
  %281 = load %"class.irr::core::array.29"** %ScaleKeys, align 8
  %282 = load i32* %i1, align 4
  %283 = call dereferenceable(16) %"struct.irr::scene::ISkinnedMesh::SScaleKey"* @_ZNK3irr4core5arrayINS_5scene12ISkinnedMesh9SScaleKeyENS0_12irrAllocatorIS4_EEEixEj(%"class.irr::core::array.29"* %281, i32 %282)
  %284 = getelementptr inbounds %"struct.irr::scene::ISkinnedMesh::SScaleKey"* %283, i32 0, i32 0
  %285 = load float* %284, align 4
  %286 = load float* %2, align 4
  %287 = fcmp oge float %285, %286
  br i1 %287, label %288, label %292

; <label>:288                                     ; preds = %280
  %289 = load i32* %i1, align 4
  store i32 %289, i32* %foundScaleIndex, align 4
  %290 = load i32* %i1, align 4
  %291 = load i32** %7, align 8
  store i32 %290, i32* %291, align 4
  br label %296

; <label>:292                                     ; preds = %280
  br label %293

; <label>:293                                     ; preds = %292
  %294 = load i32* %i1, align 4
  %295 = add i32 %294, 1
  store i32 %295, i32* %i1, align 4
  br label %275

; <label>:296                                     ; preds = %288, %275
  br label %297

; <label>:297                                     ; preds = %296, %271
  %298 = load i32* %foundScaleIndex, align 4
  %299 = icmp ne i32 %298, -1
  br i1 %299, label %300, label %352

; <label>:300                                     ; preds = %297
  %301 = getelementptr inbounds %"class.irr::scene::CSkinnedMesh"* %20, i32 0, i32 11
  %302 = load i8* %301, align 1
  %303 = zext i8 %302 to i32
  %304 = icmp eq i32 %303, 0
  br i1 %304, label %308, label %305

; <label>:305                                     ; preds = %300
  %306 = load i32* %foundScaleIndex, align 4
  %307 = icmp eq i32 %306, 0
  br i1 %307, label %308, label %315

; <label>:308                                     ; preds = %305, %300
  %309 = load %"class.irr::core::vector3d"** %6, align 8
  %310 = load %"class.irr::core::array.29"** %ScaleKeys, align 8
  %311 = load i32* %foundScaleIndex, align 4
  %312 = call dereferenceable(16) %"struct.irr::scene::ISkinnedMesh::SScaleKey"* @_ZNK3irr4core5arrayINS_5scene12ISkinnedMesh9SScaleKeyENS0_12irrAllocatorIS4_EEEixEj(%"class.irr::core::array.29"* %310, i32 %311)
  %313 = getelementptr inbounds %"struct.irr::scene::ISkinnedMesh::SScaleKey"* %312, i32 0, i32 1
  %314 = call dereferenceable(12) %"class.irr::core::vector3d"* @_ZN3irr4core8vector3dIfEaSERKS2_(%"class.irr::core::vector3d"* %309, %"class.irr::core::vector3d"* dereferenceable(12) %313)
  br label %351

; <label>:315                                     ; preds = %305
  %316 = getelementptr inbounds %"class.irr::scene::CSkinnedMesh"* %20, i32 0, i32 11
  %317 = load i8* %316, align 1
  %318 = zext i8 %317 to i32
  %319 = icmp eq i32 %318, 1
  br i1 %319, label %320, label %350

; <label>:320                                     ; preds = %315
  %321 = load %"class.irr::core::array.29"** %ScaleKeys, align 8
  %322 = load i32* %foundScaleIndex, align 4
  %323 = call dereferenceable(16) %"struct.irr::scene::ISkinnedMesh::SScaleKey"* @_ZNK3irr4core5arrayINS_5scene12ISkinnedMesh9SScaleKeyENS0_12irrAllocatorIS4_EEEixEj(%"class.irr::core::array.29"* %321, i32 %322)
  store %"struct.irr::scene::ISkinnedMesh::SScaleKey"* %323, %"struct.irr::scene::ISkinnedMesh::SScaleKey"** %KeyA2, align 8
  %324 = load %"class.irr::core::array.29"** %ScaleKeys, align 8
  %325 = load i32* %foundScaleIndex, align 4
  %326 = sub nsw i32 %325, 1
  %327 = call dereferenceable(16) %"struct.irr::scene::ISkinnedMesh::SScaleKey"* @_ZNK3irr4core5arrayINS_5scene12ISkinnedMesh9SScaleKeyENS0_12irrAllocatorIS4_EEEixEj(%"class.irr::core::array.29"* %324, i32 %326)
  store %"struct.irr::scene::ISkinnedMesh::SScaleKey"* %327, %"struct.irr::scene::ISkinnedMesh::SScaleKey"** %KeyB3, align 8
  %328 = load float* %2, align 4
  %329 = load %"struct.irr::scene::ISkinnedMesh::SScaleKey"** %KeyA2, align 8
  %330 = getelementptr inbounds %"struct.irr::scene::ISkinnedMesh::SScaleKey"* %329, i32 0, i32 0
  %331 = load float* %330, align 4
  %332 = fsub float %328, %331
  store float %332, float* %fd14, align 4
  %333 = load %"struct.irr::scene::ISkinnedMesh::SScaleKey"** %KeyB3, align 8
  %334 = getelementptr inbounds %"struct.irr::scene::ISkinnedMesh::SScaleKey"* %333, i32 0, i32 0
  %335 = load float* %334, align 4
  %336 = load float* %2, align 4
  %337 = fsub float %335, %336
  store float %337, float* %fd25, align 4
  %338 = load %"class.irr::core::vector3d"** %6, align 8
  %339 = load %"struct.irr::scene::ISkinnedMesh::SScaleKey"** %KeyB3, align 8
  %340 = getelementptr inbounds %"struct.irr::scene::ISkinnedMesh::SScaleKey"* %339, i32 0, i32 1
  %341 = load %"struct.irr::scene::ISkinnedMesh::SScaleKey"** %KeyA2, align 8
  %342 = getelementptr inbounds %"struct.irr::scene::ISkinnedMesh::SScaleKey"* %341, i32 0, i32 1
  call void @_ZNK3irr4core8vector3dIfEmiERKS2_(%"class.irr::core::vector3d"* sret %15, %"class.irr::core::vector3d"* %340, %"class.irr::core::vector3d"* dereferenceable(12) %342)
  %343 = load float* %fd14, align 4
  %344 = load float* %fd25, align 4
  %345 = fadd float %343, %344
  call void @_ZNK3irr4core8vector3dIfEdvEf(%"class.irr::core::vector3d"* sret %16, %"class.irr::core::vector3d"* %15, float %345)
  %346 = load float* %fd14, align 4
  call void @_ZNK3irr4core8vector3dIfEmlEf(%"class.irr::core::vector3d"* sret %17, %"class.irr::core::vector3d"* %16, float %346)
  %347 = load %"struct.irr::scene::ISkinnedMesh::SScaleKey"** %KeyA2, align 8
  %348 = getelementptr inbounds %"struct.irr::scene::ISkinnedMesh::SScaleKey"* %347, i32 0, i32 1
  call void @_ZNK3irr4core8vector3dIfEplERKS2_(%"class.irr::core::vector3d"* sret %14, %"class.irr::core::vector3d"* %17, %"class.irr::core::vector3d"* dereferenceable(12) %348)
  %349 = call dereferenceable(12) %"class.irr::core::vector3d"* @_ZN3irr4core8vector3dIfEaSERKS2_(%"class.irr::core::vector3d"* %338, %"class.irr::core::vector3d"* dereferenceable(12) %14)
  br label %350

; <label>:350                                     ; preds = %320, %315
  br label %351

; <label>:351                                     ; preds = %350, %308
  br label %352

; <label>:352                                     ; preds = %351, %297
  br label %353

; <label>:353                                     ; preds = %352, %195
  %354 = load %"class.irr::core::array.32"** %RotationKeys, align 8
  %355 = call i32 @_ZNK3irr4core5arrayINS_5scene12ISkinnedMesh12SRotationKeyENS0_12irrAllocatorIS4_EEE4sizeEv(%"class.irr::core::array.32"* %354)
  %356 = icmp ne i32 %355, 0
  br i1 %356, label %357, label %525

; <label>:357                                     ; preds = %353
  store i32 -1, i32* %foundRotationIndex, align 4
  %358 = load i32** %9, align 8
  %359 = load i32* %358, align 4
  %360 = icmp sge i32 %359, 0
  br i1 %360, label %361, label %429

; <label>:361                                     ; preds = %357
  %362 = load i32** %9, align 8
  %363 = load i32* %362, align 4
  %364 = load %"class.irr::core::array.32"** %RotationKeys, align 8
  %365 = call i32 @_ZNK3irr4core5arrayINS_5scene12ISkinnedMesh12SRotationKeyENS0_12irrAllocatorIS4_EEE4sizeEv(%"class.irr::core::array.32"* %364)
  %366 = icmp ult i32 %363, %365
  br i1 %366, label %367, label %429

; <label>:367                                     ; preds = %361
  %368 = load i32** %9, align 8
  %369 = load i32* %368, align 4
  %370 = icmp sgt i32 %369, 0
  br i1 %370, label %371, label %393

; <label>:371                                     ; preds = %367
  %372 = load %"class.irr::core::array.32"** %RotationKeys, align 8
  %373 = load i32** %9, align 8
  %374 = load i32* %373, align 4
  %375 = call dereferenceable(20) %"struct.irr::scene::ISkinnedMesh::SRotationKey"* @_ZNK3irr4core5arrayINS_5scene12ISkinnedMesh12SRotationKeyENS0_12irrAllocatorIS4_EEEixEj(%"class.irr::core::array.32"* %372, i32 %374)
  %376 = getelementptr inbounds %"struct.irr::scene::ISkinnedMesh::SRotationKey"* %375, i32 0, i32 0
  %377 = load float* %376, align 4
  %378 = load float* %2, align 4
  %379 = fcmp oge float %377, %378
  br i1 %379, label %380, label %393

; <label>:380                                     ; preds = %371
  %381 = load %"class.irr::core::array.32"** %RotationKeys, align 8
  %382 = load i32** %9, align 8
  %383 = load i32* %382, align 4
  %384 = sub nsw i32 %383, 1
  %385 = call dereferenceable(20) %"struct.irr::scene::ISkinnedMesh::SRotationKey"* @_ZNK3irr4core5arrayINS_5scene12ISkinnedMesh12SRotationKeyENS0_12irrAllocatorIS4_EEEixEj(%"class.irr::core::array.32"* %381, i32 %384)
  %386 = getelementptr inbounds %"struct.irr::scene::ISkinnedMesh::SRotationKey"* %385, i32 0, i32 0
  %387 = load float* %386, align 4
  %388 = load float* %2, align 4
  %389 = fcmp olt float %387, %388
  br i1 %389, label %390, label %393

; <label>:390                                     ; preds = %380
  %391 = load i32** %9, align 8
  %392 = load i32* %391, align 4
  store i32 %392, i32* %foundRotationIndex, align 4
  br label %428

; <label>:393                                     ; preds = %380, %371, %367
  %394 = load i32** %9, align 8
  %395 = load i32* %394, align 4
  %396 = add nsw i32 %395, 1
  %397 = load %"class.irr::core::array.32"** %RotationKeys, align 8
  %398 = call i32 @_ZNK3irr4core5arrayINS_5scene12ISkinnedMesh12SRotationKeyENS0_12irrAllocatorIS4_EEE4sizeEv(%"class.irr::core::array.32"* %397)
  %399 = icmp slt i32 %396, %398
  br i1 %399, label %400, label %427

; <label>:400                                     ; preds = %393
  %401 = load %"class.irr::core::array.32"** %RotationKeys, align 8
  %402 = load i32** %9, align 8
  %403 = load i32* %402, align 4
  %404 = add nsw i32 %403, 1
  %405 = call dereferenceable(20) %"struct.irr::scene::ISkinnedMesh::SRotationKey"* @_ZNK3irr4core5arrayINS_5scene12ISkinnedMesh12SRotationKeyENS0_12irrAllocatorIS4_EEEixEj(%"class.irr::core::array.32"* %401, i32 %404)
  %406 = getelementptr inbounds %"struct.irr::scene::ISkinnedMesh::SRotationKey"* %405, i32 0, i32 0
  %407 = load float* %406, align 4
  %408 = load float* %2, align 4
  %409 = fcmp oge float %407, %408
  br i1 %409, label %410, label %426

; <label>:410                                     ; preds = %400
  %411 = load %"class.irr::core::array.32"** %RotationKeys, align 8
  %412 = load i32** %9, align 8
  %413 = load i32* %412, align 4
  %414 = add nsw i32 %413, 0
  %415 = call dereferenceable(20) %"struct.irr::scene::ISkinnedMesh::SRotationKey"* @_ZNK3irr4core5arrayINS_5scene12ISkinnedMesh12SRotationKeyENS0_12irrAllocatorIS4_EEEixEj(%"class.irr::core::array.32"* %411, i32 %414)
  %416 = getelementptr inbounds %"struct.irr::scene::ISkinnedMesh::SRotationKey"* %415, i32 0, i32 0
  %417 = load float* %416, align 4
  %418 = load float* %2, align 4
  %419 = fcmp olt float %417, %418
  br i1 %419, label %420, label %426

; <label>:420                                     ; preds = %410
  %421 = load i32** %9, align 8
  %422 = load i32* %421, align 4
  %423 = add nsw i32 %422, 1
  store i32 %423, i32* %421, align 4
  %424 = load i32** %9, align 8
  %425 = load i32* %424, align 4
  store i32 %425, i32* %foundRotationIndex, align 4
  br label %426

; <label>:426                                     ; preds = %420, %410, %400
  br label %427

; <label>:427                                     ; preds = %426, %393
  br label %428

; <label>:428                                     ; preds = %427, %390
  br label %429

; <label>:429                                     ; preds = %428, %361, %357
  %430 = load i32* %foundRotationIndex, align 4
  %431 = icmp eq i32 %430, -1
  br i1 %431, label %432, label %455

; <label>:432                                     ; preds = %429
  store i32 0, i32* %i6, align 4
  br label %433

; <label>:433                                     ; preds = %451, %432
  %434 = load i32* %i6, align 4
  %435 = load %"class.irr::core::array.32"** %RotationKeys, align 8
  %436 = call i32 @_ZNK3irr4core5arrayINS_5scene12ISkinnedMesh12SRotationKeyENS0_12irrAllocatorIS4_EEE4sizeEv(%"class.irr::core::array.32"* %435)
  %437 = icmp ult i32 %434, %436
  br i1 %437, label %438, label %454

; <label>:438                                     ; preds = %433
  %439 = load %"class.irr::core::array.32"** %RotationKeys, align 8
  %440 = load i32* %i6, align 4
  %441 = call dereferenceable(20) %"struct.irr::scene::ISkinnedMesh::SRotationKey"* @_ZNK3irr4core5arrayINS_5scene12ISkinnedMesh12SRotationKeyENS0_12irrAllocatorIS4_EEEixEj(%"class.irr::core::array.32"* %439, i32 %440)
  %442 = getelementptr inbounds %"struct.irr::scene::ISkinnedMesh::SRotationKey"* %441, i32 0, i32 0
  %443 = load float* %442, align 4
  %444 = load float* %2, align 4
  %445 = fcmp oge float %443, %444
  br i1 %445, label %446, label %450

; <label>:446                                     ; preds = %438
  %447 = load i32* %i6, align 4
  store i32 %447, i32* %foundRotationIndex, align 4
  %448 = load i32* %i6, align 4
  %449 = load i32** %9, align 8
  store i32 %448, i32* %449, align 4
  br label %454

; <label>:450                                     ; preds = %438
  br label %451

; <label>:451                                     ; preds = %450
  %452 = load i32* %i6, align 4
  %453 = add i32 %452, 1
  store i32 %453, i32* %i6, align 4
  br label %433

; <label>:454                                     ; preds = %446, %433
  br label %455

; <label>:455                                     ; preds = %454, %429
  %456 = load i32* %foundRotationIndex, align 4
  %457 = icmp ne i32 %456, -1
  br i1 %457, label %458, label %524

; <label>:458                                     ; preds = %455
  %459 = getelementptr inbounds %"class.irr::scene::CSkinnedMesh"* %20, i32 0, i32 11
  %460 = load i8* %459, align 1
  %461 = zext i8 %460 to i32
  %462 = icmp eq i32 %461, 0
  br i1 %462, label %466, label %463

; <label>:463                                     ; preds = %458
  %464 = load i32* %foundRotationIndex, align 4
  %465 = icmp eq i32 %464, 0
  br i1 %465, label %466, label %473

; <label>:466                                     ; preds = %463, %458
  %467 = load %"class.irr::core::quaternion"** %8, align 8
  %468 = load %"class.irr::core::array.32"** %RotationKeys, align 8
  %469 = load i32* %foundRotationIndex, align 4
  %470 = call dereferenceable(20) %"struct.irr::scene::ISkinnedMesh::SRotationKey"* @_ZNK3irr4core5arrayINS_5scene12ISkinnedMesh12SRotationKeyENS0_12irrAllocatorIS4_EEEixEj(%"class.irr::core::array.32"* %468, i32 %469)
  %471 = getelementptr inbounds %"struct.irr::scene::ISkinnedMesh::SRotationKey"* %470, i32 0, i32 1
  %472 = call dereferenceable(16) %"class.irr::core::quaternion"* @_ZN3irr4core10quaternionaSERKS1_(%"class.irr::core::quaternion"* %467, %"class.irr::core::quaternion"* dereferenceable(16) %471)
  br label %523

; <label>:473                                     ; preds = %463
  %474 = getelementptr inbounds %"class.irr::scene::CSkinnedMesh"* %20, i32 0, i32 11
  %475 = load i8* %474, align 1
  %476 = zext i8 %475 to i32
  %477 = icmp eq i32 %476, 1
  br i1 %477, label %478, label %522

; <label>:478                                     ; preds = %473
  %479 = load %"class.irr::core::array.32"** %RotationKeys, align 8
  %480 = load i32* %foundRotationIndex, align 4
  %481 = call dereferenceable(20) %"struct.irr::scene::ISkinnedMesh::SRotationKey"* @_ZNK3irr4core5arrayINS_5scene12ISkinnedMesh12SRotationKeyENS0_12irrAllocatorIS4_EEEixEj(%"class.irr::core::array.32"* %479, i32 %480)
  store %"struct.irr::scene::ISkinnedMesh::SRotationKey"* %481, %"struct.irr::scene::ISkinnedMesh::SRotationKey"** %KeyA7, align 8
  %482 = load %"class.irr::core::array.32"** %RotationKeys, align 8
  %483 = load i32* %foundRotationIndex, align 4
  %484 = sub nsw i32 %483, 1
  %485 = call dereferenceable(20) %"struct.irr::scene::ISkinnedMesh::SRotationKey"* @_ZNK3irr4core5arrayINS_5scene12ISkinnedMesh12SRotationKeyENS0_12irrAllocatorIS4_EEEixEj(%"class.irr::core::array.32"* %482, i32 %484)
  store %"struct.irr::scene::ISkinnedMesh::SRotationKey"* %485, %"struct.irr::scene::ISkinnedMesh::SRotationKey"** %KeyB8, align 8
  %486 = load float* %2, align 4
  %487 = load %"struct.irr::scene::ISkinnedMesh::SRotationKey"** %KeyA7, align 8
  %488 = getelementptr inbounds %"struct.irr::scene::ISkinnedMesh::SRotationKey"* %487, i32 0, i32 0
  %489 = load float* %488, align 4
  %490 = fsub float %486, %489
  store float %490, float* %fd19, align 4
  %491 = load %"struct.irr::scene::ISkinnedMesh::SRotationKey"** %KeyB8, align 8
  %492 = getelementptr inbounds %"struct.irr::scene::ISkinnedMesh::SRotationKey"* %491, i32 0, i32 0
  %493 = load float* %492, align 4
  %494 = load float* %2, align 4
  %495 = fsub float %493, %494
  store float %495, float* %fd210, align 4
  %496 = load float* %fd19, align 4
  %497 = load float* %fd19, align 4
  %498 = load float* %fd210, align 4
  %499 = fadd float %497, %498
  %500 = fdiv float %496, %499
  store float %500, float* %t, align 4
  %501 = load %"class.irr::core::quaternion"** %8, align 8
  %502 = load %"struct.irr::scene::ISkinnedMesh::SRotationKey"** %KeyA7, align 8
  %503 = getelementptr inbounds %"struct.irr::scene::ISkinnedMesh::SRotationKey"* %502, i32 0, i32 1
  %504 = bitcast %"class.irr::core::quaternion"* %18 to i8*
  %505 = bitcast %"class.irr::core::quaternion"* %503 to i8*
  call void @llvm.memcpy.p0i8.p0i8.i64(i8* %504, i8* %505, i64 16, i32 4, i1 false)
  %506 = load %"struct.irr::scene::ISkinnedMesh::SRotationKey"** %KeyB8, align 8
  %507 = getelementptr inbounds %"struct.irr::scene::ISkinnedMesh::SRotationKey"* %506, i32 0, i32 1
  %508 = bitcast %"class.irr::core::quaternion"* %19 to i8*
  %509 = bitcast %"class.irr::core::quaternion"* %507 to i8*
  call void @llvm.memcpy.p0i8.p0i8.i64(i8* %508, i8* %509, i64 16, i32 4, i1 false)
  %510 = load float* %t, align 4
  %511 = bitcast %"class.irr::core::quaternion"* %18 to { <2 x float>, <2 x float> }*
  %512 = getelementptr { <2 x float>, <2 x float> }* %511, i32 0, i32 0
  %513 = load <2 x float>* %512, align 1
  %514 = getelementptr { <2 x float>, <2 x float> }* %511, i32 0, i32 1
  %515 = load <2 x float>* %514, align 1
  %516 = bitcast %"class.irr::core::quaternion"* %19 to { <2 x float>, <2 x float> }*
  %517 = getelementptr { <2 x float>, <2 x float> }* %516, i32 0, i32 0
  %518 = load <2 x float>* %517, align 1
  %519 = getelementptr { <2 x float>, <2 x float> }* %516, i32 0, i32 1
  %520 = load <2 x float>* %519, align 1
  %521 = call dereferenceable(16) %"class.irr::core::quaternion"* @_ZN3irr4core10quaternion5slerpES1_S1_ff(%"class.irr::core::quaternion"* %501, <2 x float> %513, <2 x float> %515, <2 x float> %518, <2 x float> %520, float %510, float 0x3FA99999A0000000)
  br label %522

; <label>:522                                     ; preds = %478, %473
  br label %523

; <label>:523                                     ; preds = %522, %466
  br label %524

; <label>:524                                     ; preds = %523, %455
  br label %525

; <label>:525                                     ; preds = %524, %353
  br label %526

; <label>:526                                     ; preds = %525, %0
  ret void
}

; Function Attrs: nounwind uwtable
define linkonce_odr dereferenceable(12) %"class.irr::core::vector3d"* @_ZN3irr4core8vector3dIfEaSERKS2_(%"class.irr::core::vector3d"* %this, %"class.irr::core::vector3d"* dereferenceable(12) %other) #3 align 2 {
  %1 = alloca %"class.irr::core::vector3d"*, align 8
  %2 = alloca %"class.irr::core::vector3d"*, align 8
  store %"class.irr::core::vector3d"* %this, %"class.irr::core::vector3d"** %1, align 8
  store %"class.irr::core::vector3d"* %other, %"class.irr::core::vector3d"** %2, align 8
  %3 = load %"class.irr::core::vector3d"** %1
  %4 = load %"class.irr::core::vector3d"** %2, align 8
  %5 = getelementptr inbounds %"class.irr::core::vector3d"* %4, i32 0, i32 0
  %6 = load float* %5, align 4
  %7 = getelementptr inbounds %"class.irr::core::vector3d"* %3, i32 0, i32 0
  store float %6, float* %7, align 4
  %8 = load %"class.irr::core::vector3d"** %2, align 8
  %9 = getelementptr inbounds %"class.irr::core::vector3d"* %8, i32 0, i32 1
  %10 = load float* %9, align 4
  %11 = getelementptr inbounds %"class.irr::core::vector3d"* %3, i32 0, i32 1
  store float %10, float* %11, align 4
  %12 = load %"class.irr::core::vector3d"** %2, align 8
  %13 = getelementptr inbounds %"class.irr::core::vector3d"* %12, i32 0, i32 2
  %14 = load float* %13, align 4
  %15 = getelementptr inbounds %"class.irr::core::vector3d"* %3, i32 0, i32 2
  store float %14, float* %15, align 4
  ret %"class.irr::core::vector3d"* %3
}

; Function Attrs: inlinehint nounwind uwtable
define linkonce_odr dereferenceable(16) %"class.irr::core::quaternion"* @_ZN3irr4core10quaternionaSERKS1_(%"class.irr::core::quaternion"* %this, %"class.irr::core::quaternion"* dereferenceable(16) %other) #5 align 2 {
  %1 = alloca %"class.irr::core::quaternion"*, align 8
  %2 = alloca %"class.irr::core::quaternion"*, align 8
  store %"class.irr::core::quaternion"* %this, %"class.irr::core::quaternion"** %1, align 8
  store %"class.irr::core::quaternion"* %other, %"class.irr::core::quaternion"** %2, align 8
  %3 = load %"class.irr::core::quaternion"** %1
  %4 = load %"class.irr::core::quaternion"** %2, align 8
  %5 = getelementptr inbounds %"class.irr::core::quaternion"* %4, i32 0, i32 0
  %6 = load float* %5, align 4
  %7 = getelementptr inbounds %"class.irr::core::quaternion"* %3, i32 0, i32 0
  store float %6, float* %7, align 4
  %8 = load %"class.irr::core::quaternion"** %2, align 8
  %9 = getelementptr inbounds %"class.irr::core::quaternion"* %8, i32 0, i32 1
  %10 = load float* %9, align 4
  %11 = getelementptr inbounds %"class.irr::core::quaternion"* %3, i32 0, i32 1
  store float %10, float* %11, align 4
  %12 = load %"class.irr::core::quaternion"** %2, align 8
  %13 = getelementptr inbounds %"class.irr::core::quaternion"* %12, i32 0, i32 2
  %14 = load float* %13, align 4
  %15 = getelementptr inbounds %"class.irr::core::quaternion"* %3, i32 0, i32 2
  store float %14, float* %15, align 4
  %16 = load %"class.irr::core::quaternion"** %2, align 8
  %17 = getelementptr inbounds %"class.irr::core::quaternion"* %16, i32 0, i32 3
  %18 = load float* %17, align 4
  %19 = getelementptr inbounds %"class.irr::core::quaternion"* %3, i32 0, i32 3
  store float %18, float* %19, align 4
  ret %"class.irr::core::quaternion"* %3
}

; Function Attrs: inlinehint uwtable
define linkonce_odr void @_ZN3irr4core4lerpINS0_8vector3dIfEEEET_RKS4_S6_f(%"class.irr::core::vector3d"* noalias sret %agg.result, %"class.irr::core::vector3d"* dereferenceable(12) %a, %"class.irr::core::vector3d"* dereferenceable(12) %b, float %t) #2 {
  %1 = alloca %"class.irr::core::vector3d"*, align 8
  %2 = alloca %"class.irr::core::vector3d"*, align 8
  %3 = alloca float, align 4
  %4 = alloca %"class.irr::core::vector3d", align 4
  %5 = alloca %"class.irr::core::vector3d", align 4
  store %"class.irr::core::vector3d"* %a, %"class.irr::core::vector3d"** %1, align 8
  store %"class.irr::core::vector3d"* %b, %"class.irr::core::vector3d"** %2, align 8
  store float %t, float* %3, align 4
  %6 = load %"class.irr::core::vector3d"** %1, align 8
  %7 = load float* %3, align 4
  %8 = fsub float 1.000000e+00, %7
  call void @_ZNK3irr4core8vector3dIfEmlEf(%"class.irr::core::vector3d"* sret %4, %"class.irr::core::vector3d"* %6, float %8)
  %9 = load %"class.irr::core::vector3d"** %2, align 8
  %10 = load float* %3, align 4
  call void @_ZNK3irr4core8vector3dIfEmlEf(%"class.irr::core::vector3d"* sret %5, %"class.irr::core::vector3d"* %9, float %10)
  call void @_ZNK3irr4core8vector3dIfEplERKS2_(%"class.irr::core::vector3d"* sret %agg.result, %"class.irr::core::vector3d"* %4, %"class.irr::core::vector3d"* dereferenceable(12) %5)
  ret void
}

; Function Attrs: inlinehint uwtable
define linkonce_odr dereferenceable(16) %"class.irr::core::quaternion"* @_ZN3irr4core10quaternion5slerpES1_S1_ff(%"class.irr::core::quaternion"* %this, <2 x float> %q1.coerce0, <2 x float> %q1.coerce1, <2 x float> %q2.coerce0, <2 x float> %q2.coerce1, float %time, float %threshold) #2 align 2 {
  %1 = alloca %"class.irr::core::quaternion"*, align 8
  %q1 = alloca %"class.irr::core::quaternion", align 8
  %q2 = alloca %"class.irr::core::quaternion", align 8
  %2 = alloca %"class.irr::core::quaternion"*, align 8
  %3 = alloca float, align 4
  %4 = alloca float, align 4
  %angle = alloca float, align 4
  %theta = alloca float, align 4
  %invsintheta = alloca float, align 4
  %scale = alloca float, align 4
  %invscale = alloca float, align 4
  %5 = alloca %"class.irr::core::quaternion", align 4
  %6 = alloca %"class.irr::core::quaternion", align 4
  %7 = alloca %"class.irr::core::quaternion", align 4
  %8 = alloca %"class.irr::core::quaternion", align 4
  %9 = alloca %"class.irr::core::quaternion", align 4
  %10 = bitcast %"class.irr::core::quaternion"* %q1 to { <2 x float>, <2 x float> }*
  %11 = getelementptr { <2 x float>, <2 x float> }* %10, i32 0, i32 0
  store <2 x float> %q1.coerce0, <2 x float>* %11
  %12 = getelementptr { <2 x float>, <2 x float> }* %10, i32 0, i32 1
  store <2 x float> %q1.coerce1, <2 x float>* %12
  %13 = bitcast %"class.irr::core::quaternion"* %q2 to { <2 x float>, <2 x float> }*
  %14 = getelementptr { <2 x float>, <2 x float> }* %13, i32 0, i32 0
  store <2 x float> %q2.coerce0, <2 x float>* %14
  %15 = getelementptr { <2 x float>, <2 x float> }* %13, i32 0, i32 1
  store <2 x float> %q2.coerce1, <2 x float>* %15
  store %"class.irr::core::quaternion"* %this, %"class.irr::core::quaternion"** %2, align 8
  store float %time, float* %3, align 4
  store float %threshold, float* %4, align 4
  %16 = load %"class.irr::core::quaternion"** %2
  %17 = call float @_ZNK3irr4core10quaternion10dotProductERKS1_(%"class.irr::core::quaternion"* %q1, %"class.irr::core::quaternion"* dereferenceable(16) %q2)
  store float %17, float* %angle, align 4
  %18 = load float* %angle, align 4
  %19 = fcmp olt float %18, 0.000000e+00
  br i1 %19, label %20, label %24

; <label>:20                                      ; preds = %0
  %21 = call dereferenceable(16) %"class.irr::core::quaternion"* @_ZN3irr4core10quaternionmLEf(%"class.irr::core::quaternion"* %q1, float -1.000000e+00)
  %22 = load float* %angle, align 4
  %23 = fmul float %22, -1.000000e+00
  store float %23, float* %angle, align 4
  br label %24

; <label>:24                                      ; preds = %20, %0
  %25 = load float* %angle, align 4
  %26 = load float* %4, align 4
  %27 = fsub float 1.000000e+00, %26
  %28 = fcmp ole float %25, %27
  br i1 %28, label %29, label %69

; <label>:29                                      ; preds = %24
  %30 = load float* %angle, align 4
  %31 = call float @acosf(float %30) #1
  store float %31, float* %theta, align 4
  %32 = load float* %theta, align 4
  %33 = call float @sinf(float %32) #1
  %34 = call float @_ZN3irr4core10reciprocalEf(float %33)
  store float %34, float* %invsintheta, align 4
  %35 = load float* %theta, align 4
  %36 = load float* %3, align 4
  %37 = fsub float 1.000000e+00, %36
  %38 = fmul float %35, %37
  %39 = call float @sinf(float %38) #1
  %40 = load float* %invsintheta, align 4
  %41 = fmul float %39, %40
  store float %41, float* %scale, align 4
  %42 = load float* %theta, align 4
  %43 = load float* %3, align 4
  %44 = fmul float %42, %43
  %45 = call float @sinf(float %44) #1
  %46 = load float* %invsintheta, align 4
  %47 = fmul float %45, %46
  store float %47, float* %invscale, align 4
  %48 = load float* %scale, align 4
  %49 = call { <2 x float>, <2 x float> } @_ZNK3irr4core10quaternionmlEf(%"class.irr::core::quaternion"* %q1, float %48)
  %50 = bitcast %"class.irr::core::quaternion"* %6 to { <2 x float>, <2 x float> }*
  %51 = getelementptr { <2 x float>, <2 x float> }* %50, i32 0, i32 0
  %52 = extractvalue { <2 x float>, <2 x float> } %49, 0
  store <2 x float> %52, <2 x float>* %51, align 1
  %53 = getelementptr { <2 x float>, <2 x float> }* %50, i32 0, i32 1
  %54 = extractvalue { <2 x float>, <2 x float> } %49, 1
  store <2 x float> %54, <2 x float>* %53, align 1
  %55 = load float* %invscale, align 4
  %56 = call { <2 x float>, <2 x float> } @_ZNK3irr4core10quaternionmlEf(%"class.irr::core::quaternion"* %q2, float %55)
  %57 = bitcast %"class.irr::core::quaternion"* %7 to { <2 x float>, <2 x float> }*
  %58 = getelementptr { <2 x float>, <2 x float> }* %57, i32 0, i32 0
  %59 = extractvalue { <2 x float>, <2 x float> } %56, 0
  store <2 x float> %59, <2 x float>* %58, align 1
  %60 = getelementptr { <2 x float>, <2 x float> }* %57, i32 0, i32 1
  %61 = extractvalue { <2 x float>, <2 x float> } %56, 1
  store <2 x float> %61, <2 x float>* %60, align 1
  %62 = call { <2 x float>, <2 x float> } @_ZNK3irr4core10quaternionplERKS1_(%"class.irr::core::quaternion"* %6, %"class.irr::core::quaternion"* dereferenceable(16) %7)
  %63 = bitcast %"class.irr::core::quaternion"* %5 to { <2 x float>, <2 x float> }*
  %64 = getelementptr { <2 x float>, <2 x float> }* %63, i32 0, i32 0
  %65 = extractvalue { <2 x float>, <2 x float> } %62, 0
  store <2 x float> %65, <2 x float>* %64, align 1
  %66 = getelementptr { <2 x float>, <2 x float> }* %63, i32 0, i32 1
  %67 = extractvalue { <2 x float>, <2 x float> } %62, 1
  store <2 x float> %67, <2 x float>* %66, align 1
  %68 = call dereferenceable(16) %"class.irr::core::quaternion"* @_ZN3irr4core10quaternionaSERKS1_(%"class.irr::core::quaternion"* %16, %"class.irr::core::quaternion"* dereferenceable(16) %5)
  store %"class.irr::core::quaternion"* %68, %"class.irr::core::quaternion"** %1
  br label %86

; <label>:69                                      ; preds = %24
  %70 = bitcast %"class.irr::core::quaternion"* %8 to i8*
  %71 = bitcast %"class.irr::core::quaternion"* %q1 to i8*
  call void @llvm.memcpy.p0i8.p0i8.i64(i8* %70, i8* %71, i64 16, i32 4, i1 false)
  %72 = bitcast %"class.irr::core::quaternion"* %9 to i8*
  %73 = bitcast %"class.irr::core::quaternion"* %q2 to i8*
  call void @llvm.memcpy.p0i8.p0i8.i64(i8* %72, i8* %73, i64 16, i32 4, i1 false)
  %74 = load float* %3, align 4
  %75 = bitcast %"class.irr::core::quaternion"* %8 to { <2 x float>, <2 x float> }*
  %76 = getelementptr { <2 x float>, <2 x float> }* %75, i32 0, i32 0
  %77 = load <2 x float>* %76, align 1
  %78 = getelementptr { <2 x float>, <2 x float> }* %75, i32 0, i32 1
  %79 = load <2 x float>* %78, align 1
  %80 = bitcast %"class.irr::core::quaternion"* %9 to { <2 x float>, <2 x float> }*
  %81 = getelementptr { <2 x float>, <2 x float> }* %80, i32 0, i32 0
  %82 = load <2 x float>* %81, align 1
  %83 = getelementptr { <2 x float>, <2 x float> }* %80, i32 0, i32 1
  %84 = load <2 x float>* %83, align 1
  %85 = call dereferenceable(16) %"class.irr::core::quaternion"* @_ZN3irr4core10quaternion4lerpES1_S1_f(%"class.irr::core::quaternion"* %16, <2 x float> %77, <2 x float> %79, <2 x float> %82, <2 x float> %84, float %74)
  store %"class.irr::core::quaternion"* %85, %"class.irr::core::quaternion"** %1
  br label %86

; <label>:86                                      ; preds = %69, %29
  %87 = load %"class.irr::core::quaternion"** %1
  ret %"class.irr::core::quaternion"* %87
}

; Function Attrs: uwtable
define void @_ZN3irr5scene12CSkinnedMesh29buildAllLocalAnimatedMatricesEv(%"class.irr::scene::CSkinnedMesh"* %this) #0 align 2 {
  %1 = alloca %"class.irr::scene::CSkinnedMesh"*, align 8
  %i = alloca i32, align 4
  %joint = alloca %"struct.irr::scene::ISkinnedMesh::SJoint"*, align 8
  %m1 = alloca float*, align 8
  %Pos = alloca %"class.irr::core::vector3d"*, align 8
  %mat = alloca %"class.irr::core::CMatrix4"*, align 8
  store %"class.irr::scene::CSkinnedMesh"* %this, %"class.irr::scene::CSkinnedMesh"** %1, align 8
  %2 = load %"class.irr::scene::CSkinnedMesh"** %1
  store i32 0, i32* %i, align 4
  br label %3

; <label>:3                                       ; preds = %293, %0
  %4 = load i32* %i, align 4
  %5 = getelementptr inbounds %"class.irr::scene::CSkinnedMesh"* %2, i32 0, i32 3
  %6 = call i32 @_ZNK3irr4core5arrayIPNS_5scene12ISkinnedMesh6SJointENS0_12irrAllocatorIS5_EEE4sizeEv(%"class.irr::core::array.14"* %5)
  %7 = icmp ult i32 %4, %6
  br i1 %7, label %8, label %296

; <label>:8                                       ; preds = %3
  %9 = getelementptr inbounds %"class.irr::scene::CSkinnedMesh"* %2, i32 0, i32 3
  %10 = load i32* %i, align 4
  %11 = call dereferenceable(8) %"struct.irr::scene::ISkinnedMesh::SJoint"** @_ZN3irr4core5arrayIPNS_5scene12ISkinnedMesh6SJointENS0_12irrAllocatorIS5_EEEixEj(%"class.irr::core::array.14"* %9, i32 %10)
  %12 = load %"struct.irr::scene::ISkinnedMesh::SJoint"** %11
  store %"struct.irr::scene::ISkinnedMesh::SJoint"* %12, %"struct.irr::scene::ISkinnedMesh::SJoint"** %joint, align 8
  %13 = load %"struct.irr::scene::ISkinnedMesh::SJoint"** %joint, align 8
  %14 = getelementptr inbounds %"struct.irr::scene::ISkinnedMesh::SJoint"* %13, i32 0, i32 15
  %15 = load %"struct.irr::scene::ISkinnedMesh::SJoint"** %14, align 8
  %16 = icmp ne %"struct.irr::scene::ISkinnedMesh::SJoint"* %15, null
  br i1 %16, label %17, label %286

; <label>:17                                      ; preds = %8
  %18 = load %"struct.irr::scene::ISkinnedMesh::SJoint"** %joint, align 8
  %19 = getelementptr inbounds %"struct.irr::scene::ISkinnedMesh::SJoint"* %18, i32 0, i32 15
  %20 = load %"struct.irr::scene::ISkinnedMesh::SJoint"** %19, align 8
  %21 = getelementptr inbounds %"struct.irr::scene::ISkinnedMesh::SJoint"* %20, i32 0, i32 4
  %22 = call i32 @_ZNK3irr4core5arrayINS_5scene12ISkinnedMesh12SPositionKeyENS0_12irrAllocatorIS4_EEE4sizeEv(%"class.irr::core::array.26"* %21)
  %23 = icmp ne i32 %22, 0
  br i1 %23, label %38, label %24

; <label>:24                                      ; preds = %17
  %25 = load %"struct.irr::scene::ISkinnedMesh::SJoint"** %joint, align 8
  %26 = getelementptr inbounds %"struct.irr::scene::ISkinnedMesh::SJoint"* %25, i32 0, i32 15
  %27 = load %"struct.irr::scene::ISkinnedMesh::SJoint"** %26, align 8
  %28 = getelementptr inbounds %"struct.irr::scene::ISkinnedMesh::SJoint"* %27, i32 0, i32 5
  %29 = call i32 @_ZNK3irr4core5arrayINS_5scene12ISkinnedMesh9SScaleKeyENS0_12irrAllocatorIS4_EEE4sizeEv(%"class.irr::core::array.29"* %28)
  %30 = icmp ne i32 %29, 0
  br i1 %30, label %38, label %31

; <label>:31                                      ; preds = %24
  %32 = load %"struct.irr::scene::ISkinnedMesh::SJoint"** %joint, align 8
  %33 = getelementptr inbounds %"struct.irr::scene::ISkinnedMesh::SJoint"* %32, i32 0, i32 15
  %34 = load %"struct.irr::scene::ISkinnedMesh::SJoint"** %33, align 8
  %35 = getelementptr inbounds %"struct.irr::scene::ISkinnedMesh::SJoint"* %34, i32 0, i32 6
  %36 = call i32 @_ZNK3irr4core5arrayINS_5scene12ISkinnedMesh12SRotationKeyENS0_12irrAllocatorIS4_EEE4sizeEv(%"class.irr::core::array.32"* %35)
  %37 = icmp ne i32 %36, 0
  br i1 %37, label %38, label %286

; <label>:38                                      ; preds = %31, %24, %17
  %39 = load %"struct.irr::scene::ISkinnedMesh::SJoint"** %joint, align 8
  %40 = getelementptr inbounds %"struct.irr::scene::ISkinnedMesh::SJoint"* %39, i32 0, i32 16
  store i8 0, i8* %40, align 1
  %41 = load %"struct.irr::scene::ISkinnedMesh::SJoint"** %joint, align 8
  %42 = getelementptr inbounds %"struct.irr::scene::ISkinnedMesh::SJoint"* %41, i32 0, i32 13
  %43 = load %"struct.irr::scene::ISkinnedMesh::SJoint"** %joint, align 8
  %44 = getelementptr inbounds %"struct.irr::scene::ISkinnedMesh::SJoint"* %43, i32 0, i32 10
  call void @_ZNK3irr4core10quaternion20getMatrix_transposedERNS0_8CMatrix4IfEE(%"class.irr::core::quaternion"* %42, %"class.irr::core::CMatrix4"* dereferenceable(64) %44)
  %45 = load %"struct.irr::scene::ISkinnedMesh::SJoint"** %joint, align 8
  %46 = getelementptr inbounds %"struct.irr::scene::ISkinnedMesh::SJoint"* %45, i32 0, i32 10
  %47 = call float* @_ZN3irr4core8CMatrix4IfE7pointerEv(%"class.irr::core::CMatrix4"* %46)
  store float* %47, float** %m1, align 8
  %48 = load %"struct.irr::scene::ISkinnedMesh::SJoint"** %joint, align 8
  %49 = getelementptr inbounds %"struct.irr::scene::ISkinnedMesh::SJoint"* %48, i32 0, i32 11
  store %"class.irr::core::vector3d"* %49, %"class.irr::core::vector3d"** %Pos, align 8
  %50 = load %"class.irr::core::vector3d"** %Pos, align 8
  %51 = getelementptr inbounds %"class.irr::core::vector3d"* %50, i32 0, i32 0
  %52 = load float* %51, align 4
  %53 = load float** %m1, align 8
  %54 = getelementptr inbounds float* %53, i64 3
  %55 = load float* %54, align 4
  %56 = fmul float %52, %55
  %57 = load float** %m1, align 8
  %58 = getelementptr inbounds float* %57, i64 0
  %59 = load float* %58, align 4
  %60 = fadd float %59, %56
  store float %60, float* %58, align 4
  %61 = load %"class.irr::core::vector3d"** %Pos, align 8
  %62 = getelementptr inbounds %"class.irr::core::vector3d"* %61, i32 0, i32 1
  %63 = load float* %62, align 4
  %64 = load float** %m1, align 8
  %65 = getelementptr inbounds float* %64, i64 3
  %66 = load float* %65, align 4
  %67 = fmul float %63, %66
  %68 = load float** %m1, align 8
  %69 = getelementptr inbounds float* %68, i64 1
  %70 = load float* %69, align 4
  %71 = fadd float %70, %67
  store float %71, float* %69, align 4
  %72 = load %"class.irr::core::vector3d"** %Pos, align 8
  %73 = getelementptr inbounds %"class.irr::core::vector3d"* %72, i32 0, i32 2
  %74 = load float* %73, align 4
  %75 = load float** %m1, align 8
  %76 = getelementptr inbounds float* %75, i64 3
  %77 = load float* %76, align 4
  %78 = fmul float %74, %77
  %79 = load float** %m1, align 8
  %80 = getelementptr inbounds float* %79, i64 2
  %81 = load float* %80, align 4
  %82 = fadd float %81, %78
  store float %82, float* %80, align 4
  %83 = load %"class.irr::core::vector3d"** %Pos, align 8
  %84 = getelementptr inbounds %"class.irr::core::vector3d"* %83, i32 0, i32 0
  %85 = load float* %84, align 4
  %86 = load float** %m1, align 8
  %87 = getelementptr inbounds float* %86, i64 7
  %88 = load float* %87, align 4
  %89 = fmul float %85, %88
  %90 = load float** %m1, align 8
  %91 = getelementptr inbounds float* %90, i64 4
  %92 = load float* %91, align 4
  %93 = fadd float %92, %89
  store float %93, float* %91, align 4
  %94 = load %"class.irr::core::vector3d"** %Pos, align 8
  %95 = getelementptr inbounds %"class.irr::core::vector3d"* %94, i32 0, i32 1
  %96 = load float* %95, align 4
  %97 = load float** %m1, align 8
  %98 = getelementptr inbounds float* %97, i64 7
  %99 = load float* %98, align 4
  %100 = fmul float %96, %99
  %101 = load float** %m1, align 8
  %102 = getelementptr inbounds float* %101, i64 5
  %103 = load float* %102, align 4
  %104 = fadd float %103, %100
  store float %104, float* %102, align 4
  %105 = load %"class.irr::core::vector3d"** %Pos, align 8
  %106 = getelementptr inbounds %"class.irr::core::vector3d"* %105, i32 0, i32 2
  %107 = load float* %106, align 4
  %108 = load float** %m1, align 8
  %109 = getelementptr inbounds float* %108, i64 7
  %110 = load float* %109, align 4
  %111 = fmul float %107, %110
  %112 = load float** %m1, align 8
  %113 = getelementptr inbounds float* %112, i64 6
  %114 = load float* %113, align 4
  %115 = fadd float %114, %111
  store float %115, float* %113, align 4
  %116 = load %"class.irr::core::vector3d"** %Pos, align 8
  %117 = getelementptr inbounds %"class.irr::core::vector3d"* %116, i32 0, i32 0
  %118 = load float* %117, align 4
  %119 = load float** %m1, align 8
  %120 = getelementptr inbounds float* %119, i64 11
  %121 = load float* %120, align 4
  %122 = fmul float %118, %121
  %123 = load float** %m1, align 8
  %124 = getelementptr inbounds float* %123, i64 8
  %125 = load float* %124, align 4
  %126 = fadd float %125, %122
  store float %126, float* %124, align 4
  %127 = load %"class.irr::core::vector3d"** %Pos, align 8
  %128 = getelementptr inbounds %"class.irr::core::vector3d"* %127, i32 0, i32 1
  %129 = load float* %128, align 4
  %130 = load float** %m1, align 8
  %131 = getelementptr inbounds float* %130, i64 11
  %132 = load float* %131, align 4
  %133 = fmul float %129, %132
  %134 = load float** %m1, align 8
  %135 = getelementptr inbounds float* %134, i64 9
  %136 = load float* %135, align 4
  %137 = fadd float %136, %133
  store float %137, float* %135, align 4
  %138 = load %"class.irr::core::vector3d"** %Pos, align 8
  %139 = getelementptr inbounds %"class.irr::core::vector3d"* %138, i32 0, i32 2
  %140 = load float* %139, align 4
  %141 = load float** %m1, align 8
  %142 = getelementptr inbounds float* %141, i64 11
  %143 = load float* %142, align 4
  %144 = fmul float %140, %143
  %145 = load float** %m1, align 8
  %146 = getelementptr inbounds float* %145, i64 10
  %147 = load float* %146, align 4
  %148 = fadd float %147, %144
  store float %148, float* %146, align 4
  %149 = load %"class.irr::core::vector3d"** %Pos, align 8
  %150 = getelementptr inbounds %"class.irr::core::vector3d"* %149, i32 0, i32 0
  %151 = load float* %150, align 4
  %152 = load float** %m1, align 8
  %153 = getelementptr inbounds float* %152, i64 15
  %154 = load float* %153, align 4
  %155 = fmul float %151, %154
  %156 = load float** %m1, align 8
  %157 = getelementptr inbounds float* %156, i64 12
  %158 = load float* %157, align 4
  %159 = fadd float %158, %155
  store float %159, float* %157, align 4
  %160 = load %"class.irr::core::vector3d"** %Pos, align 8
  %161 = getelementptr inbounds %"class.irr::core::vector3d"* %160, i32 0, i32 1
  %162 = load float* %161, align 4
  %163 = load float** %m1, align 8
  %164 = getelementptr inbounds float* %163, i64 15
  %165 = load float* %164, align 4
  %166 = fmul float %162, %165
  %167 = load float** %m1, align 8
  %168 = getelementptr inbounds float* %167, i64 13
  %169 = load float* %168, align 4
  %170 = fadd float %169, %166
  store float %170, float* %168, align 4
  %171 = load %"class.irr::core::vector3d"** %Pos, align 8
  %172 = getelementptr inbounds %"class.irr::core::vector3d"* %171, i32 0, i32 2
  %173 = load float* %172, align 4
  %174 = load float** %m1, align 8
  %175 = getelementptr inbounds float* %174, i64 15
  %176 = load float* %175, align 4
  %177 = fmul float %173, %176
  %178 = load float** %m1, align 8
  %179 = getelementptr inbounds float* %178, i64 14
  %180 = load float* %179, align 4
  %181 = fadd float %180, %177
  store float %181, float* %179, align 4
  %182 = load %"struct.irr::scene::ISkinnedMesh::SJoint"** %joint, align 8
  %183 = getelementptr inbounds %"struct.irr::scene::ISkinnedMesh::SJoint"* %182, i32 0, i32 5
  %184 = call i32 @_ZNK3irr4core5arrayINS_5scene12ISkinnedMesh9SScaleKeyENS0_12irrAllocatorIS4_EEE4sizeEv(%"class.irr::core::array.29"* %183)
  %185 = icmp ne i32 %184, 0
  br i1 %185, label %186, label %285

; <label>:186                                     ; preds = %38
  %187 = load %"struct.irr::scene::ISkinnedMesh::SJoint"** %joint, align 8
  %188 = getelementptr inbounds %"struct.irr::scene::ISkinnedMesh::SJoint"* %187, i32 0, i32 10
  store %"class.irr::core::CMatrix4"* %188, %"class.irr::core::CMatrix4"** %mat, align 8
  %189 = load %"struct.irr::scene::ISkinnedMesh::SJoint"** %joint, align 8
  %190 = getelementptr inbounds %"struct.irr::scene::ISkinnedMesh::SJoint"* %189, i32 0, i32 12
  %191 = getelementptr inbounds %"class.irr::core::vector3d"* %190, i32 0, i32 0
  %192 = load float* %191, align 4
  %193 = load %"class.irr::core::CMatrix4"** %mat, align 8
  %194 = call dereferenceable(4) float* @_ZN3irr4core8CMatrix4IfEixEj(%"class.irr::core::CMatrix4"* %193, i32 0)
  %195 = load float* %194
  %196 = fmul float %195, %192
  store float %196, float* %194
  %197 = load %"struct.irr::scene::ISkinnedMesh::SJoint"** %joint, align 8
  %198 = getelementptr inbounds %"struct.irr::scene::ISkinnedMesh::SJoint"* %197, i32 0, i32 12
  %199 = getelementptr inbounds %"class.irr::core::vector3d"* %198, i32 0, i32 0
  %200 = load float* %199, align 4
  %201 = load %"class.irr::core::CMatrix4"** %mat, align 8
  %202 = call dereferenceable(4) float* @_ZN3irr4core8CMatrix4IfEixEj(%"class.irr::core::CMatrix4"* %201, i32 1)
  %203 = load float* %202
  %204 = fmul float %203, %200
  store float %204, float* %202
  %205 = load %"struct.irr::scene::ISkinnedMesh::SJoint"** %joint, align 8
  %206 = getelementptr inbounds %"struct.irr::scene::ISkinnedMesh::SJoint"* %205, i32 0, i32 12
  %207 = getelementptr inbounds %"class.irr::core::vector3d"* %206, i32 0, i32 0
  %208 = load float* %207, align 4
  %209 = load %"class.irr::core::CMatrix4"** %mat, align 8
  %210 = call dereferenceable(4) float* @_ZN3irr4core8CMatrix4IfEixEj(%"class.irr::core::CMatrix4"* %209, i32 2)
  %211 = load float* %210
  %212 = fmul float %211, %208
  store float %212, float* %210
  %213 = load %"struct.irr::scene::ISkinnedMesh::SJoint"** %joint, align 8
  %214 = getelementptr inbounds %"struct.irr::scene::ISkinnedMesh::SJoint"* %213, i32 0, i32 12
  %215 = getelementptr inbounds %"class.irr::core::vector3d"* %214, i32 0, i32 0
  %216 = load float* %215, align 4
  %217 = load %"class.irr::core::CMatrix4"** %mat, align 8
  %218 = call dereferenceable(4) float* @_ZN3irr4core8CMatrix4IfEixEj(%"class.irr::core::CMatrix4"* %217, i32 3)
  %219 = load float* %218
  %220 = fmul float %219, %216
  store float %220, float* %218
  %221 = load %"struct.irr::scene::ISkinnedMesh::SJoint"** %joint, align 8
  %222 = getelementptr inbounds %"struct.irr::scene::ISkinnedMesh::SJoint"* %221, i32 0, i32 12
  %223 = getelementptr inbounds %"class.irr::core::vector3d"* %222, i32 0, i32 1
  %224 = load float* %223, align 4
  %225 = load %"class.irr::core::CMatrix4"** %mat, align 8
  %226 = call dereferenceable(4) float* @_ZN3irr4core8CMatrix4IfEixEj(%"class.irr::core::CMatrix4"* %225, i32 4)
  %227 = load float* %226
  %228 = fmul float %227, %224
  store float %228, float* %226
  %229 = load %"struct.irr::scene::ISkinnedMesh::SJoint"** %joint, align 8
  %230 = getelementptr inbounds %"struct.irr::scene::ISkinnedMesh::SJoint"* %229, i32 0, i32 12
  %231 = getelementptr inbounds %"class.irr::core::vector3d"* %230, i32 0, i32 1
  %232 = load float* %231, align 4
  %233 = load %"class.irr::core::CMatrix4"** %mat, align 8
  %234 = call dereferenceable(4) float* @_ZN3irr4core8CMatrix4IfEixEj(%"class.irr::core::CMatrix4"* %233, i32 5)
  %235 = load float* %234
  %236 = fmul float %235, %232
  store float %236, float* %234
  %237 = load %"struct.irr::scene::ISkinnedMesh::SJoint"** %joint, align 8
  %238 = getelementptr inbounds %"struct.irr::scene::ISkinnedMesh::SJoint"* %237, i32 0, i32 12
  %239 = getelementptr inbounds %"class.irr::core::vector3d"* %238, i32 0, i32 1
  %240 = load float* %239, align 4
  %241 = load %"class.irr::core::CMatrix4"** %mat, align 8
  %242 = call dereferenceable(4) float* @_ZN3irr4core8CMatrix4IfEixEj(%"class.irr::core::CMatrix4"* %241, i32 6)
  %243 = load float* %242
  %244 = fmul float %243, %240
  store float %244, float* %242
  %245 = load %"struct.irr::scene::ISkinnedMesh::SJoint"** %joint, align 8
  %246 = getelementptr inbounds %"struct.irr::scene::ISkinnedMesh::SJoint"* %245, i32 0, i32 12
  %247 = getelementptr inbounds %"class.irr::core::vector3d"* %246, i32 0, i32 1
  %248 = load float* %247, align 4
  %249 = load %"class.irr::core::CMatrix4"** %mat, align 8
  %250 = call dereferenceable(4) float* @_ZN3irr4core8CMatrix4IfEixEj(%"class.irr::core::CMatrix4"* %249, i32 7)
  %251 = load float* %250
  %252 = fmul float %251, %248
  store float %252, float* %250
  %253 = load %"struct.irr::scene::ISkinnedMesh::SJoint"** %joint, align 8
  %254 = getelementptr inbounds %"struct.irr::scene::ISkinnedMesh::SJoint"* %253, i32 0, i32 12
  %255 = getelementptr inbounds %"class.irr::core::vector3d"* %254, i32 0, i32 2
  %256 = load float* %255, align 4
  %257 = load %"class.irr::core::CMatrix4"** %mat, align 8
  %258 = call dereferenceable(4) float* @_ZN3irr4core8CMatrix4IfEixEj(%"class.irr::core::CMatrix4"* %257, i32 8)
  %259 = load float* %258
  %260 = fmul float %259, %256
  store float %260, float* %258
  %261 = load %"struct.irr::scene::ISkinnedMesh::SJoint"** %joint, align 8
  %262 = getelementptr inbounds %"struct.irr::scene::ISkinnedMesh::SJoint"* %261, i32 0, i32 12
  %263 = getelementptr inbounds %"class.irr::core::vector3d"* %262, i32 0, i32 2
  %264 = load float* %263, align 4
  %265 = load %"class.irr::core::CMatrix4"** %mat, align 8
  %266 = call dereferenceable(4) float* @_ZN3irr4core8CMatrix4IfEixEj(%"class.irr::core::CMatrix4"* %265, i32 9)
  %267 = load float* %266
  %268 = fmul float %267, %264
  store float %268, float* %266
  %269 = load %"struct.irr::scene::ISkinnedMesh::SJoint"** %joint, align 8
  %270 = getelementptr inbounds %"struct.irr::scene::ISkinnedMesh::SJoint"* %269, i32 0, i32 12
  %271 = getelementptr inbounds %"class.irr::core::vector3d"* %270, i32 0, i32 2
  %272 = load float* %271, align 4
  %273 = load %"class.irr::core::CMatrix4"** %mat, align 8
  %274 = call dereferenceable(4) float* @_ZN3irr4core8CMatrix4IfEixEj(%"class.irr::core::CMatrix4"* %273, i32 10)
  %275 = load float* %274
  %276 = fmul float %275, %272
  store float %276, float* %274
  %277 = load %"struct.irr::scene::ISkinnedMesh::SJoint"** %joint, align 8
  %278 = getelementptr inbounds %"struct.irr::scene::ISkinnedMesh::SJoint"* %277, i32 0, i32 12
  %279 = getelementptr inbounds %"class.irr::core::vector3d"* %278, i32 0, i32 2
  %280 = load float* %279, align 4
  %281 = load %"class.irr::core::CMatrix4"** %mat, align 8
  %282 = call dereferenceable(4) float* @_ZN3irr4core8CMatrix4IfEixEj(%"class.irr::core::CMatrix4"* %281, i32 11)
  %283 = load float* %282
  %284 = fmul float %283, %280
  store float %284, float* %282
  br label %285

; <label>:285                                     ; preds = %186, %38
  br label %292

; <label>:286                                     ; preds = %31, %8
  %287 = load %"struct.irr::scene::ISkinnedMesh::SJoint"** %joint, align 8
  %288 = getelementptr inbounds %"struct.irr::scene::ISkinnedMesh::SJoint"* %287, i32 0, i32 10
  %289 = load %"struct.irr::scene::ISkinnedMesh::SJoint"** %joint, align 8
  %290 = getelementptr inbounds %"struct.irr::scene::ISkinnedMesh::SJoint"* %289, i32 0, i32 1
  %291 = call dereferenceable(64) %"class.irr::core::CMatrix4"* @_ZN3irr4core8CMatrix4IfEaSERKS2_(%"class.irr::core::CMatrix4"* %288, %"class.irr::core::CMatrix4"* dereferenceable(64) %290)
  br label %292

; <label>:292                                     ; preds = %286, %285
  br label %293

; <label>:293                                     ; preds = %292
  %294 = load i32* %i, align 4
  %295 = add i32 %294, 1
  store i32 %295, i32* %i, align 4
  br label %3

; <label>:296                                     ; preds = %3
  %297 = getelementptr inbounds %"class.irr::scene::CSkinnedMesh"* %2, i32 0, i32 10
  store i8 0, i8* %297, align 1
  ret void
}

; Function Attrs: nounwind uwtable
define linkonce_odr i32 @_ZNK3irr4core5arrayINS_5scene12ISkinnedMesh12SPositionKeyENS0_12irrAllocatorIS4_EEE4sizeEv(%"class.irr::core::array.26"* %this) #3 align 2 {
  %1 = alloca %"class.irr::core::array.26"*, align 8
  store %"class.irr::core::array.26"* %this, %"class.irr::core::array.26"** %1, align 8
  %2 = load %"class.irr::core::array.26"** %1
  %3 = getelementptr inbounds %"class.irr::core::array.26"* %2, i32 0, i32 2
  %4 = load i32* %3, align 4
  ret i32 %4
}

; Function Attrs: nounwind uwtable
define linkonce_odr i32 @_ZNK3irr4core5arrayINS_5scene12ISkinnedMesh9SScaleKeyENS0_12irrAllocatorIS4_EEE4sizeEv(%"class.irr::core::array.29"* %this) #3 align 2 {
  %1 = alloca %"class.irr::core::array.29"*, align 8
  store %"class.irr::core::array.29"* %this, %"class.irr::core::array.29"** %1, align 8
  %2 = load %"class.irr::core::array.29"** %1
  %3 = getelementptr inbounds %"class.irr::core::array.29"* %2, i32 0, i32 2
  %4 = load i32* %3, align 4
  ret i32 %4
}

; Function Attrs: nounwind uwtable
define linkonce_odr i32 @_ZNK3irr4core5arrayINS_5scene12ISkinnedMesh12SRotationKeyENS0_12irrAllocatorIS4_EEE4sizeEv(%"class.irr::core::array.32"* %this) #3 align 2 {
  %1 = alloca %"class.irr::core::array.32"*, align 8
  store %"class.irr::core::array.32"* %this, %"class.irr::core::array.32"** %1, align 8
  %2 = load %"class.irr::core::array.32"** %1
  %3 = getelementptr inbounds %"class.irr::core::array.32"* %2, i32 0, i32 2
  %4 = load i32* %3, align 4
  ret i32 %4
}

; Function Attrs: inlinehint uwtable
define linkonce_odr void @_ZNK3irr4core10quaternion20getMatrix_transposedERNS0_8CMatrix4IfEE(%"class.irr::core::quaternion"* %this, %"class.irr::core::CMatrix4"* dereferenceable(64) %dest) #2 align 2 {
  %1 = alloca %"class.irr::core::quaternion"*, align 8
  %2 = alloca %"class.irr::core::CMatrix4"*, align 8
  store %"class.irr::core::quaternion"* %this, %"class.irr::core::quaternion"** %1, align 8
  store %"class.irr::core::CMatrix4"* %dest, %"class.irr::core::CMatrix4"** %2, align 8
  %3 = load %"class.irr::core::quaternion"** %1
  %4 = getelementptr inbounds %"class.irr::core::quaternion"* %3, i32 0, i32 1
  %5 = load float* %4, align 4
  %6 = fmul float 2.000000e+00, %5
  %7 = getelementptr inbounds %"class.irr::core::quaternion"* %3, i32 0, i32 1
  %8 = load float* %7, align 4
  %9 = fmul float %6, %8
  %10 = fsub float 1.000000e+00, %9
  %11 = getelementptr inbounds %"class.irr::core::quaternion"* %3, i32 0, i32 2
  %12 = load float* %11, align 4
  %13 = fmul float 2.000000e+00, %12
  %14 = getelementptr inbounds %"class.irr::core::quaternion"* %3, i32 0, i32 2
  %15 = load float* %14, align 4
  %16 = fmul float %13, %15
  %17 = fsub float %10, %16
  %18 = load %"class.irr::core::CMatrix4"** %2, align 8
  %19 = call dereferenceable(4) float* @_ZN3irr4core8CMatrix4IfEixEj(%"class.irr::core::CMatrix4"* %18, i32 0)
  store float %17, float* %19
  %20 = getelementptr inbounds %"class.irr::core::quaternion"* %3, i32 0, i32 0
  %21 = load float* %20, align 4
  %22 = fmul float 2.000000e+00, %21
  %23 = getelementptr inbounds %"class.irr::core::quaternion"* %3, i32 0, i32 1
  %24 = load float* %23, align 4
  %25 = fmul float %22, %24
  %26 = getelementptr inbounds %"class.irr::core::quaternion"* %3, i32 0, i32 2
  %27 = load float* %26, align 4
  %28 = fmul float 2.000000e+00, %27
  %29 = getelementptr inbounds %"class.irr::core::quaternion"* %3, i32 0, i32 3
  %30 = load float* %29, align 4
  %31 = fmul float %28, %30
  %32 = fadd float %25, %31
  %33 = load %"class.irr::core::CMatrix4"** %2, align 8
  %34 = call dereferenceable(4) float* @_ZN3irr4core8CMatrix4IfEixEj(%"class.irr::core::CMatrix4"* %33, i32 4)
  store float %32, float* %34
  %35 = getelementptr inbounds %"class.irr::core::quaternion"* %3, i32 0, i32 0
  %36 = load float* %35, align 4
  %37 = fmul float 2.000000e+00, %36
  %38 = getelementptr inbounds %"class.irr::core::quaternion"* %3, i32 0, i32 2
  %39 = load float* %38, align 4
  %40 = fmul float %37, %39
  %41 = getelementptr inbounds %"class.irr::core::quaternion"* %3, i32 0, i32 1
  %42 = load float* %41, align 4
  %43 = fmul float 2.000000e+00, %42
  %44 = getelementptr inbounds %"class.irr::core::quaternion"* %3, i32 0, i32 3
  %45 = load float* %44, align 4
  %46 = fmul float %43, %45
  %47 = fsub float %40, %46
  %48 = load %"class.irr::core::CMatrix4"** %2, align 8
  %49 = call dereferenceable(4) float* @_ZN3irr4core8CMatrix4IfEixEj(%"class.irr::core::CMatrix4"* %48, i32 8)
  store float %47, float* %49
  %50 = load %"class.irr::core::CMatrix4"** %2, align 8
  %51 = call dereferenceable(4) float* @_ZN3irr4core8CMatrix4IfEixEj(%"class.irr::core::CMatrix4"* %50, i32 12)
  store float 0.000000e+00, float* %51
  %52 = getelementptr inbounds %"class.irr::core::quaternion"* %3, i32 0, i32 0
  %53 = load float* %52, align 4
  %54 = fmul float 2.000000e+00, %53
  %55 = getelementptr inbounds %"class.irr::core::quaternion"* %3, i32 0, i32 1
  %56 = load float* %55, align 4
  %57 = fmul float %54, %56
  %58 = getelementptr inbounds %"class.irr::core::quaternion"* %3, i32 0, i32 2
  %59 = load float* %58, align 4
  %60 = fmul float 2.000000e+00, %59
  %61 = getelementptr inbounds %"class.irr::core::quaternion"* %3, i32 0, i32 3
  %62 = load float* %61, align 4
  %63 = fmul float %60, %62
  %64 = fsub float %57, %63
  %65 = load %"class.irr::core::CMatrix4"** %2, align 8
  %66 = call dereferenceable(4) float* @_ZN3irr4core8CMatrix4IfEixEj(%"class.irr::core::CMatrix4"* %65, i32 1)
  store float %64, float* %66
  %67 = getelementptr inbounds %"class.irr::core::quaternion"* %3, i32 0, i32 0
  %68 = load float* %67, align 4
  %69 = fmul float 2.000000e+00, %68
  %70 = getelementptr inbounds %"class.irr::core::quaternion"* %3, i32 0, i32 0
  %71 = load float* %70, align 4
  %72 = fmul float %69, %71
  %73 = fsub float 1.000000e+00, %72
  %74 = getelementptr inbounds %"class.irr::core::quaternion"* %3, i32 0, i32 2
  %75 = load float* %74, align 4
  %76 = fmul float 2.000000e+00, %75
  %77 = getelementptr inbounds %"class.irr::core::quaternion"* %3, i32 0, i32 2
  %78 = load float* %77, align 4
  %79 = fmul float %76, %78
  %80 = fsub float %73, %79
  %81 = load %"class.irr::core::CMatrix4"** %2, align 8
  %82 = call dereferenceable(4) float* @_ZN3irr4core8CMatrix4IfEixEj(%"class.irr::core::CMatrix4"* %81, i32 5)
  store float %80, float* %82
  %83 = getelementptr inbounds %"class.irr::core::quaternion"* %3, i32 0, i32 2
  %84 = load float* %83, align 4
  %85 = fmul float 2.000000e+00, %84
  %86 = getelementptr inbounds %"class.irr::core::quaternion"* %3, i32 0, i32 1
  %87 = load float* %86, align 4
  %88 = fmul float %85, %87
  %89 = getelementptr inbounds %"class.irr::core::quaternion"* %3, i32 0, i32 0
  %90 = load float* %89, align 4
  %91 = fmul float 2.000000e+00, %90
  %92 = getelementptr inbounds %"class.irr::core::quaternion"* %3, i32 0, i32 3
  %93 = load float* %92, align 4
  %94 = fmul float %91, %93
  %95 = fadd float %88, %94
  %96 = load %"class.irr::core::CMatrix4"** %2, align 8
  %97 = call dereferenceable(4) float* @_ZN3irr4core8CMatrix4IfEixEj(%"class.irr::core::CMatrix4"* %96, i32 9)
  store float %95, float* %97
  %98 = load %"class.irr::core::CMatrix4"** %2, align 8
  %99 = call dereferenceable(4) float* @_ZN3irr4core8CMatrix4IfEixEj(%"class.irr::core::CMatrix4"* %98, i32 13)
  store float 0.000000e+00, float* %99
  %100 = getelementptr inbounds %"class.irr::core::quaternion"* %3, i32 0, i32 0
  %101 = load float* %100, align 4
  %102 = fmul float 2.000000e+00, %101
  %103 = getelementptr inbounds %"class.irr::core::quaternion"* %3, i32 0, i32 2
  %104 = load float* %103, align 4
  %105 = fmul float %102, %104
  %106 = getelementptr inbounds %"class.irr::core::quaternion"* %3, i32 0, i32 1
  %107 = load float* %106, align 4
  %108 = fmul float 2.000000e+00, %107
  %109 = getelementptr inbounds %"class.irr::core::quaternion"* %3, i32 0, i32 3
  %110 = load float* %109, align 4
  %111 = fmul float %108, %110
  %112 = fadd float %105, %111
  %113 = load %"class.irr::core::CMatrix4"** %2, align 8
  %114 = call dereferenceable(4) float* @_ZN3irr4core8CMatrix4IfEixEj(%"class.irr::core::CMatrix4"* %113, i32 2)
  store float %112, float* %114
  %115 = getelementptr inbounds %"class.irr::core::quaternion"* %3, i32 0, i32 2
  %116 = load float* %115, align 4
  %117 = fmul float 2.000000e+00, %116
  %118 = getelementptr inbounds %"class.irr::core::quaternion"* %3, i32 0, i32 1
  %119 = load float* %118, align 4
  %120 = fmul float %117, %119
  %121 = getelementptr inbounds %"class.irr::core::quaternion"* %3, i32 0, i32 0
  %122 = load float* %121, align 4
  %123 = fmul float 2.000000e+00, %122
  %124 = getelementptr inbounds %"class.irr::core::quaternion"* %3, i32 0, i32 3
  %125 = load float* %124, align 4
  %126 = fmul float %123, %125
  %127 = fsub float %120, %126
  %128 = load %"class.irr::core::CMatrix4"** %2, align 8
  %129 = call dereferenceable(4) float* @_ZN3irr4core8CMatrix4IfEixEj(%"class.irr::core::CMatrix4"* %128, i32 6)
  store float %127, float* %129
  %130 = getelementptr inbounds %"class.irr::core::quaternion"* %3, i32 0, i32 0
  %131 = load float* %130, align 4
  %132 = fmul float 2.000000e+00, %131
  %133 = getelementptr inbounds %"class.irr::core::quaternion"* %3, i32 0, i32 0
  %134 = load float* %133, align 4
  %135 = fmul float %132, %134
  %136 = fsub float 1.000000e+00, %135
  %137 = getelementptr inbounds %"class.irr::core::quaternion"* %3, i32 0, i32 1
  %138 = load float* %137, align 4
  %139 = fmul float 2.000000e+00, %138
  %140 = getelementptr inbounds %"class.irr::core::quaternion"* %3, i32 0, i32 1
  %141 = load float* %140, align 4
  %142 = fmul float %139, %141
  %143 = fsub float %136, %142
  %144 = load %"class.irr::core::CMatrix4"** %2, align 8
  %145 = call dereferenceable(4) float* @_ZN3irr4core8CMatrix4IfEixEj(%"class.irr::core::CMatrix4"* %144, i32 10)
  store float %143, float* %145
  %146 = load %"class.irr::core::CMatrix4"** %2, align 8
  %147 = call dereferenceable(4) float* @_ZN3irr4core8CMatrix4IfEixEj(%"class.irr::core::CMatrix4"* %146, i32 14)
  store float 0.000000e+00, float* %147
  %148 = load %"class.irr::core::CMatrix4"** %2, align 8
  %149 = call dereferenceable(4) float* @_ZN3irr4core8CMatrix4IfEixEj(%"class.irr::core::CMatrix4"* %148, i32 3)
  store float 0.000000e+00, float* %149
  %150 = load %"class.irr::core::CMatrix4"** %2, align 8
  %151 = call dereferenceable(4) float* @_ZN3irr4core8CMatrix4IfEixEj(%"class.irr::core::CMatrix4"* %150, i32 7)
  store float 0.000000e+00, float* %151
  %152 = load %"class.irr::core::CMatrix4"** %2, align 8
  %153 = call dereferenceable(4) float* @_ZN3irr4core8CMatrix4IfEixEj(%"class.irr::core::CMatrix4"* %152, i32 11)
  store float 0.000000e+00, float* %153
  %154 = load %"class.irr::core::CMatrix4"** %2, align 8
  %155 = call dereferenceable(4) float* @_ZN3irr4core8CMatrix4IfEixEj(%"class.irr::core::CMatrix4"* %154, i32 15)
  store float 1.000000e+00, float* %155
  %156 = load %"class.irr::core::CMatrix4"** %2, align 8
  call void @_ZN3irr4core8CMatrix4IfE27setDefinitelyIdentityMatrixEb(%"class.irr::core::CMatrix4"* %156, i1 zeroext false)
  ret void
}

; Function Attrs: nounwind uwtable
define linkonce_odr float* @_ZN3irr4core8CMatrix4IfE7pointerEv(%"class.irr::core::CMatrix4"* %this) #3 align 2 {
  %1 = alloca %"class.irr::core::CMatrix4"*, align 8
  store %"class.irr::core::CMatrix4"* %this, %"class.irr::core::CMatrix4"** %1, align 8
  %2 = load %"class.irr::core::CMatrix4"** %1
  %3 = getelementptr inbounds %"class.irr::core::CMatrix4"* %2, i32 0, i32 0
  %4 = getelementptr inbounds [16 x float]* %3, i32 0, i32 0
  ret float* %4
}

; Function Attrs: nounwind uwtable
define linkonce_odr dereferenceable(4) float* @_ZN3irr4core8CMatrix4IfEixEj(%"class.irr::core::CMatrix4"* %this, i32 %index) #3 align 2 {
  %1 = alloca %"class.irr::core::CMatrix4"*, align 8
  %2 = alloca i32, align 4
  store %"class.irr::core::CMatrix4"* %this, %"class.irr::core::CMatrix4"** %1, align 8
  store i32 %index, i32* %2, align 4
  %3 = load %"class.irr::core::CMatrix4"** %1
  %4 = load i32* %2, align 4
  %5 = zext i32 %4 to i64
  %6 = getelementptr inbounds %"class.irr::core::CMatrix4"* %3, i32 0, i32 0
  %7 = getelementptr inbounds [16 x float]* %6, i32 0, i64 %5
  ret float* %7
}

; Function Attrs: inlinehint nounwind uwtable
define linkonce_odr dereferenceable(64) %"class.irr::core::CMatrix4"* @_ZN3irr4core8CMatrix4IfEaSERKS2_(%"class.irr::core::CMatrix4"* %this, %"class.irr::core::CMatrix4"* dereferenceable(64) %other) #5 align 2 {
  %1 = alloca %"class.irr::core::CMatrix4"*, align 8
  %2 = alloca %"class.irr::core::CMatrix4"*, align 8
  %3 = alloca %"class.irr::core::CMatrix4"*, align 8
  store %"class.irr::core::CMatrix4"* %this, %"class.irr::core::CMatrix4"** %2, align 8
  store %"class.irr::core::CMatrix4"* %other, %"class.irr::core::CMatrix4"** %3, align 8
  %4 = load %"class.irr::core::CMatrix4"** %2
  %5 = load %"class.irr::core::CMatrix4"** %3, align 8
  %6 = icmp eq %"class.irr::core::CMatrix4"* %4, %5
  br i1 %6, label %7, label %8

; <label>:7                                       ; preds = %0
  store %"class.irr::core::CMatrix4"* %4, %"class.irr::core::CMatrix4"** %1
  br label %14

; <label>:8                                       ; preds = %0
  %9 = getelementptr inbounds %"class.irr::core::CMatrix4"* %4, i32 0, i32 0
  %10 = bitcast [16 x float]* %9 to i8*
  %11 = load %"class.irr::core::CMatrix4"** %3, align 8
  %12 = getelementptr inbounds %"class.irr::core::CMatrix4"* %11, i32 0, i32 0
  %13 = bitcast [16 x float]* %12 to i8*
  call void @llvm.memcpy.p0i8.p0i8.i64(i8* %10, i8* %13, i64 64, i32 4, i1 false)
  store %"class.irr::core::CMatrix4"* %4, %"class.irr::core::CMatrix4"** %1
  br label %14

; <label>:14                                      ; preds = %8, %7
  %15 = load %"class.irr::core::CMatrix4"** %1
  ret %"class.irr::core::CMatrix4"* %15
}

; Function Attrs: uwtable
define void @_ZN3irr5scene12CSkinnedMesh30buildAllGlobalAnimatedMatricesEPNS0_12ISkinnedMesh6SJointES4_(%"class.irr::scene::CSkinnedMesh"* %this, %"struct.irr::scene::ISkinnedMesh::SJoint"* %joint, %"struct.irr::scene::ISkinnedMesh::SJoint"* %parentJoint) #0 align 2 {
  %1 = alloca %"class.irr::scene::CSkinnedMesh"*, align 8
  %2 = alloca %"struct.irr::scene::ISkinnedMesh::SJoint"*, align 8
  %3 = alloca %"struct.irr::scene::ISkinnedMesh::SJoint"*, align 8
  %i = alloca i32, align 4
  %4 = alloca %"class.irr::core::CMatrix4", align 4
  %j = alloca i32, align 4
  store %"class.irr::scene::CSkinnedMesh"* %this, %"class.irr::scene::CSkinnedMesh"** %1, align 8
  store %"struct.irr::scene::ISkinnedMesh::SJoint"* %joint, %"struct.irr::scene::ISkinnedMesh::SJoint"** %2, align 8
  store %"struct.irr::scene::ISkinnedMesh::SJoint"* %parentJoint, %"struct.irr::scene::ISkinnedMesh::SJoint"** %3, align 8
  %5 = load %"class.irr::scene::CSkinnedMesh"** %1
  %6 = load %"struct.irr::scene::ISkinnedMesh::SJoint"** %2, align 8
  %7 = icmp ne %"struct.irr::scene::ISkinnedMesh::SJoint"* %6, null
  br i1 %7, label %23, label %8

; <label>:8                                       ; preds = %0
  store i32 0, i32* %i, align 4
  br label %9

; <label>:9                                       ; preds = %19, %8
  %10 = load i32* %i, align 4
  %11 = getelementptr inbounds %"class.irr::scene::CSkinnedMesh"* %5, i32 0, i32 4
  %12 = call i32 @_ZNK3irr4core5arrayIPNS_5scene12ISkinnedMesh6SJointENS0_12irrAllocatorIS5_EEE4sizeEv(%"class.irr::core::array.14"* %11)
  %13 = icmp ult i32 %10, %12
  br i1 %13, label %14, label %22

; <label>:14                                      ; preds = %9
  %15 = getelementptr inbounds %"class.irr::scene::CSkinnedMesh"* %5, i32 0, i32 4
  %16 = load i32* %i, align 4
  %17 = call dereferenceable(8) %"struct.irr::scene::ISkinnedMesh::SJoint"** @_ZN3irr4core5arrayIPNS_5scene12ISkinnedMesh6SJointENS0_12irrAllocatorIS5_EEEixEj(%"class.irr::core::array.14"* %15, i32 %16)
  %18 = load %"struct.irr::scene::ISkinnedMesh::SJoint"** %17
  call void @_ZN3irr5scene12CSkinnedMesh30buildAllGlobalAnimatedMatricesEPNS0_12ISkinnedMesh6SJointES4_(%"class.irr::scene::CSkinnedMesh"* %5, %"struct.irr::scene::ISkinnedMesh::SJoint"* %18, %"struct.irr::scene::ISkinnedMesh::SJoint"* null)
  br label %19

; <label>:19                                      ; preds = %14
  %20 = load i32* %i, align 4
  %21 = add i32 %20, 1
  store i32 %21, i32* %i, align 4
  br label %9

; <label>:22                                      ; preds = %9
  br label %63

; <label>:23                                      ; preds = %0
  %24 = load %"struct.irr::scene::ISkinnedMesh::SJoint"** %3, align 8
  %25 = icmp ne %"struct.irr::scene::ISkinnedMesh::SJoint"* %24, null
  br i1 %25, label %26, label %31

; <label>:26                                      ; preds = %23
  %27 = load %"struct.irr::scene::ISkinnedMesh::SJoint"** %2, align 8
  %28 = getelementptr inbounds %"struct.irr::scene::ISkinnedMesh::SJoint"* %27, i32 0, i32 16
  %29 = load i8* %28, align 1
  %30 = trunc i8 %29 to i1
  br i1 %30, label %31, label %37

; <label>:31                                      ; preds = %26, %23
  %32 = load %"struct.irr::scene::ISkinnedMesh::SJoint"** %2, align 8
  %33 = getelementptr inbounds %"struct.irr::scene::ISkinnedMesh::SJoint"* %32, i32 0, i32 9
  %34 = load %"struct.irr::scene::ISkinnedMesh::SJoint"** %2, align 8
  %35 = getelementptr inbounds %"struct.irr::scene::ISkinnedMesh::SJoint"* %34, i32 0, i32 10
  %36 = call dereferenceable(64) %"class.irr::core::CMatrix4"* @_ZN3irr4core8CMatrix4IfEaSERKS2_(%"class.irr::core::CMatrix4"* %33, %"class.irr::core::CMatrix4"* dereferenceable(64) %35)
  br label %45

; <label>:37                                      ; preds = %26
  %38 = load %"struct.irr::scene::ISkinnedMesh::SJoint"** %2, align 8
  %39 = getelementptr inbounds %"struct.irr::scene::ISkinnedMesh::SJoint"* %38, i32 0, i32 9
  %40 = load %"struct.irr::scene::ISkinnedMesh::SJoint"** %3, align 8
  %41 = getelementptr inbounds %"struct.irr::scene::ISkinnedMesh::SJoint"* %40, i32 0, i32 9
  %42 = load %"struct.irr::scene::ISkinnedMesh::SJoint"** %2, align 8
  %43 = getelementptr inbounds %"struct.irr::scene::ISkinnedMesh::SJoint"* %42, i32 0, i32 10
  call void @_ZNK3irr4core8CMatrix4IfEmlERKS2_(%"class.irr::core::CMatrix4"* sret %4, %"class.irr::core::CMatrix4"* %41, %"class.irr::core::CMatrix4"* dereferenceable(64) %43)
  %44 = call dereferenceable(64) %"class.irr::core::CMatrix4"* @_ZN3irr4core8CMatrix4IfEaSERKS2_(%"class.irr::core::CMatrix4"* %39, %"class.irr::core::CMatrix4"* dereferenceable(64) %4)
  br label %45

; <label>:45                                      ; preds = %37, %31
  br label %46

; <label>:46                                      ; preds = %45
  store i32 0, i32* %j, align 4
  br label %47

; <label>:47                                      ; preds = %60, %46
  %48 = load i32* %j, align 4
  %49 = load %"struct.irr::scene::ISkinnedMesh::SJoint"** %2, align 8
  %50 = getelementptr inbounds %"struct.irr::scene::ISkinnedMesh::SJoint"* %49, i32 0, i32 2
  %51 = call i32 @_ZNK3irr4core5arrayIPNS_5scene12ISkinnedMesh6SJointENS0_12irrAllocatorIS5_EEE4sizeEv(%"class.irr::core::array.14"* %50)
  %52 = icmp ult i32 %48, %51
  br i1 %52, label %53, label %63

; <label>:53                                      ; preds = %47
  %54 = load %"struct.irr::scene::ISkinnedMesh::SJoint"** %2, align 8
  %55 = getelementptr inbounds %"struct.irr::scene::ISkinnedMesh::SJoint"* %54, i32 0, i32 2
  %56 = load i32* %j, align 4
  %57 = call dereferenceable(8) %"struct.irr::scene::ISkinnedMesh::SJoint"** @_ZN3irr4core5arrayIPNS_5scene12ISkinnedMesh6SJointENS0_12irrAllocatorIS5_EEEixEj(%"class.irr::core::array.14"* %55, i32 %56)
  %58 = load %"struct.irr::scene::ISkinnedMesh::SJoint"** %57
  %59 = load %"struct.irr::scene::ISkinnedMesh::SJoint"** %2, align 8
  call void @_ZN3irr5scene12CSkinnedMesh30buildAllGlobalAnimatedMatricesEPNS0_12ISkinnedMesh6SJointES4_(%"class.irr::scene::CSkinnedMesh"* %5, %"struct.irr::scene::ISkinnedMesh::SJoint"* %58, %"struct.irr::scene::ISkinnedMesh::SJoint"* %59)
  br label %60

; <label>:60                                      ; preds = %53
  %61 = load i32* %j, align 4
  %62 = add i32 %61, 1
  store i32 %62, i32* %j, align 4
  br label %47

; <label>:63                                      ; preds = %22, %47
  ret void
}

; Function Attrs: uwtable
define linkonce_odr void @_ZNK3irr4core8CMatrix4IfEmlERKS2_(%"class.irr::core::CMatrix4"* noalias sret %agg.result, %"class.irr::core::CMatrix4"* %this, %"class.irr::core::CMatrix4"* dereferenceable(64) %m2) #0 align 2 {
  %1 = alloca %"class.irr::core::CMatrix4"*, align 8
  %2 = alloca %"class.irr::core::CMatrix4"*, align 8
  %m1 = alloca float*, align 8
  store %"class.irr::core::CMatrix4"* %this, %"class.irr::core::CMatrix4"** %1, align 8
  store %"class.irr::core::CMatrix4"* %m2, %"class.irr::core::CMatrix4"** %2, align 8
  %3 = load %"class.irr::core::CMatrix4"** %1
  call void @_ZN3irr4core8CMatrix4IfEC2ENS2_12eConstructorE(%"class.irr::core::CMatrix4"* %agg.result, i32 0)
  %4 = getelementptr inbounds %"class.irr::core::CMatrix4"* %3, i32 0, i32 0
  %5 = getelementptr inbounds [16 x float]* %4, i32 0, i32 0
  store float* %5, float** %m1, align 8
  %6 = load float** %m1, align 8
  %7 = getelementptr inbounds float* %6, i64 0
  %8 = load float* %7, align 4
  %9 = load %"class.irr::core::CMatrix4"** %2, align 8
  %10 = call dereferenceable(4) float* @_ZNK3irr4core8CMatrix4IfEixEj(%"class.irr::core::CMatrix4"* %9, i32 0)
  %11 = load float* %10
  %12 = fmul float %8, %11
  %13 = load float** %m1, align 8
  %14 = getelementptr inbounds float* %13, i64 4
  %15 = load float* %14, align 4
  %16 = load %"class.irr::core::CMatrix4"** %2, align 8
  %17 = call dereferenceable(4) float* @_ZNK3irr4core8CMatrix4IfEixEj(%"class.irr::core::CMatrix4"* %16, i32 1)
  %18 = load float* %17
  %19 = fmul float %15, %18
  %20 = fadd float %12, %19
  %21 = load float** %m1, align 8
  %22 = getelementptr inbounds float* %21, i64 8
  %23 = load float* %22, align 4
  %24 = load %"class.irr::core::CMatrix4"** %2, align 8
  %25 = call dereferenceable(4) float* @_ZNK3irr4core8CMatrix4IfEixEj(%"class.irr::core::CMatrix4"* %24, i32 2)
  %26 = load float* %25
  %27 = fmul float %23, %26
  %28 = fadd float %20, %27
  %29 = load float** %m1, align 8
  %30 = getelementptr inbounds float* %29, i64 12
  %31 = load float* %30, align 4
  %32 = load %"class.irr::core::CMatrix4"** %2, align 8
  %33 = call dereferenceable(4) float* @_ZNK3irr4core8CMatrix4IfEixEj(%"class.irr::core::CMatrix4"* %32, i32 3)
  %34 = load float* %33
  %35 = fmul float %31, %34
  %36 = fadd float %28, %35
  %37 = call dereferenceable(4) float* @_ZN3irr4core8CMatrix4IfEixEj(%"class.irr::core::CMatrix4"* %agg.result, i32 0)
  store float %36, float* %37
  %38 = load float** %m1, align 8
  %39 = getelementptr inbounds float* %38, i64 1
  %40 = load float* %39, align 4
  %41 = load %"class.irr::core::CMatrix4"** %2, align 8
  %42 = call dereferenceable(4) float* @_ZNK3irr4core8CMatrix4IfEixEj(%"class.irr::core::CMatrix4"* %41, i32 0)
  %43 = load float* %42
  %44 = fmul float %40, %43
  %45 = load float** %m1, align 8
  %46 = getelementptr inbounds float* %45, i64 5
  %47 = load float* %46, align 4
  %48 = load %"class.irr::core::CMatrix4"** %2, align 8
  %49 = call dereferenceable(4) float* @_ZNK3irr4core8CMatrix4IfEixEj(%"class.irr::core::CMatrix4"* %48, i32 1)
  %50 = load float* %49
  %51 = fmul float %47, %50
  %52 = fadd float %44, %51
  %53 = load float** %m1, align 8
  %54 = getelementptr inbounds float* %53, i64 9
  %55 = load float* %54, align 4
  %56 = load %"class.irr::core::CMatrix4"** %2, align 8
  %57 = call dereferenceable(4) float* @_ZNK3irr4core8CMatrix4IfEixEj(%"class.irr::core::CMatrix4"* %56, i32 2)
  %58 = load float* %57
  %59 = fmul float %55, %58
  %60 = fadd float %52, %59
  %61 = load float** %m1, align 8
  %62 = getelementptr inbounds float* %61, i64 13
  %63 = load float* %62, align 4
  %64 = load %"class.irr::core::CMatrix4"** %2, align 8
  %65 = call dereferenceable(4) float* @_ZNK3irr4core8CMatrix4IfEixEj(%"class.irr::core::CMatrix4"* %64, i32 3)
  %66 = load float* %65
  %67 = fmul float %63, %66
  %68 = fadd float %60, %67
  %69 = call dereferenceable(4) float* @_ZN3irr4core8CMatrix4IfEixEj(%"class.irr::core::CMatrix4"* %agg.result, i32 1)
  store float %68, float* %69
  %70 = load float** %m1, align 8
  %71 = getelementptr inbounds float* %70, i64 2
  %72 = load float* %71, align 4
  %73 = load %"class.irr::core::CMatrix4"** %2, align 8
  %74 = call dereferenceable(4) float* @_ZNK3irr4core8CMatrix4IfEixEj(%"class.irr::core::CMatrix4"* %73, i32 0)
  %75 = load float* %74
  %76 = fmul float %72, %75
  %77 = load float** %m1, align 8
  %78 = getelementptr inbounds float* %77, i64 6
  %79 = load float* %78, align 4
  %80 = load %"class.irr::core::CMatrix4"** %2, align 8
  %81 = call dereferenceable(4) float* @_ZNK3irr4core8CMatrix4IfEixEj(%"class.irr::core::CMatrix4"* %80, i32 1)
  %82 = load float* %81
  %83 = fmul float %79, %82
  %84 = fadd float %76, %83
  %85 = load float** %m1, align 8
  %86 = getelementptr inbounds float* %85, i64 10
  %87 = load float* %86, align 4
  %88 = load %"class.irr::core::CMatrix4"** %2, align 8
  %89 = call dereferenceable(4) float* @_ZNK3irr4core8CMatrix4IfEixEj(%"class.irr::core::CMatrix4"* %88, i32 2)
  %90 = load float* %89
  %91 = fmul float %87, %90
  %92 = fadd float %84, %91
  %93 = load float** %m1, align 8
  %94 = getelementptr inbounds float* %93, i64 14
  %95 = load float* %94, align 4
  %96 = load %"class.irr::core::CMatrix4"** %2, align 8
  %97 = call dereferenceable(4) float* @_ZNK3irr4core8CMatrix4IfEixEj(%"class.irr::core::CMatrix4"* %96, i32 3)
  %98 = load float* %97
  %99 = fmul float %95, %98
  %100 = fadd float %92, %99
  %101 = call dereferenceable(4) float* @_ZN3irr4core8CMatrix4IfEixEj(%"class.irr::core::CMatrix4"* %agg.result, i32 2)
  store float %100, float* %101
  %102 = load float** %m1, align 8
  %103 = getelementptr inbounds float* %102, i64 3
  %104 = load float* %103, align 4
  %105 = load %"class.irr::core::CMatrix4"** %2, align 8
