; ModuleID = 'ComputeNonbondedUtil.ll'
target datalayout = "e-m:e-i64:64-f80:128-n8:16:32:64-S128"
target triple = "x86_64-unknown-linux-gnu"

%class.LJTable = type <{ i8*, %"struct.LJTable::TableEntry"*, i32, [4 x i8] }>
%"struct.LJTable::TableEntry" = type { double, double }
%class.Molecule = type { %class.ObjectArena*, %class.ExclusionCheck*, i32, i32, i32* }
%class.ObjectArena = type opaque
%class.ExclusionCheck = type { i32, i32, i8* }
%struct.nonbonded = type { [2 x %struct.CompAtom*], [2 x %class.Vector*], [2 x %class.Vector*], [2 x i32], double*, double*, %class.Vector, i32, i32, i32, i32 }
%struct.CompAtom = type { %class.Vector, float, i32 }
%class.Vector = type { double, double, double }
%class.SimParameters = type { %class.Vector, %class.Vector, %class.Vector, %class.Vector, i32, i32, double, i32, double, double, double, i32, double, double, i32, double, double, i32, i32, i32, i32, i32, i32, double, double, i32, i32, i32, i32, i32, i32, i32, i32, i32, i32, i32, double, double, i32, double, i32, i32, %class.Lattice }
%class.Lattice = type <{ %class.Vector, %class.Vector, %class.Vector, %class.Vector, %class.Vector, %class.Vector, %class.Vector, i32, i32, i32, [4 x i8] }>
%union.anon.43 = type { float }
%union.anon.44 = type { float }
%union.anon.54 = type { float }
%union.anon.55 = type { float }
%union.anon.45 = type { float }
%union.anon.46 = type { float }
%union.anon.47 = type { float }
%union.anon.56 = type { float }
%union.anon.57 = type { float }
%union.anon.58 = type { float }
%union.anon.48 = type { float }
%union.anon.49 = type { float }
%union.anon.50 = type { float }
%union.anon.59 = type { float }
%union.anon.60 = type { float }
%union.anon.61 = type { float }
%union.anon.51 = type { float }
%union.anon.52 = type { float }
%union.anon.53 = type { float }
%union.anon.62 = type { float }
%union.anon.63 = type { float }
%union.anon.64 = type { float }
%union.anon.65 = type { float }
%union.anon.66 = type { float }
%union.anon.67 = type { float }
%union.anon.68 = type { float }
%union.anon.87 = type { float }
%union.anon.88 = type { float }
%union.anon.89 = type { float }
%union.anon.90 = type { float }
%union.anon.69 = type { float }
%union.anon.70 = type { float }
%union.anon.71 = type { float }
%union.anon.72 = type { float }
%union.anon.73 = type { float }
%union.anon.74 = type { float }
%union.anon.91 = type { float }
%union.anon.92 = type { float }
%union.anon.93 = type { float }
%union.anon.94 = type { float }
%union.anon.95 = type { float }
%union.anon.96 = type { float }
%union.anon.75 = type { float }
%union.anon.76 = type { float }
%union.anon.77 = type { float }
%union.anon.78 = type { float }
%union.anon.79 = type { float }
%union.anon.80 = type { float }
%union.anon.97 = type { float }
%union.anon.98 = type { float }
%union.anon.99 = type { float }
%union.anon.100 = type { float }
%union.anon.101 = type { float }
%union.anon.102 = type { float }
%union.anon.81 = type { float }
%union.anon.82 = type { float }
%union.anon.83 = type { float }
%union.anon.84 = type { float }
%union.anon.85 = type { float }
%union.anon.86 = type { float }
%union.anon.103 = type { float }
%union.anon.104 = type { float }
%union.anon.105 = type { float }
%union.anon.106 = type { float }
%union.anon.107 = type { float }
%union.anon.108 = type { float }
%union.anon = type { float }
%union.anon.0 = type { float }
%union.anon.1 = type { float }
%union.anon.2 = type { float }
%union.anon.21 = type { float }
%union.anon.22 = type { float }
%union.anon.23 = type { float }
%union.anon.24 = type { float }
%union.anon.3 = type { float }
%union.anon.4 = type { float }
%union.anon.5 = type { float }
%union.anon.6 = type { float }
%union.anon.7 = type { float }
%union.anon.8 = type { float }
%union.anon.25 = type { float }
%union.anon.26 = type { float }
%union.anon.27 = type { float }
%union.anon.28 = type { float }
%union.anon.29 = type { float }
%union.anon.30 = type { float }
%union.anon.9 = type { float }
%union.anon.10 = type { float }
%union.anon.11 = type { float }
%union.anon.12 = type { float }
%union.anon.13 = type { float }
%union.anon.14 = type { float }
%union.anon.31 = type { float }
%union.anon.32 = type { float }
%union.anon.33 = type { float }
%union.anon.34 = type { float }
%union.anon.35 = type { float }
%union.anon.36 = type { float }
%union.anon.15 = type { float }
%union.anon.16 = type { float }
%union.anon.17 = type { float }
%union.anon.18 = type { float }
%union.anon.19 = type { float }
%union.anon.20 = type { float }
%union.anon.37 = type { float }
%union.anon.38 = type { float }
%union.anon.39 = type { float }
%union.anon.40 = type { float }
%union.anon.41 = type { float }
%union.anon.42 = type { float }

@_ZN20ComputeNonbondedUtil8commOnlyE = global i32 0, align 4
@_ZN20ComputeNonbondedUtil12fixedAtomsOnE = global i32 0, align 4
@_ZN20ComputeNonbondedUtil6cutoffE = global float 0.000000e+00, align 4
@_ZN20ComputeNonbondedUtil7cutoff2E = global double 0.000000e+00, align 8
@_ZN20ComputeNonbondedUtil12groupcutoff2E = global double 0.000000e+00, align 8
@_ZN20ComputeNonbondedUtil12dielectric_1E = global double 0.000000e+00, align 8
@_ZN20ComputeNonbondedUtil7ljTableE = global %class.LJTable* null, align 8
@_ZN20ComputeNonbondedUtil3molE = global %class.Molecule* null, align 8
@_ZN20ComputeNonbondedUtil8r2_deltaE = global double 0.000000e+00, align 8
@_ZN20ComputeNonbondedUtil10r2_delta_1E = global double 0.000000e+00, align 8
@_ZN20ComputeNonbondedUtil12r2_delta_expE = global i32 0, align 4
@_ZN20ComputeNonbondedUtil11table_allocE = global double* null, align 8
@_ZN20ComputeNonbondedUtil11table_shortE = global double* null, align 8
@_ZN20ComputeNonbondedUtil13table_noshortE = global double* null, align 8
@_ZN20ComputeNonbondedUtil10fast_tableE = global double* null, align 8
@_ZN20ComputeNonbondedUtil10scor_tableE = global double* null, align 8
@_ZN20ComputeNonbondedUtil10slow_tableE = global double* null, align 8
@_ZN20ComputeNonbondedUtil10corr_tableE = global double* null, align 8
@_ZN20ComputeNonbondedUtil10full_tableE = global double* null, align 8
@_ZN20ComputeNonbondedUtil10vdwa_tableE = global double* null, align 8
@_ZN20ComputeNonbondedUtil10vdwb_tableE = global double* null, align 8
@_ZN20ComputeNonbondedUtil7scalingE = global double 0.000000e+00, align 8
@_ZN20ComputeNonbondedUtil7scale14E = global double 0.000000e+00, align 8
@_ZN20ComputeNonbondedUtil8switchOnE = global float 0.000000e+00, align 4
@_ZN20ComputeNonbondedUtil10switchOn_1E = global double 0.000000e+00, align 8
@_ZN20ComputeNonbondedUtil9switchOn2E = global double 0.000000e+00, align 8
@_ZN20ComputeNonbondedUtil2c0E = global double 0.000000e+00, align 8
@_ZN20ComputeNonbondedUtil2c1E = global double 0.000000e+00, align 8
@_ZN20ComputeNonbondedUtil2c3E = global double 0.000000e+00, align 8
@_ZN20ComputeNonbondedUtil2c5E = global double 0.000000e+00, align 8
@_ZN20ComputeNonbondedUtil2c6E = global double 0.000000e+00, align 8
@_ZN20ComputeNonbondedUtil2c7E = global double 0.000000e+00, align 8
@_ZN20ComputeNonbondedUtil2c8E = global double 0.000000e+00, align 8
@_ZN20ComputeNonbondedUtil5fepOnE = global i32 0, align 4
@_ZN20ComputeNonbondedUtil6lambdaE = global double 0.000000e+00, align 8
@_ZN20ComputeNonbondedUtil7lambda2E = global double 0.000000e+00, align 8
@_ZN20ComputeNonbondedUtil5lesOnE = global i32 0, align 4
@_ZN20ComputeNonbondedUtil9lesFactorE = global i32 0, align 4
@_ZN20ComputeNonbondedUtil10lesScalingE = global double 0.000000e+00, align 8
@_ZN20ComputeNonbondedUtil12lambda_tableE = global double* null, align 8
@_ZN20ComputeNonbondedUtil17pairInteractionOnE = global i32 0, align 4
@_ZN20ComputeNonbondedUtil19pairInteractionSelfE = global i32 0, align 4
@_ZN20ComputeNonbondedUtil24pressureProfileNonbondedE = global i32 0, align 4
@_ZN20ComputeNonbondedUtil20pressureProfileSlabsE = global i32 0, align 4
@_ZN20ComputeNonbondedUtil24pressureProfileThicknessE = global double 0.000000e+00, align 8
@_ZN20ComputeNonbondedUtil18pressureProfileMinE = global double 0.000000e+00, align 8
@_ZN20ComputeNonbondedUtil8ewaldcofE = global double 0.000000e+00, align 8
@_ZN20ComputeNonbondedUtil11pi_ewaldcofE = global double 0.000000e+00, align 8
@_ZN20ComputeNonbondedUtil8calcPairE = global void (%struct.nonbonded*)* null, align 8
@_ZN20ComputeNonbondedUtil14calcPairEnergyE = global void (%struct.nonbonded*)* null, align 8
@_ZN20ComputeNonbondedUtil8calcSelfE = global void (%struct.nonbonded*)* null, align 8
@_ZN20ComputeNonbondedUtil14calcSelfEnergyE = global void (%struct.nonbonded*)* null, align 8
@_ZN20ComputeNonbondedUtil12calcFullPairE = global void (%struct.nonbonded*)* null, align 8
@_ZN20ComputeNonbondedUtil18calcFullPairEnergyE = global void (%struct.nonbonded*)* null, align 8
@_ZN20ComputeNonbondedUtil12calcFullSelfE = global void (%struct.nonbonded*)* null, align 8
@_ZN20ComputeNonbondedUtil18calcFullSelfEnergyE = global void (%struct.nonbonded*)* null, align 8
@_ZN20ComputeNonbondedUtil13calcMergePairE = global void (%struct.nonbonded*)* null, align 8
@_ZN20ComputeNonbondedUtil19calcMergePairEnergyE = global void (%struct.nonbonded*)* null, align 8
@_ZN20ComputeNonbondedUtil13calcMergeSelfE = global void (%struct.nonbonded*)* null, align 8
@_ZN20ComputeNonbondedUtil19calcMergeSelfEnergyE = global void (%struct.nonbonded*)* null, align 8
@_ZN20ComputeNonbondedUtil12calcSlowPairE = global void (%struct.nonbonded*)* null, align 8
@_ZN20ComputeNonbondedUtil18calcSlowPairEnergyE = global void (%struct.nonbonded*)* null, align 8
@_ZN20ComputeNonbondedUtil12calcSlowSelfE = global void (%struct.nonbonded*)* null, align 8
@_ZN20ComputeNonbondedUtil18calcSlowSelfEnergyE = global void (%struct.nonbonded*)* null, align 8
@.str = private unnamed_addr constant [38 x i8] c"Sorry, XPLOR splitting not supported.\00", align 1
@.str1 = private unnamed_addr constant [38 x i8] c"Sorry, SHARP splitting not supported.\00", align 1
@.str2 = private unnamed_addr constant [30 x i8] c"Unknown splitting type found!\00", align 1

; Function Attrs: uwtable
define void @_ZN20ComputeNonbondedUtil6selectEP13SimParametersP8MoleculeP7LJTable(%class.SimParameters* %simParams, %class.Molecule* %molecule, %class.LJTable* %ljTable_in) #0 align 2 {
  store %class.LJTable* %ljTable_in, %class.LJTable** @_ZN20ComputeNonbondedUtil7ljTableE, align 8
  %1 = getelementptr inbounds %class.SimParameters* %simParams, i32 0, i32 41
  %2 = load i32* %1, align 4
  store i32 %2, i32* @_ZN20ComputeNonbondedUtil8commOnlyE, align 4
  %3 = getelementptr inbounds %class.SimParameters* %simParams, i32 0, i32 31
  %4 = load i32* %3, align 4
  %5 = icmp ne i32 %4, 0
  br i1 %5, label %6, label %11

; <label>:6                                       ; preds = %0
  %7 = getelementptr inbounds %class.SimParameters* %simParams, i32 0, i32 32
  %8 = load i32* %7, align 4
  %9 = icmp ne i32 %8, 0
  %10 = xor i1 %9, true
  br label %11

; <label>:11                                      ; preds = %6, %0
  %12 = phi i1 [ false, %0 ], [ %10, %6 ]
  %13 = zext i1 %12 to i32
  store i32 %13, i32* @_ZN20ComputeNonbondedUtil12fixedAtomsOnE, align 4
  %14 = getelementptr inbounds %class.SimParameters* %simParams, i32 0, i32 10
  %15 = load double* %14, align 8
  %16 = fptrunc double %15 to float
  store float %16, float* @_ZN20ComputeNonbondedUtil6cutoffE, align 4
  %17 = load float* @_ZN20ComputeNonbondedUtil6cutoffE, align 4
  %18 = load float* @_ZN20ComputeNonbondedUtil6cutoffE, align 4
  %19 = fmul float %17, %18
  %20 = fpext float %19 to double
  store double %20, double* @_ZN20ComputeNonbondedUtil7cutoff2E, align 8
  %21 = getelementptr inbounds %class.SimParameters* %simParams, i32 0, i32 14
  %22 = load i32* %21, align 4
  store i32 %22, i32* @_ZN20ComputeNonbondedUtil5fepOnE, align 4
  store double 0.000000e+00, double* @_ZN20ComputeNonbondedUtil7lambda2E, align 8
  store double 0.000000e+00, double* @_ZN20ComputeNonbondedUtil6lambdaE, align 8
  %23 = getelementptr inbounds %class.SimParameters* %simParams, i32 0, i32 25
  %24 = load i32* %23, align 4
  store i32 %24, i32* @_ZN20ComputeNonbondedUtil5lesOnE, align 4
  store i32 0, i32* @_ZN20ComputeNonbondedUtil9lesFactorE, align 4
  store double 0.000000e+00, double* @_ZN20ComputeNonbondedUtil10lesScalingE, align 8
  %25 = load double** @_ZN20ComputeNonbondedUtil12lambda_tableE, align 8
  %26 = icmp eq double* %25, null
  br i1 %26, label %29, label %27

; <label>:27                                      ; preds = %11
  %28 = bitcast double* %25 to i8*
  call void @_ZdaPv(i8* %28) #8
  br label %29

; <label>:29                                      ; preds = %27, %11
  store double* null, double** @_ZN20ComputeNonbondedUtil12lambda_tableE, align 8
  %30 = getelementptr inbounds %class.SimParameters* %simParams, i32 0, i32 27
  %31 = load i32* %30, align 4
  store i32 %31, i32* @_ZN20ComputeNonbondedUtil17pairInteractionOnE, align 4
  %32 = getelementptr inbounds %class.SimParameters* %simParams, i32 0, i32 30
  %33 = load i32* %32, align 4
  store i32 %33, i32* @_ZN20ComputeNonbondedUtil19pairInteractionSelfE, align 4
  %34 = getelementptr inbounds %class.SimParameters* %simParams, i32 0, i32 20
  %35 = load i32* %34, align 4
  store i32 %35, i32* @_ZN20ComputeNonbondedUtil24pressureProfileNonbondedE, align 4
  %36 = load i32* @_ZN20ComputeNonbondedUtil24pressureProfileNonbondedE, align 4
  %37 = icmp ne i32 %36, 0
  br i1 %37, label %38, label %45

; <label>:38                                      ; preds = %29
  %39 = getelementptr inbounds %class.SimParameters* %simParams, i32 0, i32 21
  %40 = load i32* %39, align 4
  store i32 %40, i32* @_ZN20ComputeNonbondedUtil20pressureProfileSlabsE, align 4
  %41 = getelementptr inbounds %class.SimParameters* %simParams, i32 0, i32 24
  %42 = load double* %41, align 8
  store double %42, double* @_ZN20ComputeNonbondedUtil24pressureProfileThicknessE, align 8
  %43 = getelementptr inbounds %class.SimParameters* %simParams, i32 0, i32 23
  %44 = load double* %43, align 8
  store double %44, double* @_ZN20ComputeNonbondedUtil18pressureProfileMinE, align 8
  br label %45

; <label>:45                                      ; preds = %38, %29
  %46 = load i32* @_ZN20ComputeNonbondedUtil5fepOnE, align 4
  %47 = icmp ne i32 %46, 0
  br i1 %47, label %48, label %110

; <label>:48                                      ; preds = %45
  %49 = getelementptr inbounds %class.SimParameters* %simParams, i32 0, i32 15
  %50 = load double* %49, align 8
  store double %50, double* @_ZN20ComputeNonbondedUtil6lambdaE, align 8
  %51 = getelementptr inbounds %class.SimParameters* %simParams, i32 0, i32 16
  %52 = load double* %51, align 8
  store double %52, double* @_ZN20ComputeNonbondedUtil7lambda2E, align 8
  %53 = call noalias i8* @_Znam(i64 144) #9
  %54 = bitcast i8* %53 to double*
  store double* %54, double** @_ZN20ComputeNonbondedUtil12lambda_tableE, align 8
  br label %55

; <label>:55                                      ; preds = %107, %48
  %ip.0 = phi i32 [ 0, %48 ], [ %108, %107 ]
  %56 = icmp slt i32 %ip.0, 3
  br i1 %56, label %57, label %109

; <label>:57                                      ; preds = %55
  br label %58

; <label>:58                                      ; preds = %104, %57
  %jp.0 = phi i32 [ 0, %57 ], [ %105, %104 ]
  %59 = icmp slt i32 %jp.0, 3
  br i1 %59, label %60, label %106

; <label>:60                                      ; preds = %58
  %61 = icmp ne i32 %ip.0, 0
  br i1 %61, label %64, label %62

; <label>:62                                      ; preds = %60
  %63 = icmp ne i32 %jp.0, 0
  br i1 %63, label %64, label %90

; <label>:64                                      ; preds = %62, %60
  %65 = icmp ne i32 %ip.0, 0
  br i1 %65, label %66, label %71

; <label>:66                                      ; preds = %64
  %67 = icmp ne i32 %jp.0, 0
  br i1 %67, label %68, label %71

; <label>:68                                      ; preds = %66
  %69 = icmp ne i32 %ip.0, %jp.0
  br i1 %69, label %70, label %71

; <label>:70                                      ; preds = %68
  br label %89

; <label>:71                                      ; preds = %68, %66, %64
  %72 = icmp eq i32 %ip.0, 1
  br i1 %72, label %75, label %73

; <label>:73                                      ; preds = %71
  %74 = icmp eq i32 %jp.0, 1
  br i1 %74, label %75, label %78

; <label>:75                                      ; preds = %73, %71
  %76 = load double* @_ZN20ComputeNonbondedUtil6lambdaE, align 8
  %77 = load double* @_ZN20ComputeNonbondedUtil7lambda2E, align 8
  br label %88

; <label>:78                                      ; preds = %73
  %79 = icmp eq i32 %ip.0, 2
  br i1 %79, label %82, label %80

; <label>:80                                      ; preds = %78
  %81 = icmp eq i32 %jp.0, 2
  br i1 %81, label %82, label %87

; <label>:82                                      ; preds = %80, %78
  %83 = load double* @_ZN20ComputeNonbondedUtil6lambdaE, align 8
  %84 = fsub double 1.000000e+00, %83
  %85 = load double* @_ZN20ComputeNonbondedUtil7lambda2E, align 8
  %86 = fsub double 1.000000e+00, %85
  br label %87

; <label>:87                                      ; preds = %82, %80
  %d_lambda_pair.0 = phi double [ %86, %82 ], [ 1.000000e+00, %80 ]
  %lambda_pair.0 = phi double [ %84, %82 ], [ 1.000000e+00, %80 ]
  br label %88

; <label>:88                                      ; preds = %87, %75
  %d_lambda_pair.1 = phi double [ %77, %75 ], [ %d_lambda_pair.0, %87 ]
  %lambda_pair.1 = phi double [ %76, %75 ], [ %lambda_pair.0, %87 ]
  br label %89

; <label>:89                                      ; preds = %88, %70
  %d_lambda_pair.2 = phi double [ 0.000000e+00, %70 ], [ %d_lambda_pair.1, %88 ]
  %lambda_pair.2 = phi double [ 0.000000e+00, %70 ], [ %lambda_pair.1, %88 ]
  br label %90

; <label>:90                                      ; preds = %89, %62
  %d_lambda_pair.3 = phi double [ %d_lambda_pair.2, %89 ], [ 1.000000e+00, %62 ]
  %lambda_pair.3 = phi double [ %lambda_pair.2, %89 ], [ 1.000000e+00, %62 ]
  %91 = mul nsw i32 3, %ip.0
  %92 = add nsw i32 %91, %jp.0
  %93 = mul nsw i32 2, %92
  %94 = sext i32 %93 to i64
  %95 = load double** @_ZN20ComputeNonbondedUtil12lambda_tableE, align 8
  %96 = getelementptr inbounds double* %95, i64 %94
  store double %lambda_pair.3, double* %96, align 8
  %97 = mul nsw i32 3, %ip.0
  %98 = add nsw i32 %97, %jp.0
  %99 = mul nsw i32 2, %98
  %100 = add nsw i32 %99, 1
  %101 = sext i32 %100 to i64
  %102 = load double** @_ZN20ComputeNonbondedUtil12lambda_tableE, align 8
  %103 = getelementptr inbounds double* %102, i64 %101
  store double %d_lambda_pair.3, double* %103, align 8
  br label %104

; <label>:104                                     ; preds = %90
  %105 = add nsw i32 %jp.0, 1
  br label %58

; <label>:106                                     ; preds = %58
  br label %107

; <label>:107                                     ; preds = %106
  %108 = add nsw i32 %ip.0, 1
  br label %55

; <label>:109                                     ; preds = %55
  store void (%struct.nonbonded*)* @_ZN20ComputeNonbondedUtil20calc_pair_energy_fepEP9nonbonded, void (%struct.nonbonded*)** @_ZN20ComputeNonbondedUtil14calcPairEnergyE, align 8
  store void (%struct.nonbonded*)* @_ZN20ComputeNonbondedUtil20calc_self_energy_fepEP9nonbonded, void (%struct.nonbonded*)** @_ZN20ComputeNonbondedUtil14calcSelfEnergyE, align 8
  store void (%struct.nonbonded*)* @_ZN20ComputeNonbondedUtil30calc_pair_energy_fullelect_fepEP9nonbonded, void (%struct.nonbonded*)** @_ZN20ComputeNonbondedUtil18calcFullPairEnergyE, align 8
  store void (%struct.nonbonded*)* @_ZN20ComputeNonbondedUtil30calc_self_energy_fullelect_fepEP9nonbonded, void (%struct.nonbonded*)** @_ZN20ComputeNonbondedUtil18calcFullSelfEnergyE, align 8
  store void (%struct.nonbonded*)* @_ZN20ComputeNonbondedUtil36calc_pair_energy_merge_fullelect_fepEP9nonbonded, void (%struct.nonbonded*)** @_ZN20ComputeNonbondedUtil19calcMergePairEnergyE, align 8
  store void (%struct.nonbonded*)* @_ZN20ComputeNonbondedUtil36calc_self_energy_merge_fullelect_fepEP9nonbonded, void (%struct.nonbonded*)** @_ZN20ComputeNonbondedUtil19calcMergeSelfEnergyE, align 8
  store void (%struct.nonbonded*)* @_ZN20ComputeNonbondedUtil35calc_pair_energy_slow_fullelect_fepEP9nonbonded, void (%struct.nonbonded*)** @_ZN20ComputeNonbondedUtil18calcSlowPairEnergyE, align 8
  store void (%struct.nonbonded*)* @_ZN20ComputeNonbondedUtil35calc_self_energy_slow_fullelect_fepEP9nonbonded, void (%struct.nonbonded*)** @_ZN20ComputeNonbondedUtil18calcSlowSelfEnergyE, align 8
  br label %176

; <label>:110                                     ; preds = %45
  %111 = load i32* @_ZN20ComputeNonbondedUtil5lesOnE, align 4
  %112 = icmp ne i32 %111, 0
  br i1 %112, label %113, label %166

; <label>:113                                     ; preds = %110
  %114 = getelementptr inbounds %class.SimParameters* %simParams, i32 0, i32 26
  %115 = load i32* %114, align 4
  store i32 %115, i32* @_ZN20ComputeNonbondedUtil9lesFactorE, align 4
  %116 = load i32* @_ZN20ComputeNonbondedUtil9lesFactorE, align 4
  %117 = sitofp i32 %116 to double
  %118 = fdiv double 1.000000e+00, %117
  store double %118, double* @_ZN20ComputeNonbondedUtil10lesScalingE, align 8
  %119 = load i32* @_ZN20ComputeNonbondedUtil9lesFactorE, align 4
  %120 = add nsw i32 %119, 1
  %121 = load i32* @_ZN20ComputeNonbondedUtil9lesFactorE, align 4
  %122 = add nsw i32 %121, 1
  %123 = mul nsw i32 %120, %122
  %124 = sext i32 %123 to i64
  %125 = call { i64, i1 } @llvm.umul.with.overflow.i64(i64 %124, i64 8)
  %126 = extractvalue { i64, i1 } %125, 1
  %127 = extractvalue { i64, i1 } %125, 0
  %128 = select i1 %126, i64 -1, i64 %127
  %129 = call noalias i8* @_Znam(i64 %128) #9
  %130 = bitcast i8* %129 to double*
  store double* %130, double** @_ZN20ComputeNonbondedUtil12lambda_tableE, align 8
  br label %131

; <label>:131                                     ; preds = %163, %113
  %ip1.0 = phi i32 [ 0, %113 ], [ %164, %163 ]
  %132 = load i32* @_ZN20ComputeNonbondedUtil9lesFactorE, align 4
  %133 = icmp sle i32 %ip1.0, %132
  br i1 %133, label %134, label %165

; <label>:134                                     ; preds = %131
  br label %135

; <label>:135                                     ; preds = %160, %134
  %jp2.0 = phi i32 [ 0, %134 ], [ %161, %160 ]
  %136 = load i32* @_ZN20ComputeNonbondedUtil9lesFactorE, align 4
  %137 = icmp sle i32 %jp2.0, %136
  br i1 %137, label %138, label %162

; <label>:138                                     ; preds = %135
  %139 = icmp ne i32 %ip1.0, 0
  br i1 %139, label %142, label %140

; <label>:140                                     ; preds = %138
  %141 = icmp ne i32 %jp2.0, 0
  br i1 %141, label %142, label %152

; <label>:142                                     ; preds = %140, %138
  %143 = icmp ne i32 %ip1.0, 0
  br i1 %143, label %144, label %149

; <label>:144                                     ; preds = %142
  %145 = icmp ne i32 %jp2.0, 0
  br i1 %145, label %146, label %149

; <label>:146                                     ; preds = %144
  %147 = icmp ne i32 %ip1.0, %jp2.0
  br i1 %147, label %148, label %149

; <label>:148                                     ; preds = %146
  br label %151

; <label>:149                                     ; preds = %146, %144, %142
  %150 = load double* @_ZN20ComputeNonbondedUtil10lesScalingE, align 8
  br label %151

; <label>:151                                     ; preds = %149, %148
  %lambda_pair3.0 = phi double [ 0.000000e+00, %148 ], [ %150, %149 ]
  br label %152

; <label>:152                                     ; preds = %151, %140
  %lambda_pair3.1 = phi double [ %lambda_pair3.0, %151 ], [ 1.000000e+00, %140 ]
  %153 = load i32* @_ZN20ComputeNonbondedUtil9lesFactorE, align 4
  %154 = add nsw i32 %153, 1
  %155 = mul nsw i32 %154, %ip1.0
  %156 = add nsw i32 %155, %jp2.0
  %157 = sext i32 %156 to i64
  %158 = load double** @_ZN20ComputeNonbondedUtil12lambda_tableE, align 8
  %159 = getelementptr inbounds double* %158, i64 %157
  store double %lambda_pair3.1, double* %159, align 8
  br label %160

; <label>:160                                     ; preds = %152
  %161 = add nsw i32 %jp2.0, 1
  br label %135

; <label>:162                                     ; preds = %135
  br label %163

; <label>:163                                     ; preds = %162
  %164 = add nsw i32 %ip1.0, 1
  br label %131

; <label>:165                                     ; preds = %131
  store void (%struct.nonbonded*)* @_ZN20ComputeNonbondedUtil13calc_pair_lesEP9nonbonded, void (%struct.nonbonded*)** @_ZN20ComputeNonbondedUtil8calcPairE, align 8
  store void (%struct.nonbonded*)* @_ZN20ComputeNonbondedUtil20calc_pair_energy_lesEP9nonbonded, void (%struct.nonbonded*)** @_ZN20ComputeNonbondedUtil14calcPairEnergyE, align 8
  store void (%struct.nonbonded*)* @_ZN20ComputeNonbondedUtil13calc_self_lesEP9nonbonded, void (%struct.nonbonded*)** @_ZN20ComputeNonbondedUtil8calcSelfE, align 8
  store void (%struct.nonbonded*)* @_ZN20ComputeNonbondedUtil20calc_self_energy_lesEP9nonbonded, void (%struct.nonbonded*)** @_ZN20ComputeNonbondedUtil14calcSelfEnergyE, align 8
  store void (%struct.nonbonded*)* @_ZN20ComputeNonbondedUtil23calc_pair_fullelect_lesEP9nonbonded, void (%struct.nonbonded*)** @_ZN20ComputeNonbondedUtil12calcFullPairE, align 8
  store void (%struct.nonbonded*)* @_ZN20ComputeNonbondedUtil30calc_pair_energy_fullelect_lesEP9nonbonded, void (%struct.nonbonded*)** @_ZN20ComputeNonbondedUtil18calcFullPairEnergyE, align 8
  store void (%struct.nonbonded*)* @_ZN20ComputeNonbondedUtil23calc_self_fullelect_lesEP9nonbonded, void (%struct.nonbonded*)** @_ZN20ComputeNonbondedUtil12calcFullSelfE, align 8
  store void (%struct.nonbonded*)* @_ZN20ComputeNonbondedUtil30calc_self_energy_fullelect_lesEP9nonbonded, void (%struct.nonbonded*)** @_ZN20ComputeNonbondedUtil18calcFullSelfEnergyE, align 8
  store void (%struct.nonbonded*)* @_ZN20ComputeNonbondedUtil29calc_pair_merge_fullelect_lesEP9nonbonded, void (%struct.nonbonded*)** @_ZN20ComputeNonbondedUtil13calcMergePairE, align 8
  store void (%struct.nonbonded*)* @_ZN20ComputeNonbondedUtil36calc_pair_energy_merge_fullelect_lesEP9nonbonded, void (%struct.nonbonded*)** @_ZN20ComputeNonbondedUtil19calcMergePairEnergyE, align 8
  store void (%struct.nonbonded*)* @_ZN20ComputeNonbondedUtil29calc_self_merge_fullelect_lesEP9nonbonded, void (%struct.nonbonded*)** @_ZN20ComputeNonbondedUtil13calcMergeSelfE, align 8
  store void (%struct.nonbonded*)* @_ZN20ComputeNonbondedUtil36calc_self_energy_merge_fullelect_lesEP9nonbonded, void (%struct.nonbonded*)** @_ZN20ComputeNonbondedUtil19calcMergeSelfEnergyE, align 8
  store void (%struct.nonbonded*)* @_ZN20ComputeNonbondedUtil28calc_pair_slow_fullelect_lesEP9nonbonded, void (%struct.nonbonded*)** @_ZN20ComputeNonbondedUtil12calcSlowPairE, align 8
  store void (%struct.nonbonded*)* @_ZN20ComputeNonbondedUtil35calc_pair_energy_slow_fullelect_lesEP9nonbonded, void (%struct.nonbonded*)** @_ZN20ComputeNonbondedUtil18calcSlowPairEnergyE, align 8
  store void (%struct.nonbonded*)* @_ZN20ComputeNonbondedUtil28calc_self_slow_fullelect_lesEP9nonbonded, void (%struct.nonbonded*)** @_ZN20ComputeNonbondedUtil12calcSlowSelfE, align 8
  store void (%struct.nonbonded*)* @_ZN20ComputeNonbondedUtil35calc_self_energy_slow_fullelect_lesEP9nonbonded, void (%struct.nonbonded*)** @_ZN20ComputeNonbondedUtil18calcSlowSelfEnergyE, align 8
  br label %175

; <label>:166                                     ; preds = %110
  %167 = load i32* @_ZN20ComputeNonbondedUtil17pairInteractionOnE, align 4
  %168 = icmp ne i32 %167, 0
  br i1 %168, label %172, label %169

; <label>:169                                     ; preds = %166
  %170 = load i32* @_ZN20ComputeNonbondedUtil24pressureProfileNonbondedE, align 4
  %171 = icmp ne i32 %170, 0
  br i1 %171, label %172, label %173

; <label>:172                                     ; preds = %169, %166
  store void (%struct.nonbonded*)* null, void (%struct.nonbonded*)** @_ZN20ComputeNonbondedUtil14calcPairEnergyE, align 8
  store void (%struct.nonbonded*)* null, void (%struct.nonbonded*)** @_ZN20ComputeNonbondedUtil14calcSelfEnergyE, align 8
  br label %174

; <label>:173                                     ; preds = %169
  store void (%struct.nonbonded*)* @_ZN20ComputeNonbondedUtil9calc_pairEP9nonbonded, void (%struct.nonbonded*)** @_ZN20ComputeNonbondedUtil8calcPairE, align 8
  store void (%struct.nonbonded*)* @_ZN20ComputeNonbondedUtil16calc_pair_energyEP9nonbonded, void (%struct.nonbonded*)** @_ZN20ComputeNonbondedUtil14calcPairEnergyE, align 8
  store void (%struct.nonbonded*)* @_ZN20ComputeNonbondedUtil9calc_selfEP9nonbonded, void (%struct.nonbonded*)** @_ZN20ComputeNonbondedUtil8calcSelfE, align 8
  store void (%struct.nonbonded*)* @_ZN20ComputeNonbondedUtil16calc_self_energyEP9nonbonded, void (%struct.nonbonded*)** @_ZN20ComputeNonbondedUtil14calcSelfEnergyE, align 8
  store void (%struct.nonbonded*)* @_ZN20ComputeNonbondedUtil19calc_pair_fullelectEP9nonbonded, void (%struct.nonbonded*)** @_ZN20ComputeNonbondedUtil12calcFullPairE, align 8
  store void (%struct.nonbonded*)* @_ZN20ComputeNonbondedUtil26calc_pair_energy_fullelectEP9nonbonded, void (%struct.nonbonded*)** @_ZN20ComputeNonbondedUtil18calcFullPairEnergyE, align 8
  store void (%struct.nonbonded*)* @_ZN20ComputeNonbondedUtil19calc_self_fullelectEP9nonbonded, void (%struct.nonbonded*)** @_ZN20ComputeNonbondedUtil12calcFullSelfE, align 8
  store void (%struct.nonbonded*)* @_ZN20ComputeNonbondedUtil26calc_self_energy_fullelectEP9nonbonded, void (%struct.nonbonded*)** @_ZN20ComputeNonbondedUtil18calcFullSelfEnergyE, align 8
  store void (%struct.nonbonded*)* @_ZN20ComputeNonbondedUtil25calc_pair_merge_fullelectEP9nonbonded, void (%struct.nonbonded*)** @_ZN20ComputeNonbondedUtil13calcMergePairE, align 8
  store void (%struct.nonbonded*)* @_ZN20ComputeNonbondedUtil32calc_pair_energy_merge_fullelectEP9nonbonded, void (%struct.nonbonded*)** @_ZN20ComputeNonbondedUtil19calcMergePairEnergyE, align 8
  store void (%struct.nonbonded*)* @_ZN20ComputeNonbondedUtil25calc_self_merge_fullelectEP9nonbonded, void (%struct.nonbonded*)** @_ZN20ComputeNonbondedUtil13calcMergeSelfE, align 8
  store void (%struct.nonbonded*)* @_ZN20ComputeNonbondedUtil32calc_self_energy_merge_fullelectEP9nonbonded, void (%struct.nonbonded*)** @_ZN20ComputeNonbondedUtil19calcMergeSelfEnergyE, align 8
  store void (%struct.nonbonded*)* @_ZN20ComputeNonbondedUtil24calc_pair_slow_fullelectEP9nonbonded, void (%struct.nonbonded*)** @_ZN20ComputeNonbondedUtil12calcSlowPairE, align 8
  store void (%struct.nonbonded*)* @_ZN20ComputeNonbondedUtil31calc_pair_energy_slow_fullelectEP9nonbonded, void (%struct.nonbonded*)** @_ZN20ComputeNonbondedUtil18calcSlowPairEnergyE, align 8
  store void (%struct.nonbonded*)* @_ZN20ComputeNonbondedUtil24calc_self_slow_fullelectEP9nonbonded, void (%struct.nonbonded*)** @_ZN20ComputeNonbondedUtil12calcSlowSelfE, align 8
  store void (%struct.nonbonded*)* @_ZN20ComputeNonbondedUtil31calc_self_energy_slow_fullelectEP9nonbonded, void (%struct.nonbonded*)** @_ZN20ComputeNonbondedUtil18calcSlowSelfEnergyE, align 8
  br label %174

; <label>:174                                     ; preds = %173, %172
  br label %175

; <label>:175                                     ; preds = %174, %165
  br label %176

; <label>:176                                     ; preds = %175, %109
  %177 = getelementptr inbounds %class.SimParameters* %simParams, i32 0, i32 39
  %178 = load float* @_ZN20ComputeNonbondedUtil6cutoffE, align 4
  %179 = fpext float %178 to double
  %180 = load double* %177, align 8
  %181 = fadd double %179, %180
  %182 = load float* @_ZN20ComputeNonbondedUtil6cutoffE, align 4
  %183 = fpext float %182 to double
  %184 = load double* %177, align 8
  %185 = fadd double %183, %184
  %186 = fmul double %181, %185
  store double %186, double* @_ZN20ComputeNonbondedUtil12groupcutoff2E, align 8
  %187 = getelementptr inbounds %class.SimParameters* %simParams, i32 0, i32 6
  %188 = load double* %187, align 8
  %189 = fdiv double 1.000000e+00, %188
  store double %189, double* @_ZN20ComputeNonbondedUtil12dielectric_1E, align 8
  store %class.Molecule* %molecule, %class.Molecule** @_ZN20ComputeNonbondedUtil3molE, align 8
  %190 = getelementptr inbounds %class.SimParameters* %simParams, i32 0, i32 9
  %191 = load double* %190, align 8
  store double %191, double* @_ZN20ComputeNonbondedUtil7scalingE, align 8
  %192 = getelementptr inbounds %class.SimParameters* %simParams, i32 0, i32 7
  %193 = load i32* %192, align 4
  %194 = icmp eq i32 %193, 4
  br i1 %194, label %195, label %198

; <label>:195                                     ; preds = %176
  %196 = getelementptr inbounds %class.SimParameters* %simParams, i32 0, i32 8
  %197 = load double* %196, align 8
  store double %197, double* @_ZN20ComputeNonbondedUtil7scale14E, align 8
  br label %199

; <label>:198                                     ; preds = %176
  store double 1.000000e+00, double* @_ZN20ComputeNonbondedUtil7scale14E, align 8
  br label %199

; <label>:199                                     ; preds = %198, %195
  %200 = getelementptr inbounds %class.SimParameters* %simParams, i32 0, i32 11
  %201 = load i32* %200, align 4
  %202 = icmp ne i32 %201, 0
  br i1 %202, label %203, label %218

; <label>:203                                     ; preds = %199
  %204 = getelementptr inbounds %class.SimParameters* %simParams, i32 0, i32 12
  %205 = load double* %204, align 8
  %206 = fptrunc double %205 to float
  store float %206, float* @_ZN20ComputeNonbondedUtil8switchOnE, align 4
  %207 = load float* @_ZN20ComputeNonbondedUtil8switchOnE, align 4
  %208 = fpext float %207 to double
  %209 = fdiv double 1.000000e+00, %208
  store double %209, double* @_ZN20ComputeNonbondedUtil10switchOn_1E, align 8
  %210 = load float* @_ZN20ComputeNonbondedUtil8switchOnE, align 4
  %211 = load float* @_ZN20ComputeNonbondedUtil8switchOnE, align 4
  %212 = fmul float %210, %211
  %213 = fpext float %212 to double
  store double %213, double* @_ZN20ComputeNonbondedUtil9switchOn2E, align 8
  %214 = load double* @_ZN20ComputeNonbondedUtil7cutoff2E, align 8
  %215 = load double* @_ZN20ComputeNonbondedUtil9switchOn2E, align 8
  %216 = fsub double %214, %215
  %217 = fdiv double 1.000000e+00, %216
  store double %217, double* @_ZN20ComputeNonbondedUtil2c0E, align 8
  br label %227

; <label>:218                                     ; preds = %199
  %219 = load float* @_ZN20ComputeNonbondedUtil6cutoffE, align 4
  store float %219, float* @_ZN20ComputeNonbondedUtil8switchOnE, align 4
  %220 = load float* @_ZN20ComputeNonbondedUtil8switchOnE, align 4
  %221 = fpext float %220 to double
  %222 = fdiv double 1.000000e+00, %221
  store double %222, double* @_ZN20ComputeNonbondedUtil10switchOn_1E, align 8
  %223 = load float* @_ZN20ComputeNonbondedUtil8switchOnE, align 4
  %224 = load float* @_ZN20ComputeNonbondedUtil8switchOnE, align 4
  %225 = fmul float %223, %224
  %226 = fpext float %225 to double
  store double %226, double* @_ZN20ComputeNonbondedUtil9switchOn2E, align 8
  store double 0.000000e+00, double* @_ZN20ComputeNonbondedUtil2c0E, align 8
  br label %227

; <label>:227                                     ; preds = %218, %203
  %228 = load double* @_ZN20ComputeNonbondedUtil2c0E, align 8
  %229 = load double* @_ZN20ComputeNonbondedUtil2c0E, align 8
  %230 = fmul double %228, %229
  %231 = load double* @_ZN20ComputeNonbondedUtil2c0E, align 8
  %232 = fmul double %230, %231
  store double %232, double* @_ZN20ComputeNonbondedUtil2c1E, align 8
  %233 = load double* @_ZN20ComputeNonbondedUtil7cutoff2E, align 8
  %234 = load double* @_ZN20ComputeNonbondedUtil9switchOn2E, align 8
  %235 = fsub double %233, %234
  %236 = fmul double 3.000000e+00, %235
  store double %236, double* @_ZN20ComputeNonbondedUtil2c3E, align 8
  store double 0.000000e+00, double* @_ZN20ComputeNonbondedUtil2c5E, align 8
  store double 0.000000e+00, double* @_ZN20ComputeNonbondedUtil2c6E, align 8
  store double 0.000000e+00, double* @_ZN20ComputeNonbondedUtil2c7E, align 8
  store double 0.000000e+00, double* @_ZN20ComputeNonbondedUtil2c8E, align 8
  %237 = getelementptr inbounds %class.SimParameters* %simParams, i32 0, i32 35
  %238 = load i32* %237, align 4
  %239 = icmp ne i32 %238, 0
  br i1 %239, label %240, label %245

; <label>:240                                     ; preds = %227
  %241 = getelementptr inbounds %class.SimParameters* %simParams, i32 0, i32 37
  %242 = load double* %241, align 8
  store double %242, double* @_ZN20ComputeNonbondedUtil8ewaldcofE, align 8
  %243 = load double* @_ZN20ComputeNonbondedUtil8ewaldcofE, align 8
  %244 = fmul double 0x3FF20DD750429B61, %243
  store double %244, double* @_ZN20ComputeNonbondedUtil11pi_ewaldcofE, align 8
  br label %245

; <label>:245                                     ; preds = %240, %227
  %246 = getelementptr inbounds %class.SimParameters* %simParams, i32 0, i32 11
  %247 = load i32* %246, align 4
  %248 = icmp ne i32 %247, 0
  br i1 %248, label %249, label %250

; <label>:249                                     ; preds = %245
  br label %250

; <label>:250                                     ; preds = %249, %245
  %splitType.0 = phi i32 [ 2, %249 ], [ 1, %245 ]
  %251 = getelementptr inbounds %class.SimParameters* %simParams, i32 0, i32 34
  %252 = load i32* %251, align 4
  %253 = icmp ne i32 %252, 0
  br i1 %253, label %260, label %254

; <label>:254                                     ; preds = %250
  %255 = getelementptr inbounds %class.SimParameters* %simParams, i32 0, i32 33
  %256 = load i32* %255, align 4
  %257 = icmp ne i32 %256, 0
  br i1 %257, label %260, label %258

; <label>:258                                     ; preds = %254
  %259 = icmp ne i32 %238, 0
  br i1 %259, label %260, label %268

; <label>:260                                     ; preds = %258, %254, %250
  %261 = getelementptr inbounds %class.SimParameters* %simParams, i32 0, i32 38
  %262 = load i32* %261, align 4
  switch i32 %262, label %266 [
    i32 2, label %263
    i32 1, label %264
    i32 0, label %265
  ]

; <label>:263                                     ; preds = %260
  br label %267

; <label>:264                                     ; preds = %260
  call void @_Z8NAMD_diePKc(i8* getelementptr inbounds ([38 x i8]* @.str, i32 0, i32 0))
  br label %267

; <label>:265                                     ; preds = %260
  call void @_Z8NAMD_diePKc(i8* getelementptr inbounds ([38 x i8]* @.str1, i32 0, i32 0))
  br label %267

; <label>:266                                     ; preds = %260
  call void @_Z8NAMD_diePKc(i8* getelementptr inbounds ([30 x i8]* @.str2, i32 0, i32 0))
  br label %267

; <label>:267                                     ; preds = %266, %265, %264, %263
  %splitType.1 = phi i32 [ %splitType.0, %266 ], [ %splitType.0, %265 ], [ %splitType.0, %264 ], [ 3, %263 ]
  br label %268

; <label>:268                                     ; preds = %267, %258
  %splitType.2 = phi i32 [ %splitType.1, %267 ], [ %splitType.0, %258 ]
  store double 1.000000e+00, double* @_ZN20ComputeNonbondedUtil8r2_deltaE, align 8
  store i32 0, i32* @_ZN20ComputeNonbondedUtil12r2_delta_expE, align 4
  br label %269

; <label>:269                                     ; preds = %272, %268
  %270 = load double* @_ZN20ComputeNonbondedUtil8r2_deltaE, align 8
  %271 = fcmp ogt double %270, 1.000000e-01
  br i1 %271, label %272, label %277

; <label>:272                                     ; preds = %269
  %273 = load double* @_ZN20ComputeNonbondedUtil8r2_deltaE, align 8
  %274 = fdiv double %273, 2.000000e+00
  store double %274, double* @_ZN20ComputeNonbondedUtil8r2_deltaE, align 8
  %275 = load i32* @_ZN20ComputeNonbondedUtil12r2_delta_expE, align 4
  %276 = add nsw i32 %275, 1
  store i32 %276, i32* @_ZN20ComputeNonbondedUtil12r2_delta_expE, align 4
  br label %269

; <label>:277                                     ; preds = %269
  %278 = load double* @_ZN20ComputeNonbondedUtil8r2_deltaE, align 8
  %279 = fdiv double 1.000000e+00, %278
  store double %279, double* @_ZN20ComputeNonbondedUtil10r2_delta_1E, align 8
  br label %280

; <label>:280                                     ; preds = %283, %277
  %cutoff2_exp.0 = phi i32 [ 0, %277 ], [ %285, %283 ]
  %r2_tmp.0 = phi double [ 1.000000e+00, %277 ], [ %284, %283 ]
  %281 = load double* @_ZN20ComputeNonbondedUtil7cutoff2E, align 8
  %282 = fcmp ogt double %281, %r2_tmp.0
  br i1 %282, label %283, label %286

; <label>:283                                     ; preds = %280
  %284 = fmul double %r2_tmp.0, 2.000000e+00
  %285 = add nsw i32 %cutoff2_exp.0, 1
  br label %280

; <label>:286                                     ; preds = %280
  %287 = load i32* @_ZN20ComputeNonbondedUtil12r2_delta_expE, align 4
  %288 = add nsw i32 %287, %cutoff2_exp.0
  %289 = mul nsw i32 %288, 64
  %290 = add nsw i32 %289, 1
  %291 = load double** @_ZN20ComputeNonbondedUtil11table_allocE, align 8
  %292 = icmp ne double* %291, null
  br i1 %292, label %293, label %299

; <label>:293                                     ; preds = %286
  %294 = load double** @_ZN20ComputeNonbondedUtil11table_allocE, align 8
  %295 = icmp eq double* %294, null
  br i1 %295, label %298, label %296

; <label>:296                                     ; preds = %293
  %297 = bitcast double* %294 to i8*
  call void @_ZdaPv(i8* %297) #8
  br label %298

; <label>:298                                     ; preds = %296, %293
  br label %299

; <label>:299                                     ; preds = %298, %286
  %300 = mul nsw i32 60, %290
  %301 = add nsw i32 %300, 16
  %302 = sext i32 %301 to i64
  %303 = call { i64, i1 } @llvm.umul.with.overflow.i64(i64 %302, i64 8)
  %304 = extractvalue { i64, i1 } %303, 1
  %305 = extractvalue { i64, i1 } %303, 0
  %306 = select i1 %304, i64 -1, i64 %305
  %307 = call noalias i8* @_Znam(i64 %306) #9
  %308 = bitcast i8* %307 to double*
  store double* %308, double** @_ZN20ComputeNonbondedUtil11table_allocE, align 8
  %309 = load double** @_ZN20ComputeNonbondedUtil11table_allocE, align 8
  br label %310

; <label>:310                                     ; preds = %314, %299
  %table_align.0 = phi double* [ %309, %299 ], [ %315, %314 ]
  %311 = ptrtoint double* %table_align.0 to i64
  %312 = srem i64 %311, 128
  %313 = icmp ne i64 %312, 0
  br i1 %313, label %314, label %316

; <label>:314                                     ; preds = %310
  %315 = getelementptr inbounds double* %table_align.0, i32 1
  br label %310

; <label>:316                                     ; preds = %310
  store double* %table_align.0, double** @_ZN20ComputeNonbondedUtil13table_noshortE, align 8
  %317 = mul nsw i32 16, %290
  %318 = sext i32 %317 to i64
  %319 = getelementptr inbounds double* %table_align.0, i64 %318
  store double* %319, double** @_ZN20ComputeNonbondedUtil11table_shortE, align 8
  %320 = mul nsw i32 32, %290
  %321 = sext i32 %320 to i64
  %322 = getelementptr inbounds double* %table_align.0, i64 %321
  store double* %322, double** @_ZN20ComputeNonbondedUtil10slow_tableE, align 8
  %323 = mul nsw i32 36, %290
  %324 = sext i32 %323 to i64
  %325 = getelementptr inbounds double* %table_align.0, i64 %324
  store double* %325, double** @_ZN20ComputeNonbondedUtil10fast_tableE, align 8
  %326 = mul nsw i32 40, %290
  %327 = sext i32 %326 to i64
  %328 = getelementptr inbounds double* %table_align.0, i64 %327
  store double* %328, double** @_ZN20ComputeNonbondedUtil10scor_tableE, align 8
  %329 = mul nsw i32 44, %290
  %330 = sext i32 %329 to i64
  %331 = getelementptr inbounds double* %table_align.0, i64 %330
  store double* %331, double** @_ZN20ComputeNonbondedUtil10corr_tableE, align 8
  %332 = mul nsw i32 48, %290
  %333 = sext i32 %332 to i64
  %334 = getelementptr inbounds double* %table_align.0, i64 %333
  store double* %334, double** @_ZN20ComputeNonbondedUtil10full_tableE, align 8
  %335 = mul nsw i32 52, %290
  %336 = sext i32 %335 to i64
  %337 = getelementptr inbounds double* %table_align.0, i64 %336
  store double* %337, double** @_ZN20ComputeNonbondedUtil10vdwa_tableE, align 8
  %338 = mul nsw i32 56, %290
  %339 = sext i32 %338 to i64
  %340 = getelementptr inbounds double* %table_align.0, i64 %339
  store double* %340, double** @_ZN20ComputeNonbondedUtil10vdwb_tableE, align 8
  %341 = load double** @_ZN20ComputeNonbondedUtil10fast_tableE, align 8
  %342 = load double** @_ZN20ComputeNonbondedUtil10scor_tableE, align 8
  %343 = load double** @_ZN20ComputeNonbondedUtil10slow_tableE, align 8
  %344 = load double** @_ZN20ComputeNonbondedUtil10vdwa_tableE, align 8
  %345 = load double** @_ZN20ComputeNonbondedUtil10vdwb_tableE, align 8
  br label %346

; <label>:346                                     ; preds = %488, %316
  %slow_energy.0 = phi double [ undef, %316 ], [ %slow_energy.1, %488 ]
  %scor_gradient.0 = phi double [ undef, %316 ], [ %424, %488 ]
  %scor_energy.0 = phi double [ undef, %316 ], [ %scor_energy.1, %488 ]
  %fast_gradient.0 = phi double [ undef, %316 ], [ %422, %488 ]
  %fast_energy.0 = phi double [ undef, %316 ], [ %fast_energy.1, %488 ]
  %slow_gradient.0 = phi double [ undef, %316 ], [ %426, %488 ]
  %vdwb_i.0 = phi double* [ %345, %316 ], [ %487, %488 ]
  %vdwa_i.0 = phi double* [ %344, %316 ], [ %483, %488 ]
  %slow_i.0 = phi double* [ %343, %316 ], [ %479, %488 ]
  %scor_i.0 = phi double* [ %342, %316 ], [ %475, %488 ]
  %fast_i.0 = phi double* [ %341, %316 ], [ %471, %488 ]
  %i.0 = phi i32 [ 0, %316 ], [ %489, %488 ]
  %347 = icmp slt i32 %i.0, %290
  br i1 %347, label %348, label %490

; <label>:348                                     ; preds = %346
  %349 = load double* @_ZN20ComputeNonbondedUtil8r2_deltaE, align 8
  %350 = sdiv i32 %i.0, 64
  %351 = shl i32 1, %350
  %352 = sitofp i32 %351 to double
  %353 = fmul double %349, %352
  %354 = fdiv double %353, 6.400000e+01
  %355 = srem i32 %i.0, 64
  %356 = sitofp i32 %355 to double
  %357 = fmul double %354, %356
  %358 = fadd double %353, %357
  %359 = call double @sqrt(double %358) #10
  %360 = fdiv double 1.000000e+00, %359
  %361 = fdiv double 1.000000e+00, %358
  %362 = icmp ne i32 %238, 0
  br i1 %362, label %363, label %374

; <label>:363                                     ; preds = %348
  %364 = load double* @_ZN20ComputeNonbondedUtil8ewaldcofE, align 8
  %365 = fmul double %359, %364
  %366 = call double @erfc(double %365) #10
  %367 = load double* @_ZN20ComputeNonbondedUtil11pi_ewaldcofE, align 8
  %368 = fmul double %365, %365
  %369 = fsub double -0.000000e+00, %368
  %370 = call double @exp(double %369) #10
  %371 = fmul double %367, %370
  %372 = fmul double %371, %359
  %373 = fadd double %372, %366
  br label %375

; <label>:374                                     ; preds = %348
  br label %375

; <label>:375                                     ; preds = %374, %363
  %corr_energy.0 = phi double [ %366, %363 ], [ 0.000000e+00, %374 ]
  %corr_gradient.0 = phi double [ %373, %363 ], [ 0.000000e+00, %374 ]
  switch i32 %splitType.2, label %420 [
    i32 1, label %376
    i32 2, label %379
    i32 3, label %396
  ]

; <label>:376                                     ; preds = %375
  %377 = fdiv double 1.000000e+00, %359
  %378 = fdiv double -1.000000e+00, %358
  br label %420

; <label>:379                                     ; preds = %375
  %380 = load double* @_ZN20ComputeNonbondedUtil7cutoff2E, align 8
  %381 = fdiv double %358, %380
  %382 = fsub double %381, 1.000000e+00
  %383 = fmul double %382, %382
  %384 = load double* @_ZN20ComputeNonbondedUtil7cutoff2E, align 8
  %385 = fdiv double %358, %384
  %386 = fsub double %385, 1.000000e+00
  %387 = fmul double 2.000000e+00, %386
  %388 = fmul double %387, 2.000000e+00
  %389 = fmul double %388, %359
  %390 = load double* @_ZN20ComputeNonbondedUtil7cutoff2E, align 8
  %391 = fdiv double %389, %390
  %392 = fdiv double %383, %359
  %393 = fdiv double %391, %359
  %394 = fdiv double %383, %358
  %395 = fsub double %393, %394
  br label %420

; <label>:396                                     ; preds = %375
  %397 = load float* @_ZN20ComputeNonbondedUtil6cutoffE, align 4
  %398 = fpext float %397 to double
  %399 = fdiv double 5.000000e-01, %398
  %400 = load double* @_ZN20ComputeNonbondedUtil7cutoff2E, align 8
  %401 = fdiv double %358, %400
  %402 = fsub double 3.000000e+00, %401
  %403 = fmul double %399, %402
  %404 = load double* @_ZN20ComputeNonbondedUtil7cutoff2E, align 8
  %405 = fdiv double -1.000000e+00, %404
  %406 = load float* @_ZN20ComputeNonbondedUtil6cutoffE, align 4
  %407 = fpext float %406 to double
  %408 = fdiv double %359, %407
  %409 = fmul double %405, %408
  %410 = fsub double %corr_energy.0, 1.000000e+00
  %411 = fdiv double %410, %359
  %412 = fadd double %403, %411
  %413 = fsub double %corr_gradient.0, 1.000000e+00
  %414 = fdiv double %413, %358
  %415 = fsub double %409, %414
  %416 = fdiv double 1.000000e+00, %359
  %417 = fsub double %416, %403
  %418 = fdiv double -1.000000e+00, %358
  %419 = fsub double %418, %409
  br label %420

; <label>:420                                     ; preds = %396, %379, %376, %375
  %slow_energy.1 = phi double [ %slow_energy.0, %375 ], [ %403, %396 ], [ 0.000000e+00, %379 ], [ 0.000000e+00, %376 ]
  %scor_gradient.1 = phi double [ %scor_gradient.0, %375 ], [ %415, %396 ], [ 0.000000e+00, %379 ], [ 0.000000e+00, %376 ]
  %scor_energy.1 = phi double [ %scor_energy.0, %375 ], [ %412, %396 ], [ 0.000000e+00, %379 ], [ 0.000000e+00, %376 ]
  %fast_gradient.1 = phi double [ %fast_gradient.0, %375 ], [ %419, %396 ], [ %395, %379 ], [ %378, %376 ]
  %fast_energy.1 = phi double [ %fast_energy.0, %375 ], [ %417, %396 ], [ %392, %379 ], [ %377, %376 ]
  %slow_gradient.1 = phi double [ %slow_gradient.0, %375 ], [ %409, %396 ], [ 0.000000e+00, %379 ], [ 0.000000e+00, %376 ]
  %421 = fmul double 5.000000e-01, %360
  %422 = fmul double %fast_gradient.1, %421
  %423 = fmul double 5.000000e-01, %360
  %424 = fmul double %scor_gradient.1, %423
  %425 = fmul double 5.000000e-01, %360
  %426 = fmul double %slow_gradient.1, %425
  %427 = fmul double %361, %361
  %428 = fmul double %427, %361
  %429 = fmul double %428, %428
  %430 = load double* @_ZN20ComputeNonbondedUtil7cutoff2E, align 8
  %431 = fsub double %430, %358
  %432 = load double* @_ZN20ComputeNonbondedUtil2c3E, align 8
  %433 = fmul double 2.000000e+00, %431
  %434 = fsub double %432, %433
  %435 = fmul double %431, %434
  %436 = load double* @_ZN20ComputeNonbondedUtil9switchOn2E, align 8
  %437 = fcmp ogt double %358, %436
  br i1 %437, label %438, label %442

; <label>:438                                     ; preds = %420
  %439 = fmul double %431, %435
  %440 = load double* @_ZN20ComputeNonbondedUtil2c1E, align 8
  %441 = fmul double %439, %440
  br label %443

; <label>:442                                     ; preds = %420
  br label %443

; <label>:443                                     ; preds = %442, %438
  %444 = phi double [ %441, %438 ], [ 1.000000e+00, %442 ]
  %445 = load double* @_ZN20ComputeNonbondedUtil9switchOn2E, align 8
  %446 = fcmp ogt double %358, %445
  br i1 %446, label %447, label %453

; <label>:447                                     ; preds = %443
  %448 = load double* @_ZN20ComputeNonbondedUtil2c1E, align 8
  %449 = fmul double 2.000000e+00, %448
  %450 = fmul double %431, %431
  %451 = fsub double %450, %435
  %452 = fmul double %449, %451
  br label %454

; <label>:453                                     ; preds = %443
  br label %454

; <label>:454                                     ; preds = %453, %447
  %455 = phi double [ %452, %447 ], [ 0.000000e+00, %453 ]
  %456 = fmul double %444, %429
  %457 = fmul double %444, %428
  %458 = fmul double 6.000000e+00, %444
  %459 = fmul double %458, %361
  %460 = fsub double %455, %459
  %461 = fmul double %444, %460
  %462 = fmul double %461, %429
  %463 = fmul double 3.000000e+00, %444
  %464 = fmul double %463, %361
  %465 = fsub double %455, %464
  %466 = fmul double %444, %465
  %467 = fmul double %466, %428
  %468 = getelementptr inbounds double* %fast_i.0, i32 1
  store double %fast_energy.1, double* %fast_i.0, align 8
  %469 = getelementptr inbounds double* %468, i32 1
  store double %422, double* %468, align 8
  %470 = getelementptr inbounds double* %469, i32 1
  store double 0.000000e+00, double* %469, align 8
  %471 = getelementptr inbounds double* %470, i32 1
  store double 0.000000e+00, double* %470, align 8
  %472 = getelementptr inbounds double* %scor_i.0, i32 1
  store double %scor_energy.1, double* %scor_i.0, align 8
  %473 = getelementptr inbounds double* %472, i32 1
  store double %424, double* %472, align 8
  %474 = getelementptr inbounds double* %473, i32 1
  store double 0.000000e+00, double* %473, align 8
  %475 = getelementptr inbounds double* %474, i32 1
  store double 0.000000e+00, double* %474, align 8
  %476 = getelementptr inbounds double* %slow_i.0, i32 1
  store double %slow_energy.1, double* %slow_i.0, align 8
  %477 = getelementptr inbounds double* %476, i32 1
  store double %426, double* %476, align 8
  %478 = getelementptr inbounds double* %477, i32 1
  store double 0.000000e+00, double* %477, align 8
  %479 = getelementptr inbounds double* %478, i32 1
  store double 0.000000e+00, double* %478, align 8
  %480 = getelementptr inbounds double* %vdwa_i.0, i32 1
  store double %456, double* %vdwa_i.0, align 8
  %481 = getelementptr inbounds double* %480, i32 1
  store double %462, double* %480, align 8
  %482 = getelementptr inbounds double* %481, i32 1
  store double 0.000000e+00, double* %481, align 8
  %483 = getelementptr inbounds double* %482, i32 1
  store double 0.000000e+00, double* %482, align 8
  %484 = getelementptr inbounds double* %vdwb_i.0, i32 1
  store double %457, double* %vdwb_i.0, align 8
  %485 = getelementptr inbounds double* %484, i32 1
  store double %467, double* %484, align 8
  %486 = getelementptr inbounds double* %485, i32 1
  store double 0.000000e+00, double* %485, align 8
  %487 = getelementptr inbounds double* %486, i32 1
  store double 0.000000e+00, double* %486, align 8
  br label %488

; <label>:488                                     ; preds = %454
  %489 = add nsw i32 %i.0, 1
  br label %346

; <label>:490                                     ; preds = %346
  br label %491

; <label>:491                                     ; preds = %636, %490
  %j.0 = phi i32 [ 0, %490 ], [ %637, %636 ]
  %492 = icmp slt i32 %j.0, 5
  br i1 %492, label %493, label %638

; <label>:493                                     ; preds = %491
  switch i32 %j.0, label %504 [
    i32 0, label %494
    i32 1, label %496
    i32 2, label %498
    i32 3, label %500
    i32 4, label %502
  ]

; <label>:494                                     ; preds = %493
  %495 = load double** @_ZN20ComputeNonbondedUtil10fast_tableE, align 8
  br label %504

; <label>:496                                     ; preds = %493
  %497 = load double** @_ZN20ComputeNonbondedUtil10scor_tableE, align 8
  br label %504

; <label>:498                                     ; preds = %493
  %499 = load double** @_ZN20ComputeNonbondedUtil10slow_tableE, align 8
  br label %504

; <label>:500                                     ; preds = %493
  %501 = load double** @_ZN20ComputeNonbondedUtil10vdwa_tableE, align 8
  br label %504

; <label>:502                                     ; preds = %493
  %503 = load double** @_ZN20ComputeNonbondedUtil10vdwb_tableE, align 8
  br label %504

; <label>:504                                     ; preds = %502, %500, %498, %496, %494, %493
  %t0.0 = phi double* [ null, %493 ], [ %503, %502 ], [ %501, %500 ], [ %499, %498 ], [ %497, %496 ], [ %495, %494 ]
  br label %505

; <label>:505                                     ; preds = %574, %504
  %t.0 = phi double* [ %t0.0, %504 ], [ %576, %574 ]
  %i.1 = phi i32 [ 0, %504 ], [ %575, %574 ]
  %506 = sub nsw i32 %290, 1
  %507 = icmp slt i32 %i.1, %506
  br i1 %507, label %508, label %577

; <label>:508                                     ; preds = %505
  %509 = load double* @_ZN20ComputeNonbondedUtil8r2_deltaE, align 8
  %510 = sdiv i32 %i.1, 64
  %511 = shl i32 1, %510
  %512 = sitofp i32 %511 to double
  %513 = fmul double %509, %512
  %514 = fdiv double %513, 6.400000e+01
  %515 = getelementptr inbounds double* %t.0, i64 0
  %516 = load double* %515, align 8
  %517 = getelementptr inbounds double* %t.0, i64 1
  %518 = load double* %517, align 8
  %519 = getelementptr inbounds double* %t.0, i64 4
  %520 = load double* %519, align 8
  %521 = getelementptr inbounds double* %t.0, i64 5
  %522 = load double* %521, align 8
  %523 = fsub double %520, %516
  %524 = fmul double 3.000000e+00, %523
  %525 = fmul double 2.000000e+00, %518
  %526 = fadd double %525, %522
  %527 = fmul double %514, %526
  %528 = fsub double %524, %527
  %529 = fmul double %514, %514
  %530 = fdiv double %528, %529
  %531 = fsub double %520, %516
  %532 = fmul double -2.000000e+00, %531
  %533 = fadd double %518, %522
  %534 = fmul double %514, %533
  %535 = fadd double %532, %534
  %536 = fmul double %514, %514
  %537 = fmul double %536, %514
  %538 = fdiv double %535, %537
  br label %539

; <label>:539                                     ; preds = %569, %508
  %c.0 = phi double [ %530, %508 ], [ %561, %569 ]
  %d.0 = phi double [ %538, %508 ], [ %568, %569 ]
  %k.0 = phi i32 [ 0, %508 ], [ %570, %569 ]
  %540 = icmp slt i32 %k.0, 2
  br i1 %540, label %541, label %571

; <label>:541                                     ; preds = %539
  %542 = fsub double %516, %520
  %543 = fmul double %d.0, %514
  %544 = fadd double %543, %c.0
  %545 = fmul double %544, %514
  %546 = fadd double %545, %518
  %547 = fmul double %546, %514
  %548 = fadd double %542, %547
  %549 = fsub double %518, %522
  %550 = fmul double 3.000000e+00, %d.0
  %551 = fmul double %550, %514
  %552 = fmul double 2.000000e+00, %c.0
  %553 = fadd double %551, %552
  %554 = fmul double %553, %514
  %555 = fadd double %549, %554
  %556 = fmul double 3.000000e+00, %548
  %557 = fmul double %514, %555
  %558 = fsub double %556, %557
  %559 = fmul double %514, %514
  %560 = fdiv double %558, %559
  %561 = fsub double %c.0, %560
  %562 = fmul double -2.000000e+00, %548
  %563 = fmul double %514, %555
  %564 = fadd double %562, %563
  %565 = fmul double %514, %514
  %566 = fmul double %565, %514
  %567 = fdiv double %564, %566
  %568 = fsub double %d.0, %567
  br label %569

; <label>:569                                     ; preds = %541
  %570 = add nsw i32 %k.0, 1
  br label %539

; <label>:571                                     ; preds = %539
  %572 = getelementptr inbounds double* %t.0, i64 2
  store double %c.0, double* %572, align 8
  %573 = getelementptr inbounds double* %t.0, i64 3
  store double %d.0, double* %573, align 8
  br label %574

; <label>:574                                     ; preds = %571
  %575 = add nsw i32 %i.1, 1
  %576 = getelementptr inbounds double* %t.0, i64 4
  br label %505

; <label>:577                                     ; preds = %505
  br label %578

; <label>:578                                     ; preds = %632, %577
  %t.1 = phi double* [ %t0.0, %577 ], [ %634, %632 ]
  %i.2 = phi i32 [ 0, %577 ], [ %633, %632 ]
  %dvmax.0 = phi double [ 0.000000e+00, %577 ], [ %dvmax.1, %632 ]
  %dgmax.0 = phi double [ 0.000000e+00, %577 ], [ %dgmax.1, %632 ]
  %579 = sub nsw i32 %290, 1
  %580 = icmp slt i32 %i.2, %579
  br i1 %580, label %581, label %635

; <label>:581                                     ; preds = %578
  %582 = load double* @_ZN20ComputeNonbondedUtil8r2_deltaE, align 8
  %583 = sdiv i32 %i.2, 64
  %584 = shl i32 1, %583
  %585 = sitofp i32 %584 to double
  %586 = fmul double %582, %585
  %587 = fdiv double %586, 6.400000e+01
  %588 = getelementptr inbounds double* %t.1, i64 3
  %589 = load double* %588, align 8
  %590 = fmul double %589, %587
  %591 = getelementptr inbounds double* %t.1, i64 2
  %592 = load double* %591, align 8
  %593 = fadd double %590, %592
  %594 = fmul double %593, %587
  %595 = getelementptr inbounds double* %t.1, i64 1
  %596 = load double* %595, align 8
  %597 = fadd double %594, %596
  %598 = fmul double %597, %587
  %599 = getelementptr inbounds double* %t.1, i64 0
  %600 = load double* %599, align 8
  %601 = fadd double %598, %600
  %602 = getelementptr inbounds double* %t.1, i64 4
  %603 = load double* %602, align 8
  %604 = fsub double %601, %603
  %605 = getelementptr inbounds double* %t.1, i64 3
  %606 = load double* %605, align 8
  %607 = fmul double 3.000000e+00, %606
  %608 = fmul double %607, %587
  %609 = getelementptr inbounds double* %t.1, i64 2
  %610 = load double* %609, align 8
  %611 = fmul double 2.000000e+00, %610
  %612 = fadd double %608, %611
  %613 = fmul double %612, %587
  %614 = getelementptr inbounds double* %t.1, i64 1
  %615 = load double* %614, align 8
  %616 = fadd double %613, %615
  %617 = getelementptr inbounds double* %t.1, i64 5
  %618 = load double* %617, align 8
  %619 = fsub double %616, %618
  %620 = call double @fabs(double %604) #3
  %621 = fcmp ogt double %620, %dvmax.0
  br i1 %621, label %622, label %625

; <label>:622                                     ; preds = %581
  %623 = call double @fabs(double %604) #3
  %624 = sitofp i32 %i.2 to double
  br label %625

; <label>:625                                     ; preds = %622, %581
  %dvmax.1 = phi double [ %623, %622 ], [ %dvmax.0, %581 ]
  %626 = call double @fabs(double %619) #3
  %627 = fcmp ogt double %626, %dgmax.0
  br i1 %627, label %628, label %631

; <label>:628                                     ; preds = %625
  %629 = call double @fabs(double %619) #3
  %630 = sitofp i32 %i.2 to double
  br label %631

; <label>:631                                     ; preds = %628, %625
  %dgmax.1 = phi double [ %629, %628 ], [ %dgmax.0, %625 ]
  br label %632

; <label>:632                                     ; preds = %631
  %633 = add nsw i32 %i.2, 1
  %634 = getelementptr inbounds double* %t.1, i64 4
  br label %578

; <label>:635                                     ; preds = %578
  br label %636

; <label>:636                                     ; preds = %635
  %637 = add nsw i32 %j.0, 1
  br label %491

; <label>:638                                     ; preds = %491
  br label %639

; <label>:639                                     ; preds = %667, %638
  %i.3 = phi i32 [ 0, %638 ], [ %668, %667 ]
  %640 = mul nsw i32 4, %290
  %641 = icmp slt i32 %i.3, %640
  br i1 %641, label %642, label %669

; <label>:642                                     ; preds = %639
  %643 = sext i32 %i.3 to i64
  %644 = load double** @_ZN20ComputeNonbondedUtil10fast_tableE, align 8
  %645 = getelementptr inbounds double* %644, i64 %643
  %646 = load double* %645, align 8
  %647 = sext i32 %i.3 to i64
  %648 = load double** @_ZN20ComputeNonbondedUtil10scor_tableE, align 8
  %649 = getelementptr inbounds double* %648, i64 %647
  %650 = load double* %649, align 8
  %651 = fadd double %646, %650
  %652 = sext i32 %i.3 to i64
  %653 = load double** @_ZN20ComputeNonbondedUtil10corr_tableE, align 8
  %654 = getelementptr inbounds double* %653, i64 %652
  store double %651, double* %654, align 8
  %655 = sext i32 %i.3 to i64
  %656 = load double** @_ZN20ComputeNonbondedUtil10fast_tableE, align 8
  %657 = getelementptr inbounds double* %656, i64 %655
  %658 = load double* %657, align 8
  %659 = sext i32 %i.3 to i64
  %660 = load double** @_ZN20ComputeNonbondedUtil10slow_tableE, align 8
  %661 = getelementptr inbounds double* %660, i64 %659
  %662 = load double* %661, align 8
  %663 = fadd double %658, %662
  %664 = sext i32 %i.3 to i64
  %665 = load double** @_ZN20ComputeNonbondedUtil10full_tableE, align 8
  %666 = getelementptr inbounds double* %665, i64 %664
  store double %663, double* %666, align 8
  br label %667

; <label>:667                                     ; preds = %642
  %668 = add nsw i32 %i.3, 1
  br label %639

; <label>:669                                     ; preds = %639
  br label %670

; <label>:670                                     ; preds = %761, %669
  %i.4 = phi i32 [ 0, %669 ], [ %762, %761 ]
  %671 = icmp slt i32 %i.4, %290
  br i1 %671, label %672, label %763

; <label>:672                                     ; preds = %670
  br label %673

; <label>:673                                     ; preds = %758, %672
  %j7.0 = phi i32 [ 0, %672 ], [ %759, %758 ]
  %674 = icmp slt i32 %j7.0, 4
  br i1 %674, label %675, label %760

; <label>:675                                     ; preds = %673
  %676 = mul nsw i32 4, %i.4
  %677 = add nsw i32 %676, %j7.0
  %678 = sext i32 %677 to i64
  %679 = load double** @_ZN20ComputeNonbondedUtil10vdwa_tableE, align 8
  %680 = getelementptr inbounds double* %679, i64 %678
  %681 = load double* %680, align 8
  %682 = mul nsw i32 16, %i.4
  %683 = add nsw i32 %682, %j7.0
  %684 = sext i32 %683 to i64
  %685 = load double** @_ZN20ComputeNonbondedUtil13table_noshortE, align 8
  %686 = getelementptr inbounds double* %685, i64 %684
  store double %681, double* %686, align 8
  %687 = mul nsw i32 16, %i.4
  %688 = add nsw i32 %687, %j7.0
  %689 = sext i32 %688 to i64
  %690 = load double** @_ZN20ComputeNonbondedUtil11table_shortE, align 8
  %691 = getelementptr inbounds double* %690, i64 %689
  store double %681, double* %691, align 8
  %692 = mul nsw i32 4, %i.4
  %693 = add nsw i32 %692, %j7.0
  %694 = sext i32 %693 to i64
  %695 = load double** @_ZN20ComputeNonbondedUtil10vdwb_tableE, align 8
  %696 = getelementptr inbounds double* %695, i64 %694
  %697 = load double* %696, align 8
  %698 = mul nsw i32 16, %i.4
  %699 = add nsw i32 %698, 4
  %700 = add nsw i32 %699, %j7.0
  %701 = sext i32 %700 to i64
  %702 = load double** @_ZN20ComputeNonbondedUtil13table_noshortE, align 8
  %703 = getelementptr inbounds double* %702, i64 %701
  store double %697, double* %703, align 8
  %704 = mul nsw i32 16, %i.4
  %705 = add nsw i32 %704, 4
  %706 = add nsw i32 %705, %j7.0
  %707 = sext i32 %706 to i64
  %708 = load double** @_ZN20ComputeNonbondedUtil11table_shortE, align 8
  %709 = getelementptr inbounds double* %708, i64 %707
  store double %697, double* %709, align 8
  %710 = mul nsw i32 4, %i.4
  %711 = add nsw i32 %710, %j7.0
  %712 = sext i32 %711 to i64
  %713 = load double** @_ZN20ComputeNonbondedUtil10fast_tableE, align 8
  %714 = getelementptr inbounds double* %713, i64 %712
  %715 = load double* %714, align 8
  %716 = mul nsw i32 16, %i.4
  %717 = add nsw i32 %716, 8
  %718 = add nsw i32 %717, %j7.0
  %719 = sext i32 %718 to i64
  %720 = load double** @_ZN20ComputeNonbondedUtil11table_shortE, align 8
  %721 = getelementptr inbounds double* %720, i64 %719
  store double %715, double* %721, align 8
  %722 = mul nsw i32 4, %i.4
  %723 = add nsw i32 %722, %j7.0
  %724 = sext i32 %723 to i64
  %725 = load double** @_ZN20ComputeNonbondedUtil10scor_tableE, align 8
  %726 = getelementptr inbounds double* %725, i64 %724
  %727 = load double* %726, align 8
  %728 = mul nsw i32 16, %i.4
  %729 = add nsw i32 %728, 12
  %730 = add nsw i32 %729, %j7.0
  %731 = sext i32 %730 to i64
  %732 = load double** @_ZN20ComputeNonbondedUtil11table_shortE, align 8
  %733 = getelementptr inbounds double* %732, i64 %731
  store double %727, double* %733, align 8
  %734 = mul nsw i32 4, %i.4
  %735 = add nsw i32 %734, %j7.0
  %736 = sext i32 %735 to i64
  %737 = load double** @_ZN20ComputeNonbondedUtil10corr_tableE, align 8
  %738 = getelementptr inbounds double* %737, i64 %736
  %739 = load double* %738, align 8
  %740 = mul nsw i32 16, %i.4
  %741 = add nsw i32 %740, 8
  %742 = add nsw i32 %741, %j7.0
  %743 = sext i32 %742 to i64
  %744 = load double** @_ZN20ComputeNonbondedUtil13table_noshortE, align 8
  %745 = getelementptr inbounds double* %744, i64 %743
  store double %739, double* %745, align 8
  %746 = mul nsw i32 4, %i.4
  %747 = add nsw i32 %746, %j7.0
  %748 = sext i32 %747 to i64
  %749 = load double** @_ZN20ComputeNonbondedUtil10full_tableE, align 8
  %750 = getelementptr inbounds double* %749, i64 %748
  %751 = load double* %750, align 8
  %752 = mul nsw i32 16, %i.4
  %753 = add nsw i32 %752, 12
  %754 = add nsw i32 %753, %j7.0
  %755 = sext i32 %754 to i64
  %756 = load double** @_ZN20ComputeNonbondedUtil13table_noshortE, align 8
  %757 = getelementptr inbounds double* %756, i64 %755
  store double %751, double* %757, align 8
  br label %758

; <label>:758                                     ; preds = %675
  %759 = add nsw i32 %j7.0, 1
  br label %673

; <label>:760                                     ; preds = %673
  br label %761

; <label>:761                                     ; preds = %760
  %762 = add nsw i32 %i.4, 1
  br label %670

; <label>:763                                     ; preds = %670
  ret void
}

; Function Attrs: nobuiltin nounwind
declare void @_ZdaPv(i8*) #1

; Function Attrs: nobuiltin
declare noalias i8* @_Znam(i64) #2

; Function Attrs: uwtable
define void @_ZN20ComputeNonbondedUtil20calc_pair_energy_fepEP9nonbonded(%struct.nonbonded* %params) #0 align 2 {
  %ljNull = alloca %"struct.LJTable::TableEntry", align 8
  %grouplist_std = alloca [1005 x i32], align 16
  %fixglist_std = alloca [1005 x i32], align 16
  %goodglist_std = alloca [1005 x i32], align 16
  %pairlist_std = alloca [1005 x i32], align 16
  %pairlist2_std = alloca [1005 x i32], align 16
  %pairlistn_std = alloca [1005 x i32], align 16
  %pairlistx_std = alloca [1005 x i32], align 16
  %pairlistm_std = alloca [1005 x i32], align 16
  %r2f = alloca %union.anon.43, align 4
  %r2f29 = alloca %union.anon.44, align 4
  %1 = load i32* @_ZN20ComputeNonbondedUtil8commOnlyE, align 4
  %2 = icmp ne i32 %1, 0
  br i1 %2, label %3, label %4

; <label>:3                                       ; preds = %0
  br label %1221

; <label>:4                                       ; preds = %0
  %5 = getelementptr inbounds %struct.nonbonded* %params, i32 0, i32 4
  %6 = load double** %5, align 8
  %7 = load double* @_ZN20ComputeNonbondedUtil7cutoff2E, align 8
  %8 = load double* @_ZN20ComputeNonbondedUtil12groupcutoff2E, align 8
  %9 = load double* @_ZN20ComputeNonbondedUtil12dielectric_1E, align 8
  %10 = load %class.LJTable** @_ZN20ComputeNonbondedUtil7ljTableE, align 8
  %11 = getelementptr inbounds %"struct.LJTable::TableEntry"* %ljNull, i32 0, i32 0
  store double 0.000000e+00, double* %11, align 8
  %12 = getelementptr inbounds %"struct.LJTable::TableEntry"* %ljNull, i32 0, i32 1
  store double 0.000000e+00, double* %12, align 8
  %13 = load %class.Molecule** @_ZN20ComputeNonbondedUtil3molE, align 8
  %14 = load double** @_ZN20ComputeNonbondedUtil11table_shortE, align 8
  %15 = load double* @_ZN20ComputeNonbondedUtil7scalingE, align 8
  %16 = load double* @_ZN20ComputeNonbondedUtil7scale14E, align 8
  %17 = fsub double 1.000000e+00, %16
  %18 = load double* @_ZN20ComputeNonbondedUtil9switchOn2E, align 8
  %19 = load double* @_ZN20ComputeNonbondedUtil2c1E, align 8
  %20 = load double* @_ZN20ComputeNonbondedUtil2c3E, align 8
  %21 = load double* @_ZN20ComputeNonbondedUtil8r2_deltaE, align 8
  %22 = load i32* @_ZN20ComputeNonbondedUtil12r2_delta_expE, align 4
  %23 = sub nsw i32 %22, 127
  %24 = mul nsw i32 64, %23
  %25 = getelementptr inbounds %struct.nonbonded* %params, i32 0, i32 3
  %26 = getelementptr inbounds [2 x i32]* %25, i32 0, i64 0
  %27 = load i32* %26, align 4
  %28 = getelementptr inbounds %struct.nonbonded* %params, i32 0, i32 3
  %29 = getelementptr inbounds [2 x i32]* %28, i32 0, i64 1
  %30 = load i32* %29, align 4
  %31 = getelementptr inbounds %struct.nonbonded* %params, i32 0, i32 0
  %32 = getelementptr inbounds [2 x %struct.CompAtom*]* %31, i32 0, i64 0
  %33 = load %struct.CompAtom** %32, align 8
  %34 = getelementptr inbounds %struct.nonbonded* %params, i32 0, i32 0
  %35 = getelementptr inbounds [2 x %struct.CompAtom*]* %34, i32 0, i64 1
  %36 = load %struct.CompAtom** %35, align 8
  %37 = icmp slt i32 %30, 1000
  br i1 %37, label %38, label %40

; <label>:38                                      ; preds = %4
  %39 = getelementptr inbounds [1005 x i32]* %grouplist_std, i32 0, i32 0
  br label %49

; <label>:40                                      ; preds = %4
  %41 = add nsw i32 %30, 5
  %42 = sext i32 %41 to i64
  %43 = call { i64, i1 } @llvm.umul.with.overflow.i64(i64 %42, i64 4)
  %44 = extractvalue { i64, i1 } %43, 1
  %45 = extractvalue { i64, i1 } %43, 0
  %46 = select i1 %44, i64 -1, i64 %45
  %47 = call noalias i8* @_Znam(i64 %46) #9
  %48 = bitcast i8* %47 to i32*
  br label %49

; <label>:49                                      ; preds = %40, %38
  %50 = phi i32* [ %39, %38 ], [ %48, %40 ]
  %51 = icmp slt i32 %30, 1000
  br i1 %51, label %52, label %54

; <label>:52                                      ; preds = %49
  %53 = getelementptr inbounds [1005 x i32]* %fixglist_std, i32 0, i32 0
  br label %63

; <label>:54                                      ; preds = %49
  %55 = add nsw i32 %30, 5
  %56 = sext i32 %55 to i64
  %57 = call { i64, i1 } @llvm.umul.with.overflow.i64(i64 %56, i64 4)
  %58 = extractvalue { i64, i1 } %57, 1
  %59 = extractvalue { i64, i1 } %57, 0
  %60 = select i1 %58, i64 -1, i64 %59
  %61 = call noalias i8* @_Znam(i64 %60) #9
  %62 = bitcast i8* %61 to i32*
  br label %63

; <label>:63                                      ; preds = %54, %52
  %64 = phi i32* [ %53, %52 ], [ %62, %54 ]
  %65 = icmp slt i32 %30, 1000
  br i1 %65, label %66, label %68

; <label>:66                                      ; preds = %63
  %67 = getelementptr inbounds [1005 x i32]* %goodglist_std, i32 0, i32 0
  br label %77

; <label>:68                                      ; preds = %63
  %69 = add nsw i32 %30, 5
  %70 = sext i32 %69 to i64
  %71 = call { i64, i1 } @llvm.umul.with.overflow.i64(i64 %70, i64 4)
  %72 = extractvalue { i64, i1 } %71, 1
  %73 = extractvalue { i64, i1 } %71, 0
  %74 = select i1 %72, i64 -1, i64 %73
  %75 = call noalias i8* @_Znam(i64 %74) #9
  %76 = bitcast i8* %75 to i32*
  br label %77

; <label>:77                                      ; preds = %68, %66
  %78 = phi i32* [ %67, %66 ], [ %76, %68 ]
  br label %79

; <label>:79                                      ; preds = %102, %77
  %g.0 = phi i32 [ 0, %77 ], [ %g.1, %102 ]
  %j.0 = phi i32 [ 0, %77 ], [ %103, %102 ]
  %80 = icmp slt i32 %j.0, %30
  br i1 %80, label %81, label %104

; <label>:81                                      ; preds = %79
  %82 = sext i32 %j.0 to i64
  %83 = getelementptr inbounds %struct.CompAtom* %36, i64 %82
  %84 = getelementptr inbounds %struct.CompAtom* %83, i32 0, i32 2
  %85 = load i32* %84, align 4
  %86 = lshr i32 %85, 22
  %87 = and i32 %86, 7
  %88 = icmp ne i32 %87, 0
  br i1 %88, label %97, label %89

; <label>:89                                      ; preds = %81
  %90 = sext i32 %j.0 to i64
  %91 = getelementptr inbounds %struct.CompAtom* %36, i64 %90
  %92 = getelementptr inbounds %struct.CompAtom* %91, i32 0, i32 2
  %93 = load i32* %92, align 4
  %94 = lshr i32 %93, 25
  %95 = and i32 %94, 1
  %96 = icmp ne i32 %95, 0
  br i1 %96, label %97, label %101

; <label>:97                                      ; preds = %89, %81
  %98 = add nsw i32 %g.0, 1
  %99 = sext i32 %g.0 to i64
  %100 = getelementptr inbounds i32* %50, i64 %99
  store i32 %j.0, i32* %100, align 4
  br label %101

; <label>:101                                     ; preds = %97, %89
  %g.1 = phi i32 [ %98, %97 ], [ %g.0, %89 ]
  br label %102

; <label>:102                                     ; preds = %101
  %103 = add nsw i32 %j.0, 1
  br label %79

; <label>:104                                     ; preds = %79
  %105 = icmp ne i32 %g.0, 0
  br i1 %105, label %106, label %113

; <label>:106                                     ; preds = %104
  %107 = sub nsw i32 %g.0, 1
  %108 = sext i32 %107 to i64
  %109 = getelementptr inbounds i32* %50, i64 %108
  %110 = load i32* %109, align 4
  %111 = sext i32 %g.0 to i64
  %112 = getelementptr inbounds i32* %50, i64 %111
  store i32 %110, i32* %112, align 4
  br label %113

; <label>:113                                     ; preds = %106, %104
  %114 = load i32* @_ZN20ComputeNonbondedUtil12fixedAtomsOnE, align 4
  %115 = icmp ne i32 %114, 0
  br i1 %115, label %116, label %184

; <label>:116                                     ; preds = %113
  br label %117

; <label>:117                                     ; preds = %135, %116
  %all_fixed.0 = phi i32 [ 1, %116 ], [ %all_fixed.1, %135 ]
  %fixg.0 = phi i32 [ 0, %116 ], [ %fixg.1, %135 ]
  %g.2 = phi i32 [ 0, %116 ], [ %136, %135 ]
  %118 = icmp slt i32 %g.2, %g.0
  br i1 %118, label %119, label %137

; <label>:119                                     ; preds = %117
  %120 = sext i32 %g.2 to i64
  %121 = getelementptr inbounds i32* %50, i64 %120
  %122 = load i32* %121, align 4
  %123 = sext i32 %122 to i64
  %124 = getelementptr inbounds %struct.CompAtom* %36, i64 %123
  %125 = getelementptr inbounds %struct.CompAtom* %124, i32 0, i32 2
  %126 = load i32* %125, align 4
  %127 = lshr i32 %126, 27
  %128 = and i32 %127, 1
  %129 = icmp ne i32 %128, 0
  br i1 %129, label %134, label %130

; <label>:130                                     ; preds = %119
  %131 = add nsw i32 %fixg.0, 1
  %132 = sext i32 %fixg.0 to i64
  %133 = getelementptr inbounds i32* %64, i64 %132
  store i32 %122, i32* %133, align 4
  br label %134

; <label>:134                                     ; preds = %130, %119
  %all_fixed.1 = phi i32 [ %all_fixed.0, %119 ], [ 0, %130 ]
  %fixg.1 = phi i32 [ %fixg.0, %119 ], [ %131, %130 ]
  br label %135

; <label>:135                                     ; preds = %134
  %136 = add nsw i32 %g.2, 1
  br label %117

; <label>:137                                     ; preds = %117
  br label %138

; <label>:138                                     ; preds = %154, %137
  %all_fixed.2 = phi i32 [ %all_fixed.0, %137 ], [ %all_fixed.3, %154 ]
  %i.0 = phi i32 [ 0, %137 ], [ %155, %154 ]
  %139 = icmp ne i32 %all_fixed.2, 0
  br i1 %139, label %140, label %142

; <label>:140                                     ; preds = %138
  %141 = icmp slt i32 %i.0, %27
  br label %142

; <label>:142                                     ; preds = %140, %138
  %143 = phi i1 [ false, %138 ], [ %141, %140 ]
  br i1 %143, label %144, label %156

; <label>:144                                     ; preds = %142
  %145 = sext i32 %i.0 to i64
  %146 = getelementptr inbounds %struct.CompAtom* %33, i64 %145
  %147 = getelementptr inbounds %struct.CompAtom* %146, i32 0, i32 2
  %148 = load i32* %147, align 4
  %149 = lshr i32 %148, 26
  %150 = and i32 %149, 1
  %151 = icmp ne i32 %150, 0
  br i1 %151, label %153, label %152

; <label>:152                                     ; preds = %144
  br label %153

; <label>:153                                     ; preds = %152, %144
  %all_fixed.3 = phi i32 [ %all_fixed.2, %144 ], [ 0, %152 ]
  br label %154

; <label>:154                                     ; preds = %153
  %155 = add nsw i32 %i.0, 1
  br label %138

; <label>:156                                     ; preds = %142
  %157 = icmp ne i32 %all_fixed.2, 0
  br i1 %157, label %158, label %183

; <label>:158                                     ; preds = %156
  %159 = getelementptr inbounds [1005 x i32]* %grouplist_std, i32 0, i32 0
  %160 = icmp ne i32* %50, %159
  br i1 %160, label %161, label %166

; <label>:161                                     ; preds = %158
  %162 = icmp eq i32* %50, null
  br i1 %162, label %165, label %163

; <label>:163                                     ; preds = %161
  %164 = bitcast i32* %50 to i8*
  call void @_ZdaPv(i8* %164) #8
  br label %165

; <label>:165                                     ; preds = %163, %161
  br label %166

; <label>:166                                     ; preds = %165, %158
  %167 = getelementptr inbounds [1005 x i32]* %fixglist_std, i32 0, i32 0
  %168 = icmp ne i32* %64, %167
  br i1 %168, label %169, label %174

; <label>:169                                     ; preds = %166
  %170 = icmp eq i32* %64, null
  br i1 %170, label %173, label %171

; <label>:171                                     ; preds = %169
  %172 = bitcast i32* %64 to i8*
  call void @_ZdaPv(i8* %172) #8
  br label %173

; <label>:173                                     ; preds = %171, %169
  br label %174

; <label>:174                                     ; preds = %173, %166
  %175 = getelementptr inbounds [1005 x i32]* %goodglist_std, i32 0, i32 0
  %176 = icmp ne i32* %78, %175
  br i1 %176, label %177, label %182

; <label>:177                                     ; preds = %174
  %178 = icmp eq i32* %78, null
  br i1 %178, label %181, label %179

; <label>:179                                     ; preds = %177
  %180 = bitcast i32* %78 to i8*
  call void @_ZdaPv(i8* %180) #8
  br label %181

; <label>:181                                     ; preds = %179, %177
  br label %182

; <label>:182                                     ; preds = %181, %174
  br label %1221

; <label>:183                                     ; preds = %156
  br label %184

; <label>:184                                     ; preds = %183, %113
  %fixg.2 = phi i32 [ %fixg.0, %183 ], [ 0, %113 ]
  %185 = icmp ne i32 %fixg.2, 0
  br i1 %185, label %186, label %193

; <label>:186                                     ; preds = %184
  %187 = sub nsw i32 %fixg.2, 1
  %188 = sext i32 %187 to i64
  %189 = getelementptr inbounds i32* %64, i64 %188
  %190 = load i32* %189, align 4
  %191 = sext i32 %fixg.2 to i64
  %192 = getelementptr inbounds i32* %64, i64 %191
  store i32 %190, i32* %192, align 4
  br label %193

; <label>:193                                     ; preds = %186, %184
  %194 = icmp slt i32 %30, 1000
  br i1 %194, label %195, label %197

; <label>:195                                     ; preds = %193
  %196 = getelementptr inbounds [1005 x i32]* %pairlist_std, i32 0, i32 0
  br label %206

; <label>:197                                     ; preds = %193
  %198 = add nsw i32 %30, 5
  %199 = sext i32 %198 to i64
  %200 = call { i64, i1 } @llvm.umul.with.overflow.i64(i64 %199, i64 4)
  %201 = extractvalue { i64, i1 } %200, 1
  %202 = extractvalue { i64, i1 } %200, 0
  %203 = select i1 %201, i64 -1, i64 %202
  %204 = call noalias i8* @_Znam(i64 %203) #9
  %205 = bitcast i8* %204 to i32*
  br label %206

; <label>:206                                     ; preds = %197, %195
  %207 = phi i32* [ %196, %195 ], [ %205, %197 ]
  %208 = icmp slt i32 %30, 1000
  br i1 %208, label %209, label %211

; <label>:209                                     ; preds = %206
  %210 = getelementptr inbounds [1005 x i32]* %pairlist2_std, i32 0, i32 0
  br label %220

; <label>:211                                     ; preds = %206
  %212 = add nsw i32 %30, 5
  %213 = sext i32 %212 to i64
  %214 = call { i64, i1 } @llvm.umul.with.overflow.i64(i64 %213, i64 4)
  %215 = extractvalue { i64, i1 } %214, 1
  %216 = extractvalue { i64, i1 } %214, 0
  %217 = select i1 %215, i64 -1, i64 %216
  %218 = call noalias i8* @_Znam(i64 %217) #9
  %219 = bitcast i8* %218 to i32*
  br label %220

; <label>:220                                     ; preds = %211, %209
  %221 = phi i32* [ %210, %209 ], [ %219, %211 ]
  %222 = icmp slt i32 %30, 1000
  br i1 %222, label %223, label %225

; <label>:223                                     ; preds = %220
  %224 = getelementptr inbounds [1005 x i32]* %pairlistn_std, i32 0, i32 0
  br label %234

; <label>:225                                     ; preds = %220
  %226 = add nsw i32 %30, 5
  %227 = sext i32 %226 to i64
  %228 = call { i64, i1 } @llvm.umul.with.overflow.i64(i64 %227, i64 4)
  %229 = extractvalue { i64, i1 } %228, 1
  %230 = extractvalue { i64, i1 } %228, 0
  %231 = select i1 %229, i64 -1, i64 %230
  %232 = call noalias i8* @_Znam(i64 %231) #9
  %233 = bitcast i8* %232 to i32*
  br label %234

; <label>:234                                     ; preds = %225, %223
  %235 = phi i32* [ %224, %223 ], [ %233, %225 ]
  %236 = icmp slt i32 %30, 1000
  br i1 %236, label %237, label %239

; <label>:237                                     ; preds = %234
  %238 = getelementptr inbounds [1005 x i32]* %pairlistx_std, i32 0, i32 0
  br label %248

; <label>:239                                     ; preds = %234
  %240 = add nsw i32 %30, 5
  %241 = sext i32 %240 to i64
  %242 = call { i64, i1 } @llvm.umul.with.overflow.i64(i64 %241, i64 4)
  %243 = extractvalue { i64, i1 } %242, 1
  %244 = extractvalue { i64, i1 } %242, 0
  %245 = select i1 %243, i64 -1, i64 %244
  %246 = call noalias i8* @_Znam(i64 %245) #9
  %247 = bitcast i8* %246 to i32*
  br label %248

; <label>:248                                     ; preds = %239, %237
  %249 = phi i32* [ %238, %237 ], [ %247, %239 ]
  %250 = icmp slt i32 %30, 1000
  br i1 %250, label %251, label %253

; <label>:251                                     ; preds = %248
  %252 = getelementptr inbounds [1005 x i32]* %pairlistm_std, i32 0, i32 0
  br label %262

; <label>:253                                     ; preds = %248
  %254 = add nsw i32 %30, 5
  %255 = sext i32 %254 to i64
  %256 = call { i64, i1 } @llvm.umul.with.overflow.i64(i64 %255, i64 4)
  %257 = extractvalue { i64, i1 } %256, 1
  %258 = extractvalue { i64, i1 } %256, 0
  %259 = select i1 %257, i64 -1, i64 %258
  %260 = call noalias i8* @_Znam(i64 %259) #9
  %261 = bitcast i8* %260 to i32*
  br label %262

; <label>:262                                     ; preds = %253, %251
  %263 = phi i32* [ %252, %251 ], [ %261, %253 ]
  %264 = getelementptr inbounds %struct.nonbonded* %params, i32 0, i32 1
  %265 = getelementptr inbounds [2 x %class.Vector*]* %264, i32 0, i64 0
  %266 = load %class.Vector** %265, align 8
  %267 = getelementptr inbounds %struct.nonbonded* %params, i32 0, i32 1
  %268 = getelementptr inbounds [2 x %class.Vector*]* %267, i32 0, i64 1
  %269 = load %class.Vector** %268, align 8
  %270 = mul nsw i32 %27, %30
  %271 = getelementptr inbounds %struct.nonbonded* %params, i32 0, i32 8
  %272 = load i32* %271, align 4
  %273 = mul nsw i32 %270, %272
  %274 = getelementptr inbounds %struct.nonbonded* %params, i32 0, i32 10
  %275 = load i32* %274, align 4
  %276 = sdiv i32 %273, %275
  %277 = getelementptr inbounds %struct.nonbonded* %params, i32 0, i32 9
  %278 = load i32* %277, align 4
  %279 = mul nsw i32 %270, %278
  %280 = getelementptr inbounds %struct.nonbonded* %params, i32 0, i32 10
  %281 = load i32* %280, align 4
  %282 = sdiv i32 %279, %281
  br label %283

; <label>:283                                     ; preds = %1111, %262
  %pairlistindex.0 = phi i32 [ 0, %262 ], [ %pairlistindex.2, %1111 ]
  %pairlistoffset.0 = phi i32 [ 0, %262 ], [ %pairlistoffset.2, %1111 ]
  %pairCount.0 = phi i32 [ 0, %262 ], [ %pairCount.3, %1111 ]
  %i.1 = phi i32 [ 0, %262 ], [ %1112, %1111 ]
  %virial_zz.0 = phi double [ 0.000000e+00, %262 ], [ %virial_zz.3, %1111 ]
  %virial_yz.0 = phi double [ 0.000000e+00, %262 ], [ %virial_yz.3, %1111 ]
  %virial_yy.0 = phi double [ 0.000000e+00, %262 ], [ %virial_yy.3, %1111 ]
  %virial_xz.0 = phi double [ 0.000000e+00, %262 ], [ %virial_xz.3, %1111 ]
  %virial_xy.0 = phi double [ 0.000000e+00, %262 ], [ %virial_xy.3, %1111 ]
  %virial_xx.0 = phi double [ 0.000000e+00, %262 ], [ %virial_xx.3, %1111 ]
  %electEnergy_s.0 = phi double [ 0.000000e+00, %262 ], [ %electEnergy_s.3, %1111 ]
  %vdwEnergy_s.0 = phi double [ 0.000000e+00, %262 ], [ %vdwEnergy_s.3, %1111 ]
  %electEnergy.0 = phi double [ 0.000000e+00, %262 ], [ %electEnergy.3, %1111 ]
  %vdwEnergy.0 = phi double [ 0.000000e+00, %262 ], [ %vdwEnergy.3, %1111 ]
  %exclChecksum.0 = phi i32 [ 0, %262 ], [ %exclChecksum.9, %1111 ]
  %284 = icmp slt i32 %i.1, %27
  br i1 %284, label %285, label %1113

; <label>:285                                     ; preds = %283
  %286 = sext i32 %i.1 to i64
  %287 = getelementptr inbounds %struct.CompAtom* %33, i64 %286
  %288 = getelementptr inbounds %struct.CompAtom* %287, i32 0, i32 2
  %289 = load i32* %288, align 4
  %290 = and i32 %289, 4194303
  %291 = call %class.ExclusionCheck* @_ZNK8Molecule23get_excl_check_for_atomEi(%class.Molecule* %13, i32 %290)
  %292 = getelementptr inbounds %class.ExclusionCheck* %291, i32 0, i32 0
  %293 = load i32* %292, align 4
  %294 = getelementptr inbounds %class.ExclusionCheck* %291, i32 0, i32 1
  %295 = load i32* %294, align 4
  %296 = getelementptr inbounds %class.ExclusionCheck* %291, i32 0, i32 2
  %297 = load i8** %296, align 8
  %298 = sext i32 %293 to i64
  %299 = sub i64 0, %298
  %300 = getelementptr inbounds i8* %297, i64 %299
  %301 = getelementptr inbounds %struct.CompAtom* %287, i32 0, i32 0
  %302 = getelementptr inbounds %class.Vector* %301, i32 0, i32 0
  %303 = load double* %302, align 8
  %304 = getelementptr inbounds %struct.CompAtom* %287, i32 0, i32 0
  %305 = getelementptr inbounds %class.Vector* %304, i32 0, i32 1
  %306 = load double* %305, align 8
  %307 = getelementptr inbounds %struct.CompAtom* %287, i32 0, i32 0
  %308 = getelementptr inbounds %class.Vector* %307, i32 0, i32 2
  %309 = load double* %308, align 8
  %310 = sext i32 %i.1 to i64
  %311 = getelementptr inbounds %class.Vector* %266, i64 %310
  %312 = getelementptr inbounds %struct.CompAtom* %287, i32 0, i32 2
  %313 = load i32* %312, align 4
  %314 = lshr i32 %313, 22
  %315 = and i32 %314, 7
  %316 = icmp ne i32 %315, 0
  br i1 %316, label %323, label %317

; <label>:317                                     ; preds = %285
  %318 = getelementptr inbounds %struct.CompAtom* %287, i32 0, i32 2
  %319 = load i32* %318, align 4
  %320 = lshr i32 %319, 25
  %321 = and i32 %320, 1
  %322 = icmp ne i32 %321, 0
  br i1 %322, label %323, label %493

; <label>:323                                     ; preds = %317, %285
  %324 = getelementptr inbounds %struct.CompAtom* %287, i32 0, i32 2
  %325 = load i32* %324, align 4
  %326 = lshr i32 %325, 22
  %327 = and i32 %326, 7
  %328 = icmp ne i32 %327, 0
  br i1 %328, label %329, label %343

; <label>:329                                     ; preds = %323
  %330 = getelementptr inbounds %struct.CompAtom* %287, i32 0, i32 2
  %331 = load i32* %330, align 4
  %332 = lshr i32 %331, 22
  %333 = and i32 %332, 7
  %334 = mul nsw i32 %333, %30
  %335 = add nsw i32 %pairCount.0, %334
  %336 = icmp slt i32 %pairCount.0, %276
  br i1 %336, label %339, label %337

; <label>:337                                     ; preds = %329
  %338 = icmp sge i32 %pairCount.0, %282
  br i1 %338, label %339, label %342

; <label>:339                                     ; preds = %337, %329
  %340 = sub nsw i32 %333, 1
  %341 = add nsw i32 %i.1, %340
  br label %1111

; <label>:342                                     ; preds = %337
  br label %343

; <label>:343                                     ; preds = %342, %323
  %pairCount.1 = phi i32 [ %335, %342 ], [ %pairCount.0, %323 ]
  %344 = load i32* @_ZN20ComputeNonbondedUtil12fixedAtomsOnE, align 4
  %345 = icmp ne i32 %344, 0
  br i1 %345, label %346, label %352

; <label>:346                                     ; preds = %343
  %347 = getelementptr inbounds %struct.CompAtom* %287, i32 0, i32 2
  %348 = load i32* %347, align 4
  %349 = lshr i32 %348, 27
  %350 = and i32 %349, 1
  %351 = icmp ne i32 %350, 0
  br label %352

; <label>:352                                     ; preds = %346, %343
  %353 = phi i1 [ false, %343 ], [ %351, %346 ]
  %354 = zext i1 %353 to i32
  %355 = sext i32 0 to i64
  %356 = getelementptr inbounds i32* %207, i64 %355
  %357 = icmp ne i32 %354, 0
  br i1 %357, label %358, label %359

; <label>:358                                     ; preds = %352
  br label %360

; <label>:359                                     ; preds = %352
  br label %360

; <label>:360                                     ; preds = %359, %358
  %361 = phi i32* [ %64, %358 ], [ %50, %359 ]
  %362 = icmp ne i32 %354, 0
  br i1 %362, label %363, label %364

; <label>:363                                     ; preds = %360
  br label %365

; <label>:364                                     ; preds = %360
  br label %365

; <label>:365                                     ; preds = %364, %363
  %366 = phi i32 [ %fixg.2, %363 ], [ %g.0, %364 ]
  %367 = icmp slt i32 0, %366
  br i1 %367, label %368, label %462

; <label>:368                                     ; preds = %365
  %369 = sext i32 0 to i64
  %370 = getelementptr inbounds i32* %361, i64 %369
  %371 = load i32* %370, align 4
  %372 = sext i32 %371 to i64
  %373 = getelementptr inbounds %struct.CompAtom* %36, i64 %372
  %374 = getelementptr inbounds %struct.CompAtom* %373, i32 0, i32 0
  %375 = getelementptr inbounds %class.Vector* %374, i32 0, i32 0
  %376 = load double* %375, align 8
  %377 = sext i32 %371 to i64
  %378 = getelementptr inbounds %struct.CompAtom* %36, i64 %377
  %379 = getelementptr inbounds %struct.CompAtom* %378, i32 0, i32 0
  %380 = getelementptr inbounds %class.Vector* %379, i32 0, i32 1
  %381 = load double* %380, align 8
  %382 = sext i32 %371 to i64
  %383 = getelementptr inbounds %struct.CompAtom* %36, i64 %382
  %384 = getelementptr inbounds %struct.CompAtom* %383, i32 0, i32 0
  %385 = getelementptr inbounds %class.Vector* %384, i32 0, i32 2
  %386 = load double* %385, align 8
  br label %387

; <label>:387                                     ; preds = %420, %368
  %g.3 = phi i32 [ 0, %368 ], [ %390, %420 ]
  %gli.0 = phi i32* [ %78, %368 ], [ %gli.1, %420 ]
  %j2.0 = phi i32 [ %371, %368 ], [ %393, %420 ]
  %p_j_x.0 = phi double [ %376, %368 ], [ %400, %420 ]
  %p_j_y.0 = phi double [ %381, %368 ], [ %408, %420 ]
  %p_j_z.0 = phi double [ %386, %368 ], [ %416, %420 ]
  %388 = icmp slt i32 %g.3, %366
  br i1 %388, label %389, label %421

; <label>:389                                     ; preds = %387
  %390 = add nsw i32 %g.3, 1
  %391 = sext i32 %390 to i64
  %392 = getelementptr inbounds i32* %361, i64 %391
  %393 = load i32* %392, align 4
  %394 = fsub double %303, %p_j_x.0
  %395 = fmul double %394, %394
  %396 = sext i32 %393 to i64
  %397 = getelementptr inbounds %struct.CompAtom* %36, i64 %396
  %398 = getelementptr inbounds %struct.CompAtom* %397, i32 0, i32 0
  %399 = getelementptr inbounds %class.Vector* %398, i32 0, i32 0
  %400 = load double* %399, align 8
  %401 = fsub double %306, %p_j_y.0
  %402 = fmul double %401, %401
  %403 = fadd double %395, %402
  %404 = sext i32 %393 to i64
  %405 = getelementptr inbounds %struct.CompAtom* %36, i64 %404
  %406 = getelementptr inbounds %struct.CompAtom* %405, i32 0, i32 0
  %407 = getelementptr inbounds %class.Vector* %406, i32 0, i32 1
  %408 = load double* %407, align 8
  %409 = fsub double %309, %p_j_z.0
  %410 = fmul double %409, %409
  %411 = fadd double %403, %410
  %412 = sext i32 %393 to i64
  %413 = getelementptr inbounds %struct.CompAtom* %36, i64 %412
  %414 = getelementptr inbounds %struct.CompAtom* %413, i32 0, i32 0
  %415 = getelementptr inbounds %class.Vector* %414, i32 0, i32 2
  %416 = load double* %415, align 8
  %417 = fcmp ole double %411, %8
  br i1 %417, label %418, label %420

; <label>:418                                     ; preds = %389
  store i32 %j2.0, i32* %gli.0, align 4
  %419 = getelementptr inbounds i32* %gli.0, i32 1
  br label %420

; <label>:420                                     ; preds = %418, %389
  %gli.1 = phi i32* [ %419, %418 ], [ %gli.0, %389 ]
  br label %387

; <label>:421                                     ; preds = %387
  %422 = ptrtoint i32* %gli.0 to i64
  %423 = ptrtoint i32* %78 to i64
  %424 = sub i64 %422, %423
  %425 = sdiv exact i64 %424, 4
  %426 = trunc i64 %425 to i32
  br label %427

; <label>:427                                     ; preds = %459, %421
  %pli.0 = phi i32* [ %356, %421 ], [ %458, %459 ]
  %h.0 = phi i32 [ 0, %421 ], [ %460, %459 ]
  %428 = icmp slt i32 %h.0, %426
  br i1 %428, label %429, label %461

; <label>:429                                     ; preds = %427
  %430 = sext i32 %h.0 to i64
  %431 = getelementptr inbounds i32* %78, i64 %430
  %432 = load i32* %431, align 4
  %433 = sext i32 %432 to i64
  %434 = getelementptr inbounds %struct.CompAtom* %36, i64 %433
  %435 = getelementptr inbounds %struct.CompAtom* %434, i32 0, i32 2
  %436 = load i32* %435, align 4
  %437 = lshr i32 %436, 25
  %438 = and i32 %437, 1
  %439 = icmp ne i32 %438, 0
  br i1 %439, label %440, label %441

; <label>:440                                     ; preds = %429
  br label %448

; <label>:441                                     ; preds = %429
  %442 = sext i32 %432 to i64
  %443 = getelementptr inbounds %struct.CompAtom* %36, i64 %442
  %444 = getelementptr inbounds %struct.CompAtom* %443, i32 0, i32 2
  %445 = load i32* %444, align 4
  %446 = lshr i32 %445, 22
  %447 = and i32 %446, 7
  br label %448

; <label>:448                                     ; preds = %441, %440
  %449 = phi i32 [ 1, %440 ], [ %447, %441 ]
  %450 = getelementptr inbounds i32* %pli.0, i64 0
  store i32 %432, i32* %450, align 4
  %451 = add nsw i32 %432, 1
  %452 = getelementptr inbounds i32* %pli.0, i64 1
  store i32 %451, i32* %452, align 4
  %453 = add nsw i32 %432, 2
  %454 = getelementptr inbounds i32* %pli.0, i64 2
  store i32 %453, i32* %454, align 4
  %455 = add nsw i32 %432, 3
  %456 = getelementptr inbounds i32* %pli.0, i64 3
  store i32 %455, i32* %456, align 4
  %457 = sext i32 %449 to i64
  %458 = getelementptr inbounds i32* %pli.0, i64 %457
  br label %459

; <label>:459                                     ; preds = %448
  %460 = add nsw i32 %h.0, 1
  br label %427

; <label>:461                                     ; preds = %427
  br label %462

; <label>:462                                     ; preds = %461, %365
  %pli.1 = phi i32* [ %pli.0, %461 ], [ %356, %365 ]
  %463 = ptrtoint i32* %pli.1 to i64
  %464 = ptrtoint i32* %207 to i64
  %465 = sub i64 %463, %464
  %466 = sdiv exact i64 %465, 4
  %467 = trunc i64 %466 to i32
  %468 = icmp ne i32 %467, 0
  br i1 %468, label %469, label %476

; <label>:469                                     ; preds = %462
  %470 = sub nsw i32 %467, 1
  %471 = sext i32 %470 to i64
  %472 = getelementptr inbounds i32* %207, i64 %471
  %473 = load i32* %472, align 4
  %474 = sext i32 %467 to i64
  %475 = getelementptr inbounds i32* %207, i64 %474
  store i32 %473, i32* %475, align 4
  br label %492

; <label>:476                                     ; preds = %462
  %477 = getelementptr inbounds %struct.CompAtom* %287, i32 0, i32 2
  %478 = load i32* %477, align 4
  %479 = lshr i32 %478, 25
  %480 = and i32 %479, 1
  %481 = icmp ne i32 %480, 0
  br i1 %481, label %482, label %483

; <label>:482                                     ; preds = %476
  br label %488

; <label>:483                                     ; preds = %476
  %484 = getelementptr inbounds %struct.CompAtom* %287, i32 0, i32 2
  %485 = load i32* %484, align 4
  %486 = lshr i32 %485, 22
  %487 = and i32 %486, 7
  br label %488

; <label>:488                                     ; preds = %483, %482
  %489 = phi i32 [ 1, %482 ], [ %487, %483 ]
  %490 = sub nsw i32 %489, 1
  %491 = add nsw i32 %i.1, %490
  br label %1111

; <label>:492                                     ; preds = %469
  br label %493

; <label>:493                                     ; preds = %492, %317
  %pairlistindex.1 = phi i32 [ %467, %492 ], [ %pairlistindex.0, %317 ]
  %pairlistoffset.1 = phi i32 [ 0, %492 ], [ %pairlistoffset.0, %317 ]
  %pairCount.2 = phi i32 [ %pairCount.1, %492 ], [ %pairCount.0, %317 ]
  %494 = load i32* @_ZN20ComputeNonbondedUtil12fixedAtomsOnE, align 4
  %495 = icmp ne i32 %494, 0
  br i1 %495, label %496, label %502

; <label>:496                                     ; preds = %493
  %497 = getelementptr inbounds %struct.CompAtom* %287, i32 0, i32 2
  %498 = load i32* %497, align 4
  %499 = lshr i32 %498, 26
  %500 = and i32 %499, 1
  %501 = icmp ne i32 %500, 0
  br label %502

; <label>:502                                     ; preds = %496, %493
  %503 = phi i1 [ false, %493 ], [ %501, %496 ]
  %504 = zext i1 %503 to i32
  %505 = load double** @_ZN20ComputeNonbondedUtil12lambda_tableE, align 8
  %506 = getelementptr inbounds %struct.CompAtom* %287, i32 0, i32 2
  %507 = load i32* %506, align 4
  %508 = lshr i32 %507, 28
  %509 = mul nsw i32 6, %508
  %510 = sext i32 %509 to i64
  %511 = getelementptr inbounds double* %505, i64 %510
  %512 = getelementptr inbounds %struct.CompAtom* %287, i32 0, i32 1
  %513 = load float* %512, align 4
  %514 = fpext float %513 to double
  %515 = fmul double 3.320636e+02, %514
  %516 = fmul double %515, %15
  %517 = fmul double %516, %9
  %518 = getelementptr inbounds %struct.CompAtom* %287, i32 0, i32 2
  %519 = load i32* %518, align 4
  %520 = and i32 %519, 4194303
  %521 = call zeroext i16 @_ZNK8Molecule11atomvdwtypeEi(%class.Molecule* %13, i32 %520)
  %522 = zext i16 %521 to i32
  %523 = call %"struct.LJTable::TableEntry"* @_ZNK7LJTable9table_rowEj(%class.LJTable* %10, i32 %522)
  %524 = icmp ne i32 %504, 0
  br i1 %524, label %525, label %587

; <label>:525                                     ; preds = %502
  br label %526

; <label>:526                                     ; preds = %584, %525
  %pli4.0 = phi i32* [ %221, %525 ], [ %pli4.2, %584 ]
  %plin.0 = phi i32* [ %235, %525 ], [ %plin.2, %584 ]
  %k.0 = phi i32 [ %pairlistoffset.1, %525 ], [ %585, %584 ]
  %exclChecksum.1 = phi i32 [ %exclChecksum.0, %525 ], [ %exclChecksum.3, %584 ]
  %527 = icmp slt i32 %k.0, %pairlistindex.1
  br i1 %527, label %528, label %586

; <label>:528                                     ; preds = %526
  %529 = sext i32 %k.0 to i64
  %530 = getelementptr inbounds i32* %207, i64 %529
  %531 = load i32* %530, align 4
  %532 = sext i32 %531 to i64
  %533 = getelementptr inbounds %struct.CompAtom* %36, i64 %532
  %534 = getelementptr inbounds %struct.CompAtom* %533, i32 0, i32 0
  %535 = getelementptr inbounds %class.Vector* %534, i32 0, i32 0
  %536 = load double* %535, align 8
  %537 = fsub double %303, %536
  %538 = fmul double %537, %537
  %539 = sext i32 %531 to i64
  %540 = getelementptr inbounds %struct.CompAtom* %36, i64 %539
  %541 = getelementptr inbounds %struct.CompAtom* %540, i32 0, i32 0
  %542 = getelementptr inbounds %class.Vector* %541, i32 0, i32 1
  %543 = load double* %542, align 8
  %544 = fsub double %306, %543
  %545 = fmul double %544, %544
  %546 = fadd double %538, %545
  %547 = sext i32 %531 to i64
  %548 = getelementptr inbounds %struct.CompAtom* %36, i64 %547
  %549 = getelementptr inbounds %struct.CompAtom* %548, i32 0, i32 0
  %550 = getelementptr inbounds %class.Vector* %549, i32 0, i32 2
  %551 = load double* %550, align 8
  %552 = fsub double %309, %551
  %553 = fmul double %552, %552
  %554 = fadd double %546, %553
  %555 = sext i32 %531 to i64
  %556 = getelementptr inbounds %struct.CompAtom* %36, i64 %555
  %557 = getelementptr inbounds %struct.CompAtom* %556, i32 0, i32 2
  %558 = load i32* %557, align 4
  %559 = lshr i32 %558, 26
  %560 = and i32 %559, 1
  %561 = icmp ne i32 %560, 0
  br i1 %561, label %583, label %562

; <label>:562                                     ; preds = %528
  %563 = fcmp ole double %554, %7
  br i1 %563, label %564, label %583

; <label>:564                                     ; preds = %562
  %565 = fcmp ole double %554, %21
  br i1 %565, label %566, label %569

; <label>:566                                     ; preds = %564
  %567 = add nsw i32 %exclChecksum.1, 1
  %568 = icmp ne i32 %567, 0
  br i1 %568, label %583, label %569

; <label>:569                                     ; preds = %566, %564
  %exclChecksum.2 = phi i32 [ %567, %566 ], [ %exclChecksum.1, %564 ]
  %570 = sext i32 %531 to i64
  %571 = getelementptr inbounds %struct.CompAtom* %36, i64 %570
  %572 = getelementptr inbounds %struct.CompAtom* %571, i32 0, i32 2
  %573 = load i32* %572, align 4
  %574 = and i32 %573, 4194303
  %575 = icmp sge i32 %574, %293
  br i1 %575, label %576, label %580

; <label>:576                                     ; preds = %569
  %577 = icmp sle i32 %574, %295
  br i1 %577, label %578, label %580

; <label>:578                                     ; preds = %576
  %579 = getelementptr inbounds i32* %pli4.0, i32 1
  store i32 %531, i32* %pli4.0, align 4
  br label %582

; <label>:580                                     ; preds = %576, %569
  %581 = getelementptr inbounds i32* %plin.0, i32 1
  store i32 %531, i32* %plin.0, align 4
  br label %582

; <label>:582                                     ; preds = %580, %578
  %pli4.1 = phi i32* [ %579, %578 ], [ %pli4.0, %580 ]
  %plin.1 = phi i32* [ %plin.0, %578 ], [ %581, %580 ]
  br label %583

; <label>:583                                     ; preds = %582, %566, %562, %528
  %pli4.2 = phi i32* [ %pli4.0, %528 ], [ %pli4.0, %566 ], [ %pli4.1, %582 ], [ %pli4.0, %562 ]
  %plin.2 = phi i32* [ %plin.0, %528 ], [ %plin.0, %566 ], [ %plin.1, %582 ], [ %plin.0, %562 ]
  %exclChecksum.3 = phi i32 [ %exclChecksum.1, %528 ], [ %567, %566 ], [ %exclChecksum.2, %582 ], [ %exclChecksum.1, %562 ]
  br label %584

; <label>:584                                     ; preds = %583
  %585 = add nsw i32 %k.0, 1
  br label %526

; <label>:586                                     ; preds = %526
  br label %666

; <label>:587                                     ; preds = %502
  %588 = icmp slt i32 %pairlistoffset.1, %pairlistindex.1
  br i1 %588, label %589, label %665

; <label>:589                                     ; preds = %587
  %590 = sext i32 %pairlistoffset.1 to i64
  %591 = getelementptr inbounds i32* %207, i64 %590
  %592 = load i32* %591, align 4
  %593 = sext i32 %592 to i64
  %594 = getelementptr inbounds %struct.CompAtom* %36, i64 %593
  %595 = getelementptr inbounds %struct.CompAtom* %594, i32 0, i32 0
  %596 = getelementptr inbounds %class.Vector* %595, i32 0, i32 0
  %597 = load double* %596, align 8
  %598 = sext i32 %592 to i64
  %599 = getelementptr inbounds %struct.CompAtom* %36, i64 %598
  %600 = getelementptr inbounds %struct.CompAtom* %599, i32 0, i32 0
  %601 = getelementptr inbounds %class.Vector* %600, i32 0, i32 1
  %602 = load double* %601, align 8
  %603 = sext i32 %592 to i64
  %604 = getelementptr inbounds %struct.CompAtom* %36, i64 %603
  %605 = getelementptr inbounds %struct.CompAtom* %604, i32 0, i32 0
  %606 = getelementptr inbounds %class.Vector* %605, i32 0, i32 2
  %607 = load double* %606, align 8
  %608 = sext i32 %592 to i64
  %609 = getelementptr inbounds %struct.CompAtom* %36, i64 %608
  %610 = getelementptr inbounds %struct.CompAtom* %609, i32 0, i32 2
  %611 = load i32* %610, align 4
  %612 = and i32 %611, 4194303
  br label %613

; <label>:613                                     ; preds = %658, %589
  %pli4.3 = phi i32* [ %221, %589 ], [ %pli4.5, %658 ]
  %plin.3 = phi i32* [ %235, %589 ], [ %plin.5, %658 ]
  %k10.0 = phi i32 [ %pairlistoffset.1, %589 ], [ %616, %658 ]
  %j211.0 = phi i32 [ %592, %589 ], [ %619, %658 ]
  %p_j_x12.0 = phi double [ %597, %589 ], [ %626, %658 ]
  %p_j_y13.0 = phi double [ %602, %589 ], [ %634, %658 ]
  %p_j_z14.0 = phi double [ %607, %589 ], [ %642, %658 ]
  %atom215.0 = phi i32 [ %612, %589 ], [ %663, %658 ]
  %exclChecksum.4 = phi i32 [ %exclChecksum.0, %589 ], [ %exclChecksum.6, %658 ]
  %614 = icmp slt i32 %k10.0, %pairlistindex.1
  br i1 %614, label %615, label %664

; <label>:615                                     ; preds = %613
  %616 = add nsw i32 %k10.0, 1
  %617 = sext i32 %616 to i64
  %618 = getelementptr inbounds i32* %207, i64 %617
  %619 = load i32* %618, align 4
  %620 = fsub double %303, %p_j_x12.0
  %621 = fmul double %620, %620
  %622 = sext i32 %619 to i64
  %623 = getelementptr inbounds %struct.CompAtom* %36, i64 %622
  %624 = getelementptr inbounds %struct.CompAtom* %623, i32 0, i32 0
  %625 = getelementptr inbounds %class.Vector* %624, i32 0, i32 0
  %626 = load double* %625, align 8
  %627 = fsub double %306, %p_j_y13.0
  %628 = fmul double %627, %627
  %629 = fadd double %621, %628
  %630 = sext i32 %619 to i64
  %631 = getelementptr inbounds %struct.CompAtom* %36, i64 %630
  %632 = getelementptr inbounds %struct.CompAtom* %631, i32 0, i32 0
  %633 = getelementptr inbounds %class.Vector* %632, i32 0, i32 1
  %634 = load double* %633, align 8
  %635 = fsub double %309, %p_j_z14.0
  %636 = fmul double %635, %635
  %637 = fadd double %629, %636
  %638 = sext i32 %619 to i64
  %639 = getelementptr inbounds %struct.CompAtom* %36, i64 %638
  %640 = getelementptr inbounds %struct.CompAtom* %639, i32 0, i32 0
  %641 = getelementptr inbounds %class.Vector* %640, i32 0, i32 2
  %642 = load double* %641, align 8
  %643 = fcmp ole double %637, %7
  br i1 %643, label %644, label %658

; <label>:644                                     ; preds = %615
  %645 = fcmp ole double %637, %21
  br i1 %645, label %646, label %649

; <label>:646                                     ; preds = %644
  %647 = add nsw i32 %exclChecksum.4, 1
  %648 = icmp ne i32 %647, 0
  br i1 %648, label %658, label %649

; <label>:649                                     ; preds = %646, %644
  %exclChecksum.5 = phi i32 [ %647, %646 ], [ %exclChecksum.4, %644 ]
  %650 = icmp sge i32 %atom215.0, %293
  br i1 %650, label %651, label %655

; <label>:651                                     ; preds = %649
  %652 = icmp sle i32 %atom215.0, %295
  br i1 %652, label %653, label %655

; <label>:653                                     ; preds = %651
  %654 = getelementptr inbounds i32* %pli4.3, i32 1
  store i32 %j211.0, i32* %pli4.3, align 4
  br label %657

; <label>:655                                     ; preds = %651, %649
  %656 = getelementptr inbounds i32* %plin.3, i32 1
  store i32 %j211.0, i32* %plin.3, align 4
  br label %657

; <label>:657                                     ; preds = %655, %653
  %pli4.4 = phi i32* [ %654, %653 ], [ %pli4.3, %655 ]
  %plin.4 = phi i32* [ %plin.3, %653 ], [ %656, %655 ]
  br label %658

; <label>:658                                     ; preds = %657, %646, %615
  %pli4.5 = phi i32* [ %pli4.3, %646 ], [ %pli4.4, %657 ], [ %pli4.3, %615 ]
  %plin.5 = phi i32* [ %plin.3, %646 ], [ %plin.4, %657 ], [ %plin.3, %615 ]
  %exclChecksum.6 = phi i32 [ %647, %646 ], [ %exclChecksum.5, %657 ], [ %exclChecksum.4, %615 ]
  %659 = sext i32 %619 to i64
  %660 = getelementptr inbounds %struct.CompAtom* %36, i64 %659
  %661 = getelementptr inbounds %struct.CompAtom* %660, i32 0, i32 2
  %662 = load i32* %661, align 4
  %663 = and i32 %662, 4194303
  br label %613

; <label>:664                                     ; preds = %613
  br label %665

; <label>:665                                     ; preds = %664, %587
  %pli4.6 = phi i32* [ %pli4.3, %664 ], [ %221, %587 ]
  %plin.6 = phi i32* [ %plin.3, %664 ], [ %235, %587 ]
  %exclChecksum.7 = phi i32 [ %exclChecksum.4, %664 ], [ %exclChecksum.0, %587 ]
  br label %666

; <label>:666                                     ; preds = %665, %586
  %pli4.7 = phi i32* [ %pli4.0, %586 ], [ %pli4.6, %665 ]
  %plin.7 = phi i32* [ %plin.0, %586 ], [ %plin.6, %665 ]
  %exclChecksum.8 = phi i32 [ %exclChecksum.1, %586 ], [ %exclChecksum.7, %665 ]
  %667 = ptrtoint i32* %pli4.7 to i64
  %668 = ptrtoint i32* %221 to i64
  %669 = sub i64 %667, %668
  %670 = sdiv exact i64 %669, 4
  %671 = trunc i64 %670 to i32
  %672 = icmp ne i32 %671, 0
  br i1 %672, label %673, label %680

; <label>:673                                     ; preds = %666
  %674 = sub nsw i32 %671, 1
  %675 = sext i32 %674 to i64
  %676 = getelementptr inbounds i32* %221, i64 %675
  %677 = load i32* %676, align 4
  %678 = sext i32 %671 to i64
  %679 = getelementptr inbounds i32* %221, i64 %678
  store i32 %677, i32* %679, align 4
  br label %680

; <label>:680                                     ; preds = %673, %666
  br label %681

; <label>:681                                     ; preds = %703, %680
  %plin.8 = phi i32* [ %plin.7, %680 ], [ %plin.9, %703 ]
  %plix.0 = phi i32* [ %249, %680 ], [ %plix.1, %703 ]
  %plim.0 = phi i32* [ %263, %680 ], [ %plim.1, %703 ]
  %k18.0 = phi i32 [ 0, %680 ], [ %704, %703 ]
  %682 = icmp slt i32 %k18.0, %671
  br i1 %682, label %683, label %705

; <label>:683                                     ; preds = %681
  %684 = sext i32 %k18.0 to i64
  %685 = getelementptr inbounds i32* %221, i64 %684
  %686 = load i32* %685, align 4
  %687 = sext i32 %686 to i64
  %688 = getelementptr inbounds %struct.CompAtom* %36, i64 %687
  %689 = getelementptr inbounds %struct.CompAtom* %688, i32 0, i32 2
  %690 = load i32* %689, align 4
  %691 = and i32 %690, 4194303
  %692 = sext i32 %691 to i64
  %693 = getelementptr inbounds i8* %300, i64 %692
  %694 = load i8* %693, align 1
  %695 = sext i8 %694 to i32
  switch i32 %695, label %702 [
    i32 0, label %696
    i32 1, label %698
    i32 2, label %700
  ]

; <label>:696                                     ; preds = %683
  %697 = getelementptr inbounds i32* %plin.8, i32 1
  store i32 %686, i32* %plin.8, align 4
  br label %702

; <label>:698                                     ; preds = %683
  %699 = getelementptr inbounds i32* %plix.0, i32 1
  store i32 %686, i32* %plix.0, align 4
  br label %702

; <label>:700                                     ; preds = %683
  %701 = getelementptr inbounds i32* %plim.0, i32 1
  store i32 %686, i32* %plim.0, align 4
  br label %702

; <label>:702                                     ; preds = %700, %698, %696, %683
  %plin.9 = phi i32* [ %plin.8, %683 ], [ %plin.8, %700 ], [ %plin.8, %698 ], [ %697, %696 ]
  %plix.1 = phi i32* [ %plix.0, %683 ], [ %plix.0, %700 ], [ %699, %698 ], [ %plix.0, %696 ]
  %plim.1 = phi i32* [ %plim.0, %683 ], [ %701, %700 ], [ %plim.0, %698 ], [ %plim.0, %696 ]
  br label %703

; <label>:703                                     ; preds = %702
  %704 = add nsw i32 %k18.0, 1
  br label %681

; <label>:705                                     ; preds = %681
  %706 = ptrtoint i32* %plix.0 to i64
  %707 = ptrtoint i32* %249 to i64
  %708 = sub i64 %706, %707
  %709 = sdiv exact i64 %708, 4
  %710 = sext i32 %exclChecksum.8 to i64
  %711 = add nsw i64 %710, %709
  %712 = trunc i64 %711 to i32
  %713 = ptrtoint i32* %plim.0 to i64
  %714 = ptrtoint i32* %263 to i64
  %715 = sub i64 %713, %714
  %716 = sdiv exact i64 %715, 4
  %717 = sext i32 %712 to i64
  %718 = add nsw i64 %717, %716
  %719 = trunc i64 %718 to i32
  %720 = ptrtoint i32* %plin.8 to i64
  %721 = ptrtoint i32* %235 to i64
  %722 = sub i64 %720, %721
  %723 = sdiv exact i64 %722, 4
  %724 = trunc i64 %723 to i32
  br label %725

; <label>:725                                     ; preds = %911, %705
  %k18.1 = phi i32 [ 0, %705 ], [ %912, %911 ]
  %virial_zz.1 = phi double [ %virial_zz.0, %705 ], [ %904, %911 ]
  %virial_yz.1 = phi double [ %virial_yz.0, %705 ], [ %895, %911 ]
  %virial_yy.1 = phi double [ %virial_yy.0, %705 ], [ %893, %911 ]
  %virial_xz.1 = phi double [ %virial_xz.0, %705 ], [ %884, %911 ]
  %virial_xy.1 = phi double [ %virial_xy.0, %705 ], [ %882, %911 ]
  %virial_xx.1 = phi double [ %virial_xx.0, %705 ], [ %880, %911 ]
  %electEnergy_s.1 = phi double [ %electEnergy_s.0, %705 ], [ %863, %911 ]
  %vdwEnergy_s.1 = phi double [ %vdwEnergy_s.0, %705 ], [ %843, %911 ]
  %electEnergy.1 = phi double [ %electEnergy.0, %705 ], [ %861, %911 ]
  %vdwEnergy.1 = phi double [ %vdwEnergy.0, %705 ], [ %841, %911 ]
  %726 = icmp slt i32 %k18.1, %724
  br i1 %726, label %727, label %913

; <label>:727                                     ; preds = %725
  %728 = sext i32 %k18.1 to i64
  %729 = getelementptr inbounds i32* %235, i64 %728
  %730 = load i32* %729, align 4
  %731 = sext i32 %730 to i64
  %732 = getelementptr inbounds %struct.CompAtom* %36, i64 %731
  %733 = getelementptr inbounds %struct.CompAtom* %732, i32 0, i32 0
  %734 = getelementptr inbounds %class.Vector* %733, i32 0, i32 0
  %735 = load double* %734, align 8
  %736 = fsub double %303, %735
  %737 = fmul double %736, %736
  %738 = getelementptr inbounds %struct.CompAtom* %732, i32 0, i32 0
  %739 = getelementptr inbounds %class.Vector* %738, i32 0, i32 1
  %740 = load double* %739, align 8
  %741 = fsub double %306, %740
  %742 = fmul double %741, %741
  %743 = fadd double %737, %742
  %744 = getelementptr inbounds %struct.CompAtom* %732, i32 0, i32 0
  %745 = getelementptr inbounds %class.Vector* %744, i32 0, i32 2
  %746 = load double* %745, align 8
  %747 = fsub double %309, %746
  %748 = fmul double %747, %747
  %749 = fadd double %743, %748
  %750 = fptrunc double %749 to float
  %751 = bitcast %union.anon.43* %r2f to float*
  store float %750, float* %751, align 4
  %752 = bitcast %union.anon.43* %r2f to i32*
  %753 = load i32* %752, align 4
  %754 = ashr i32 %753, 17
  %755 = add nsw i32 %754, %24
  %756 = getelementptr inbounds %struct.CompAtom* %732, i32 0, i32 2
  %757 = load i32* %756, align 4
  %758 = and i32 %757, 4194303
  %759 = call zeroext i16 @_ZNK8Molecule11atomvdwtypeEi(%class.Molecule* %13, i32 %758)
  %760 = zext i16 %759 to i32
  %761 = mul nsw i32 2, %760
  %762 = sext i32 %761 to i64
  %763 = getelementptr inbounds %"struct.LJTable::TableEntry"* %523, i64 %762
  %764 = mul nsw i32 16, %755
  %765 = sext i32 %764 to i64
  %766 = getelementptr inbounds double* %14, i64 %765
  %767 = getelementptr inbounds double* %766, i64 0
  %768 = load double* %767, align 8
  %769 = mul nsw i32 16, %755
  %770 = sext i32 %769 to i64
  %771 = getelementptr inbounds double* %14, i64 %770
  %772 = getelementptr inbounds double* %771, i64 4
  %773 = getelementptr inbounds double* %772, i64 0
  %774 = load double* %773, align 8
  %775 = mul nsw i32 16, %755
  %776 = sext i32 %775 to i64
  %777 = getelementptr inbounds double* %14, i64 %776
  %778 = getelementptr inbounds double* %777, i64 8
  %779 = getelementptr inbounds double* %778, i64 0
  %780 = load double* %779, align 8
  %781 = bitcast %union.anon.43* %r2f to i32*
  %782 = load i32* %781, align 4
  %783 = and i32 %782, -131072
  store i32 %783, i32* %781, align 4
  %784 = getelementptr inbounds %struct.CompAtom* %732, i32 0, i32 1
  %785 = load float* %784, align 4
  %786 = fpext float %785 to double
  %787 = fmul double %517, %786
  %788 = bitcast %union.anon.43* %r2f to float*
  %789 = load float* %788, align 4
  %790 = fpext float %789 to double
  %791 = fsub double %749, %790
  %792 = getelementptr inbounds %struct.CompAtom* %732, i32 0, i32 2
  %793 = load i32* %792, align 4
  %794 = lshr i32 %793, 28
  %795 = mul nsw i32 2, %794
  %796 = sext i32 %795 to i64
  %797 = getelementptr inbounds double* %511, i64 %796
  %798 = load double* %797, align 8
  %799 = mul nsw i32 2, %794
  %800 = add nsw i32 %799, 1
  %801 = sext i32 %800 to i64
  %802 = getelementptr inbounds double* %511, i64 %801
  %803 = load double* %802, align 8
  %804 = getelementptr inbounds %"struct.LJTable::TableEntry"* %763, i32 0, i32 0
  %805 = load double* %804, align 8
  %806 = fmul double %15, %805
  %807 = getelementptr inbounds %"struct.LJTable::TableEntry"* %763, i32 0, i32 1
  %808 = load double* %807, align 8
  %809 = fmul double %15, %808
  %810 = fmul double %806, %768
  %811 = fmul double %809, %774
  %812 = fsub double %810, %811
  %813 = getelementptr inbounds double* %766, i64 3
  %814 = load double* %813, align 8
  %815 = fmul double %806, %814
  %816 = getelementptr inbounds double* %772, i64 3
  %817 = load double* %816, align 8
  %818 = fmul double %809, %817
  %819 = fsub double %815, %818
  %820 = getelementptr inbounds double* %766, i64 2
  %821 = load double* %820, align 8
  %822 = fmul double %806, %821
  %823 = getelementptr inbounds double* %772, i64 2
  %824 = load double* %823, align 8
  %825 = fmul double %809, %824
  %826 = fsub double %822, %825
  %827 = getelementptr inbounds double* %766, i64 1
  %828 = load double* %827, align 8
  %829 = fmul double %806, %828
  %830 = getelementptr inbounds double* %772, i64 1
  %831 = load double* %830, align 8
  %832 = fmul double %809, %831
  %833 = fsub double %829, %832
  %834 = fmul double %791, %819
  %835 = fadd double %834, %826
  %836 = fmul double %835, %791
  %837 = fadd double %836, %833
  %838 = fmul double %837, %791
  %839 = fadd double %838, %812
  %840 = fmul double %798, %839
  %841 = fadd double %vdwEnergy.1, %840
  %842 = fmul double %803, %839
  %843 = fadd double %vdwEnergy_s.1, %842
  %844 = fmul double %780, %787
  %845 = getelementptr inbounds double* %778, i64 3
  %846 = load double* %845, align 8
  %847 = fmul double %787, %846
  %848 = getelementptr inbounds double* %778, i64 2
  %849 = load double* %848, align 8
  %850 = fmul double %787, %849
  %851 = getelementptr inbounds double* %778, i64 1
  %852 = load double* %851, align 8
  %853 = fmul double %787, %852
  %854 = fmul double %791, %847
  %855 = fadd double %854, %850
  %856 = fmul double %855, %791
  %857 = fadd double %856, %853
  %858 = fmul double %857, %791
  %859 = fadd double %858, %844
  %860 = fmul double %798, %859
  %861 = fadd double %electEnergy.1, %860
  %862 = fmul double %803, %859
  %863 = fadd double %electEnergy_s.1, %862
  %864 = fadd double %847, %819
  %865 = fadd double %850, %826
  %866 = fadd double %853, %833
  %867 = fadd double %844, %812
  %868 = fmul double 3.000000e+00, %791
  %869 = fmul double %868, %864
  %870 = fmul double 2.000000e+00, %865
  %871 = fadd double %869, %870
  %872 = fmul double %871, %791
  %873 = fadd double %872, %866
  %874 = fmul double -2.000000e+00, %798
  %875 = fmul double %874, %873
  %876 = sext i32 %730 to i64
  %877 = getelementptr inbounds %class.Vector* %269, i64 %876
  %878 = fmul double %875, %736
  %879 = fmul double %878, %736
  %880 = fadd double %virial_xx.1, %879
  %881 = fmul double %878, %741
  %882 = fadd double %virial_xy.1, %881
  %883 = fmul double %878, %747
  %884 = fadd double %virial_xz.1, %883
  %885 = getelementptr inbounds %class.Vector* %311, i32 0, i32 0
  %886 = load double* %885, align 8
  %887 = fadd double %886, %878
  store double %887, double* %885, align 8
  %888 = getelementptr inbounds %class.Vector* %877, i32 0, i32 0
  %889 = load double* %888, align 8
  %890 = fsub double %889, %878
  store double %890, double* %888, align 8
  %891 = fmul double %875, %741
  %892 = fmul double %891, %741
  %893 = fadd double %virial_yy.1, %892
  %894 = fmul double %891, %747
  %895 = fadd double %virial_yz.1, %894
  %896 = getelementptr inbounds %class.Vector* %311, i32 0, i32 1
  %897 = load double* %896, align 8
  %898 = fadd double %897, %891
  store double %898, double* %896, align 8
  %899 = getelementptr inbounds %class.Vector* %877, i32 0, i32 1
  %900 = load double* %899, align 8
  %901 = fsub double %900, %891
  store double %901, double* %899, align 8
  %902 = fmul double %875, %747
  %903 = fmul double %902, %747
  %904 = fadd double %virial_zz.1, %903
  %905 = getelementptr inbounds %class.Vector* %311, i32 0, i32 2
  %906 = load double* %905, align 8
  %907 = fadd double %906, %902
  store double %907, double* %905, align 8
  %908 = getelementptr inbounds %class.Vector* %877, i32 0, i32 2
  %909 = load double* %908, align 8
  %910 = fsub double %909, %902
  store double %910, double* %908, align 8
  br label %911

; <label>:911                                     ; preds = %727
  %912 = add nsw i32 %k18.1, 1
  br label %725

; <label>:913                                     ; preds = %725
  %914 = ptrtoint i32* %plim.0 to i64
  %915 = ptrtoint i32* %263 to i64
  %916 = sub i64 %914, %915
  %917 = sdiv exact i64 %916, 4
  %918 = trunc i64 %917 to i32
  br label %919

; <label>:919                                     ; preds = %1108, %913
  %k18.2 = phi i32 [ 0, %913 ], [ %1109, %1108 ]
  %virial_zz.2 = phi double [ %virial_zz.1, %913 ], [ %1101, %1108 ]
  %virial_yz.2 = phi double [ %virial_yz.1, %913 ], [ %1092, %1108 ]
  %virial_yy.2 = phi double [ %virial_yy.1, %913 ], [ %1090, %1108 ]
  %virial_xz.2 = phi double [ %virial_xz.1, %913 ], [ %1081, %1108 ]
  %virial_xy.2 = phi double [ %virial_xy.1, %913 ], [ %1079, %1108 ]
  %virial_xx.2 = phi double [ %virial_xx.1, %913 ], [ %1077, %1108 ]
  %electEnergy_s.2 = phi double [ %electEnergy_s.1, %913 ], [ %1060, %1108 ]
  %vdwEnergy_s.2 = phi double [ %vdwEnergy_s.1, %913 ], [ %1038, %1108 ]
  %electEnergy.2 = phi double [ %electEnergy.1, %913 ], [ %1058, %1108 ]
  %vdwEnergy.2 = phi double [ %vdwEnergy.1, %913 ], [ %1036, %1108 ]
  %920 = icmp slt i32 %k18.2, %918
  br i1 %920, label %921, label %1110

; <label>:921                                     ; preds = %919
  %922 = sext i32 %k18.2 to i64
  %923 = getelementptr inbounds i32* %263, i64 %922
  %924 = load i32* %923, align 4
  %925 = sext i32 %924 to i64
  %926 = getelementptr inbounds %struct.CompAtom* %36, i64 %925
  %927 = getelementptr inbounds %struct.CompAtom* %926, i32 0, i32 0
  %928 = getelementptr inbounds %class.Vector* %927, i32 0, i32 0
  %929 = load double* %928, align 8
  %930 = fsub double %303, %929
  %931 = fmul double %930, %930
  %932 = getelementptr inbounds %struct.CompAtom* %926, i32 0, i32 0
  %933 = getelementptr inbounds %class.Vector* %932, i32 0, i32 1
  %934 = load double* %933, align 8
  %935 = fsub double %306, %934
  %936 = fmul double %935, %935
  %937 = fadd double %931, %936
  %938 = getelementptr inbounds %struct.CompAtom* %926, i32 0, i32 0
  %939 = getelementptr inbounds %class.Vector* %938, i32 0, i32 2
  %940 = load double* %939, align 8
  %941 = fsub double %309, %940
  %942 = fmul double %941, %941
  %943 = fadd double %937, %942
  %944 = fptrunc double %943 to float
  %945 = bitcast %union.anon.44* %r2f29 to float*
  store float %944, float* %945, align 4
  %946 = bitcast %union.anon.44* %r2f29 to i32*
  %947 = load i32* %946, align 4
  %948 = ashr i32 %947, 17
  %949 = add nsw i32 %948, %24
  %950 = getelementptr inbounds %struct.CompAtom* %926, i32 0, i32 2
  %951 = load i32* %950, align 4
  %952 = and i32 %951, 4194303
  %953 = call zeroext i16 @_ZNK8Molecule11atomvdwtypeEi(%class.Molecule* %13, i32 %952)
  %954 = zext i16 %953 to i32
  %955 = mul nsw i32 2, %954
  %956 = sext i32 %955 to i64
  %957 = getelementptr inbounds %"struct.LJTable::TableEntry"* %523, i64 %956
  %958 = getelementptr inbounds %"struct.LJTable::TableEntry"* %957, i64 1
  %959 = mul nsw i32 16, %949
  %960 = sext i32 %959 to i64
  %961 = getelementptr inbounds double* %14, i64 %960
  %962 = getelementptr inbounds double* %961, i64 0
  %963 = load double* %962, align 8
  %964 = mul nsw i32 16, %949
  %965 = sext i32 %964 to i64
  %966 = getelementptr inbounds double* %14, i64 %965
  %967 = getelementptr inbounds double* %966, i64 4
  %968 = getelementptr inbounds double* %967, i64 0
  %969 = load double* %968, align 8
  %970 = mul nsw i32 16, %949
  %971 = sext i32 %970 to i64
  %972 = getelementptr inbounds double* %14, i64 %971
  %973 = getelementptr inbounds double* %972, i64 8
  %974 = getelementptr inbounds double* %973, i64 0
  %975 = load double* %974, align 8
  %976 = bitcast %union.anon.44* %r2f29 to i32*
  %977 = load i32* %976, align 4
  %978 = and i32 %977, -131072
  store i32 %978, i32* %976, align 4
  %979 = getelementptr inbounds %struct.CompAtom* %926, i32 0, i32 1
  %980 = load float* %979, align 4
  %981 = fpext float %980 to double
  %982 = fmul double %517, %981
  %983 = bitcast %union.anon.44* %r2f29 to float*
  %984 = load float* %983, align 4
  %985 = fpext float %984 to double
  %986 = fsub double %943, %985
  %987 = getelementptr inbounds %struct.CompAtom* %926, i32 0, i32 2
  %988 = load i32* %987, align 4
  %989 = lshr i32 %988, 28
  %990 = mul nsw i32 2, %989
  %991 = sext i32 %990 to i64
  %992 = getelementptr inbounds double* %511, i64 %991
  %993 = load double* %992, align 8
  %994 = mul nsw i32 2, %989
  %995 = add nsw i32 %994, 1
  %996 = sext i32 %995 to i64
  %997 = getelementptr inbounds double* %511, i64 %996
  %998 = load double* %997, align 8
  %999 = getelementptr inbounds %"struct.LJTable::TableEntry"* %958, i32 0, i32 0
  %1000 = load double* %999, align 8
  %1001 = fmul double %15, %1000
  %1002 = getelementptr inbounds %"struct.LJTable::TableEntry"* %958, i32 0, i32 1
  %1003 = load double* %1002, align 8
  %1004 = fmul double %15, %1003
  %1005 = fmul double %1001, %963
  %1006 = fmul double %1004, %969
  %1007 = fsub double %1005, %1006
  %1008 = getelementptr inbounds double* %961, i64 3
  %1009 = load double* %1008, align 8
  %1010 = fmul double %1001, %1009
  %1011 = getelementptr inbounds double* %967, i64 3
  %1012 = load double* %1011, align 8
  %1013 = fmul double %1004, %1012
  %1014 = fsub double %1010, %1013
  %1015 = getelementptr inbounds double* %961, i64 2
  %1016 = load double* %1015, align 8
  %1017 = fmul double %1001, %1016
  %1018 = getelementptr inbounds double* %967, i64 2
  %1019 = load double* %1018, align 8
  %1020 = fmul double %1004, %1019
  %1021 = fsub double %1017, %1020
  %1022 = getelementptr inbounds double* %961, i64 1
  %1023 = load double* %1022, align 8
  %1024 = fmul double %1001, %1023
  %1025 = getelementptr inbounds double* %967, i64 1
  %1026 = load double* %1025, align 8
  %1027 = fmul double %1004, %1026
  %1028 = fsub double %1024, %1027
  %1029 = fmul double %986, %1014
  %1030 = fadd double %1029, %1021
  %1031 = fmul double %1030, %986
  %1032 = fadd double %1031, %1028
  %1033 = fmul double %1032, %986
  %1034 = fadd double %1033, %1007
  %1035 = fmul double %993, %1034
  %1036 = fadd double %vdwEnergy.2, %1035
  %1037 = fmul double %998, %1034
  %1038 = fadd double %vdwEnergy_s.2, %1037
  %1039 = fsub double 1.000000e+00, %17
  %1040 = fmul double %1039, %982
  %1041 = fmul double %975, %1040
  %1042 = getelementptr inbounds double* %973, i64 3
  %1043 = load double* %1042, align 8
  %1044 = fmul double %1040, %1043
  %1045 = getelementptr inbounds double* %973, i64 2
  %1046 = load double* %1045, align 8
  %1047 = fmul double %1040, %1046
  %1048 = getelementptr inbounds double* %973, i64 1
  %1049 = load double* %1048, align 8
  %1050 = fmul double %1040, %1049
  %1051 = fmul double %986, %1044
  %1052 = fadd double %1051, %1047
  %1053 = fmul double %1052, %986
  %1054 = fadd double %1053, %1050
  %1055 = fmul double %1054, %986
  %1056 = fadd double %1055, %1041
  %1057 = fmul double %993, %1056
  %1058 = fadd double %electEnergy.2, %1057
  %1059 = fmul double %998, %1056
  %1060 = fadd double %electEnergy_s.2, %1059
  %1061 = fadd double %1044, %1014
  %1062 = fadd double %1047, %1021
  %1063 = fadd double %1050, %1028
  %1064 = fadd double %1041, %1007
  %1065 = fmul double 3.000000e+00, %986
  %1066 = fmul double %1065, %1061
  %1067 = fmul double 2.000000e+00, %1062
  %1068 = fadd double %1066, %1067
  %1069 = fmul double %1068, %986
  %1070 = fadd double %1069, %1063
  %1071 = fmul double -2.000000e+00, %993
  %1072 = fmul double %1071, %1070
  %1073 = sext i32 %924 to i64
  %1074 = getelementptr inbounds %class.Vector* %269, i64 %1073
  %1075 = fmul double %1072, %930
  %1076 = fmul double %1075, %930
  %1077 = fadd double %virial_xx.2, %1076
  %1078 = fmul double %1075, %935
  %1079 = fadd double %virial_xy.2, %1078
  %1080 = fmul double %1075, %941
  %1081 = fadd double %virial_xz.2, %1080
  %1082 = getelementptr inbounds %class.Vector* %311, i32 0, i32 0
  %1083 = load double* %1082, align 8
  %1084 = fadd double %1083, %1075
  store double %1084, double* %1082, align 8
  %1085 = getelementptr inbounds %class.Vector* %1074, i32 0, i32 0
  %1086 = load double* %1085, align 8
  %1087 = fsub double %1086, %1075
  store double %1087, double* %1085, align 8
  %1088 = fmul double %1072, %935
  %1089 = fmul double %1088, %935
  %1090 = fadd double %virial_yy.2, %1089
  %1091 = fmul double %1088, %941
  %1092 = fadd double %virial_yz.2, %1091
  %1093 = getelementptr inbounds %class.Vector* %311, i32 0, i32 1
  %1094 = load double* %1093, align 8
  %1095 = fadd double %1094, %1088
  store double %1095, double* %1093, align 8
  %1096 = getelementptr inbounds %class.Vector* %1074, i32 0, i32 1
  %1097 = load double* %1096, align 8
  %1098 = fsub double %1097, %1088
  store double %1098, double* %1096, align 8
  %1099 = fmul double %1072, %941
  %1100 = fmul double %1099, %941
  %1101 = fadd double %virial_zz.2, %1100
  %1102 = getelementptr inbounds %class.Vector* %311, i32 0, i32 2
  %1103 = load double* %1102, align 8
  %1104 = fadd double %1103, %1099
  store double %1104, double* %1102, align 8
  %1105 = getelementptr inbounds %class.Vector* %1074, i32 0, i32 2
  %1106 = load double* %1105, align 8
  %1107 = fsub double %1106, %1099
  store double %1107, double* %1105, align 8
  br label %1108

; <label>:1108                                    ; preds = %921
  %1109 = add nsw i32 %k18.2, 1
  br label %919

; <label>:1110                                    ; preds = %919
  br label %1111

; <label>:1111                                    ; preds = %1110, %488, %339
  %pairlistindex.2 = phi i32 [ %pairlistindex.0, %339 ], [ %pairlistindex.1, %1110 ], [ %467, %488 ]
  %pairlistoffset.2 = phi i32 [ %pairlistoffset.0, %339 ], [ %pairlistoffset.1, %1110 ], [ 0, %488 ]
  %pairCount.3 = phi i32 [ %335, %339 ], [ %pairCount.2, %1110 ], [ %pairCount.1, %488 ]
  %i.2 = phi i32 [ %341, %339 ], [ %i.1, %1110 ], [ %491, %488 ]
  %virial_zz.3 = phi double [ %virial_zz.0, %339 ], [ %virial_zz.2, %1110 ], [ %virial_zz.0, %488 ]
  %virial_yz.3 = phi double [ %virial_yz.0, %339 ], [ %virial_yz.2, %1110 ], [ %virial_yz.0, %488 ]
  %virial_yy.3 = phi double [ %virial_yy.0, %339 ], [ %virial_yy.2, %1110 ], [ %virial_yy.0, %488 ]
  %virial_xz.3 = phi double [ %virial_xz.0, %339 ], [ %virial_xz.2, %1110 ], [ %virial_xz.0, %488 ]
  %virial_xy.3 = phi double [ %virial_xy.0, %339 ], [ %virial_xy.2, %1110 ], [ %virial_xy.0, %488 ]
  %virial_xx.3 = phi double [ %virial_xx.0, %339 ], [ %virial_xx.2, %1110 ], [ %virial_xx.0, %488 ]
  %electEnergy_s.3 = phi double [ %electEnergy_s.0, %339 ], [ %electEnergy_s.2, %1110 ], [ %electEnergy_s.0, %488 ]
  %vdwEnergy_s.3 = phi double [ %vdwEnergy_s.0, %339 ], [ %vdwEnergy_s.2, %1110 ], [ %vdwEnergy_s.0, %488 ]
  %electEnergy.3 = phi double [ %electEnergy.0, %339 ], [ %electEnergy.2, %1110 ], [ %electEnergy.0, %488 ]
  %vdwEnergy.3 = phi double [ %vdwEnergy.0, %339 ], [ %vdwEnergy.2, %1110 ], [ %vdwEnergy.0, %488 ]
  %exclChecksum.9 = phi i32 [ %exclChecksum.0, %339 ], [ %719, %1110 ], [ %exclChecksum.0, %488 ]
  %1112 = add nsw i32 %i.2, 1
  br label %283

; <label>:1113                                    ; preds = %283
  %1114 = getelementptr inbounds [1005 x i32]* %grouplist_std, i32 0, i32 0
  %1115 = icmp ne i32* %50, %1114
  br i1 %1115, label %1116, label %1121

; <label>:1116                                    ; preds = %1113
  %1117 = icmp eq i32* %50, null
  br i1 %1117, label %1120, label %1118

; <label>:1118                                    ; preds = %1116
  %1119 = bitcast i32* %50 to i8*
  call void @_ZdaPv(i8* %1119) #8
  br label %1120

; <label>:1120                                    ; preds = %1118, %1116
  br label %1121

; <label>:1121                                    ; preds = %1120, %1113
  %1122 = getelementptr inbounds [1005 x i32]* %fixglist_std, i32 0, i32 0
  %1123 = icmp ne i32* %64, %1122
  br i1 %1123, label %1124, label %1129

; <label>:1124                                    ; preds = %1121
  %1125 = icmp eq i32* %64, null
  br i1 %1125, label %1128, label %1126

; <label>:1126                                    ; preds = %1124
  %1127 = bitcast i32* %64 to i8*
  call void @_ZdaPv(i8* %1127) #8
  br label %1128

; <label>:1128                                    ; preds = %1126, %1124
  br label %1129

; <label>:1129                                    ; preds = %1128, %1121
  %1130 = getelementptr inbounds [1005 x i32]* %goodglist_std, i32 0, i32 0
  %1131 = icmp ne i32* %78, %1130
  br i1 %1131, label %1132, label %1137

; <label>:1132                                    ; preds = %1129
  %1133 = icmp eq i32* %78, null
  br i1 %1133, label %1136, label %1134

; <label>:1134                                    ; preds = %1132
  %1135 = bitcast i32* %78 to i8*
  call void @_ZdaPv(i8* %1135) #8
  br label %1136

; <label>:1136                                    ; preds = %1134, %1132
  br label %1137

; <label>:1137                                    ; preds = %1136, %1129
  %1138 = getelementptr inbounds [1005 x i32]* %pairlist_std, i32 0, i32 0
  %1139 = icmp ne i32* %207, %1138
  br i1 %1139, label %1140, label %1145

; <label>:1140                                    ; preds = %1137
  %1141 = icmp eq i32* %207, null
  br i1 %1141, label %1144, label %1142

; <label>:1142                                    ; preds = %1140
  %1143 = bitcast i32* %207 to i8*
  call void @_ZdaPv(i8* %1143) #8
  br label %1144

; <label>:1144                                    ; preds = %1142, %1140
  br label %1145

; <label>:1145                                    ; preds = %1144, %1137
  %1146 = getelementptr inbounds [1005 x i32]* %pairlist2_std, i32 0, i32 0
  %1147 = icmp ne i32* %221, %1146
  br i1 %1147, label %1148, label %1153

; <label>:1148                                    ; preds = %1145
  %1149 = icmp eq i32* %221, null
  br i1 %1149, label %1152, label %1150

; <label>:1150                                    ; preds = %1148
  %1151 = bitcast i32* %221 to i8*
  call void @_ZdaPv(i8* %1151) #8
  br label %1152

; <label>:1152                                    ; preds = %1150, %1148
  br label %1153

; <label>:1153                                    ; preds = %1152, %1145
  %1154 = getelementptr inbounds [1005 x i32]* %pairlistn_std, i32 0, i32 0
  %1155 = icmp ne i32* %235, %1154
  br i1 %1155, label %1156, label %1161

; <label>:1156                                    ; preds = %1153
  %1157 = icmp eq i32* %235, null
  br i1 %1157, label %1160, label %1158

; <label>:1158                                    ; preds = %1156
  %1159 = bitcast i32* %235 to i8*
  call void @_ZdaPv(i8* %1159) #8
  br label %1160

; <label>:1160                                    ; preds = %1158, %1156
  br label %1161

; <label>:1161                                    ; preds = %1160, %1153
  %1162 = getelementptr inbounds [1005 x i32]* %pairlistx_std, i32 0, i32 0
  %1163 = icmp ne i32* %249, %1162
  br i1 %1163, label %1164, label %1169

; <label>:1164                                    ; preds = %1161
  %1165 = icmp eq i32* %249, null
  br i1 %1165, label %1168, label %1166

; <label>:1166                                    ; preds = %1164
  %1167 = bitcast i32* %249 to i8*
  call void @_ZdaPv(i8* %1167) #8
  br label %1168

; <label>:1168                                    ; preds = %1166, %1164
  br label %1169

; <label>:1169                                    ; preds = %1168, %1161
  %1170 = getelementptr inbounds [1005 x i32]* %pairlistm_std, i32 0, i32 0
  %1171 = icmp ne i32* %263, %1170
  br i1 %1171, label %1172, label %1177

; <label>:1172                                    ; preds = %1169
  %1173 = icmp eq i32* %263, null
  br i1 %1173, label %1176, label %1174

; <label>:1174                                    ; preds = %1172
  %1175 = bitcast i32* %263 to i8*
  call void @_ZdaPv(i8* %1175) #8
  br label %1176

; <label>:1176                                    ; preds = %1174, %1172
  br label %1177

; <label>:1177                                    ; preds = %1176, %1169
  %1178 = sitofp i32 %exclChecksum.0 to double
  %1179 = getelementptr inbounds double* %6, i64 22
  %1180 = load double* %1179, align 8
  %1181 = fadd double %1180, %1178
  store double %1181, double* %1179, align 8
  %1182 = getelementptr inbounds double* %6, i64 2
  %1183 = load double* %1182, align 8
  %1184 = fadd double %1183, %vdwEnergy.0
  store double %1184, double* %1182, align 8
  %1185 = getelementptr inbounds double* %6, i64 0
  %1186 = load double* %1185, align 8
  %1187 = fadd double %1186, %electEnergy.0
  store double %1187, double* %1185, align 8
  %1188 = getelementptr inbounds double* %6, i64 25
  %1189 = load double* %1188, align 8
  %1190 = fadd double %1189, %vdwEnergy_s.0
  store double %1190, double* %1188, align 8
  %1191 = getelementptr inbounds double* %6, i64 23
  %1192 = load double* %1191, align 8
  %1193 = fadd double %1192, %electEnergy_s.0
  store double %1193, double* %1191, align 8
  %1194 = getelementptr inbounds double* %6, i64 3
  %1195 = load double* %1194, align 8
  %1196 = fadd double %1195, %virial_xx.0
  store double %1196, double* %1194, align 8
  %1197 = getelementptr inbounds double* %6, i64 4
  %1198 = load double* %1197, align 8
  %1199 = fadd double %1198, %virial_xy.0
  store double %1199, double* %1197, align 8
  %1200 = getelementptr inbounds double* %6, i64 5
  %1201 = load double* %1200, align 8
  %1202 = fadd double %1201, %virial_xz.0
  store double %1202, double* %1200, align 8
  %1203 = getelementptr inbounds double* %6, i64 6
  %1204 = load double* %1203, align 8
  %1205 = fadd double %1204, %virial_xy.0
  store double %1205, double* %1203, align 8
  %1206 = getelementptr inbounds double* %6, i64 7
  %1207 = load double* %1206, align 8
  %1208 = fadd double %1207, %virial_yy.0
  store double %1208, double* %1206, align 8
  %1209 = getelementptr inbounds double* %6, i64 8
  %1210 = load double* %1209, align 8
  %1211 = fadd double %1210, %virial_yz.0
  store double %1211, double* %1209, align 8
  %1212 = getelementptr inbounds double* %6, i64 9
  %1213 = load double* %1212, align 8
  %1214 = fadd double %1213, %virial_xz.0
  store double %1214, double* %1212, align 8
  %1215 = getelementptr inbounds double* %6, i64 10
  %1216 = load double* %1215, align 8
  %1217 = fadd double %1216, %virial_yz.0
  store double %1217, double* %1215, align 8
  %1218 = getelementptr inbounds double* %6, i64 11
  %1219 = load double* %1218, align 8
  %1220 = fadd double %1219, %virial_zz.0
  store double %1220, double* %1218, align 8
  br label %1221

; <label>:1221                                    ; preds = %1177, %182, %3
  ret void
}

; Function Attrs: uwtable
define void @_ZN20ComputeNonbondedUtil20calc_self_energy_fepEP9nonbonded(%struct.nonbonded* %params) #0 align 2 {
  %ljNull = alloca %"struct.LJTable::TableEntry", align 8
  %grouplist_std = alloca [1005 x i32], align 16
  %fixglist_std = alloca [1005 x i32], align 16
  %goodglist_std = alloca [1005 x i32], align 16
  %pairlist_std = alloca [1005 x i32], align 16
  %pairlist2_std = alloca [1005 x i32], align 16
  %pairlistn_std = alloca [1005 x i32], align 16
  %pairlistx_std = alloca [1005 x i32], align 16
  %pairlistm_std = alloca [1005 x i32], align 16
  %r2f = alloca %union.anon.54, align 4
  %r2f28 = alloca %union.anon.55, align 4
  %1 = load i32* @_ZN20ComputeNonbondedUtil8commOnlyE, align 4
  %2 = icmp ne i32 %1, 0
  br i1 %2, label %3, label %4

; <label>:3                                       ; preds = %0
  br label %1280

; <label>:4                                       ; preds = %0
  %5 = getelementptr inbounds %struct.nonbonded* %params, i32 0, i32 4
  %6 = load double** %5, align 8
  %7 = load double* @_ZN20ComputeNonbondedUtil7cutoff2E, align 8
  %8 = load double* @_ZN20ComputeNonbondedUtil12groupcutoff2E, align 8
  %9 = load double* @_ZN20ComputeNonbondedUtil12dielectric_1E, align 8
  %10 = load %class.LJTable** @_ZN20ComputeNonbondedUtil7ljTableE, align 8
  %11 = getelementptr inbounds %"struct.LJTable::TableEntry"* %ljNull, i32 0, i32 0
  store double 0.000000e+00, double* %11, align 8
  %12 = getelementptr inbounds %"struct.LJTable::TableEntry"* %ljNull, i32 0, i32 1
  store double 0.000000e+00, double* %12, align 8
  %13 = load %class.Molecule** @_ZN20ComputeNonbondedUtil3molE, align 8
  %14 = load double** @_ZN20ComputeNonbondedUtil11table_shortE, align 8
  %15 = load double* @_ZN20ComputeNonbondedUtil7scalingE, align 8
  %16 = load double* @_ZN20ComputeNonbondedUtil7scale14E, align 8
  %17 = fsub double 1.000000e+00, %16
  %18 = load double* @_ZN20ComputeNonbondedUtil9switchOn2E, align 8
  %19 = load double* @_ZN20ComputeNonbondedUtil2c1E, align 8
  %20 = load double* @_ZN20ComputeNonbondedUtil2c3E, align 8
  %21 = load double* @_ZN20ComputeNonbondedUtil8r2_deltaE, align 8
  %22 = load i32* @_ZN20ComputeNonbondedUtil12r2_delta_expE, align 4
  %23 = sub nsw i32 %22, 127
  %24 = mul nsw i32 64, %23
  %25 = getelementptr inbounds %struct.nonbonded* %params, i32 0, i32 3
  %26 = getelementptr inbounds [2 x i32]* %25, i32 0, i64 0
  %27 = load i32* %26, align 4
  %28 = getelementptr inbounds %struct.nonbonded* %params, i32 0, i32 3
  %29 = getelementptr inbounds [2 x i32]* %28, i32 0, i64 1
  %30 = load i32* %29, align 4
  %31 = getelementptr inbounds %struct.nonbonded* %params, i32 0, i32 0
  %32 = getelementptr inbounds [2 x %struct.CompAtom*]* %31, i32 0, i64 0
  %33 = load %struct.CompAtom** %32, align 8
  %34 = getelementptr inbounds %struct.nonbonded* %params, i32 0, i32 0
  %35 = getelementptr inbounds [2 x %struct.CompAtom*]* %34, i32 0, i64 1
  %36 = load %struct.CompAtom** %35, align 8
  %37 = icmp slt i32 %30, 1000
  br i1 %37, label %38, label %40

; <label>:38                                      ; preds = %4
  %39 = getelementptr inbounds [1005 x i32]* %grouplist_std, i32 0, i32 0
  br label %49

; <label>:40                                      ; preds = %4
  %41 = add nsw i32 %30, 5
  %42 = sext i32 %41 to i64
  %43 = call { i64, i1 } @llvm.umul.with.overflow.i64(i64 %42, i64 4)
  %44 = extractvalue { i64, i1 } %43, 1
  %45 = extractvalue { i64, i1 } %43, 0
  %46 = select i1 %44, i64 -1, i64 %45
  %47 = call noalias i8* @_Znam(i64 %46) #9
  %48 = bitcast i8* %47 to i32*
  br label %49

; <label>:49                                      ; preds = %40, %38
  %50 = phi i32* [ %39, %38 ], [ %48, %40 ]
  %51 = icmp slt i32 %30, 1000
  br i1 %51, label %52, label %54

; <label>:52                                      ; preds = %49
  %53 = getelementptr inbounds [1005 x i32]* %fixglist_std, i32 0, i32 0
  br label %63

; <label>:54                                      ; preds = %49
  %55 = add nsw i32 %30, 5
  %56 = sext i32 %55 to i64
  %57 = call { i64, i1 } @llvm.umul.with.overflow.i64(i64 %56, i64 4)
  %58 = extractvalue { i64, i1 } %57, 1
  %59 = extractvalue { i64, i1 } %57, 0
  %60 = select i1 %58, i64 -1, i64 %59
  %61 = call noalias i8* @_Znam(i64 %60) #9
  %62 = bitcast i8* %61 to i32*
  br label %63

; <label>:63                                      ; preds = %54, %52
  %64 = phi i32* [ %53, %52 ], [ %62, %54 ]
  %65 = icmp slt i32 %30, 1000
  br i1 %65, label %66, label %68

; <label>:66                                      ; preds = %63
  %67 = getelementptr inbounds [1005 x i32]* %goodglist_std, i32 0, i32 0
  br label %77

; <label>:68                                      ; preds = %63
  %69 = add nsw i32 %30, 5
  %70 = sext i32 %69 to i64
  %71 = call { i64, i1 } @llvm.umul.with.overflow.i64(i64 %70, i64 4)
  %72 = extractvalue { i64, i1 } %71, 1
  %73 = extractvalue { i64, i1 } %71, 0
  %74 = select i1 %72, i64 -1, i64 %73
  %75 = call noalias i8* @_Znam(i64 %74) #9
  %76 = bitcast i8* %75 to i32*
  br label %77

; <label>:77                                      ; preds = %68, %66
  %78 = phi i32* [ %67, %66 ], [ %76, %68 ]
  br label %79

; <label>:79                                      ; preds = %102, %77
  %g.0 = phi i32 [ 0, %77 ], [ %g.1, %102 ]
  %j.0 = phi i32 [ 0, %77 ], [ %103, %102 ]
  %80 = icmp slt i32 %j.0, %30
  br i1 %80, label %81, label %104

; <label>:81                                      ; preds = %79
  %82 = sext i32 %j.0 to i64
  %83 = getelementptr inbounds %struct.CompAtom* %36, i64 %82
  %84 = getelementptr inbounds %struct.CompAtom* %83, i32 0, i32 2
  %85 = load i32* %84, align 4
  %86 = lshr i32 %85, 22
  %87 = and i32 %86, 7
  %88 = icmp ne i32 %87, 0
  br i1 %88, label %97, label %89

; <label>:89                                      ; preds = %81
  %90 = sext i32 %j.0 to i64
  %91 = getelementptr inbounds %struct.CompAtom* %36, i64 %90
  %92 = getelementptr inbounds %struct.CompAtom* %91, i32 0, i32 2
  %93 = load i32* %92, align 4
  %94 = lshr i32 %93, 25
  %95 = and i32 %94, 1
  %96 = icmp ne i32 %95, 0
  br i1 %96, label %97, label %101

; <label>:97                                      ; preds = %89, %81
  %98 = add nsw i32 %g.0, 1
  %99 = sext i32 %g.0 to i64
  %100 = getelementptr inbounds i32* %50, i64 %99
  store i32 %j.0, i32* %100, align 4
  br label %101

; <label>:101                                     ; preds = %97, %89
  %g.1 = phi i32 [ %98, %97 ], [ %g.0, %89 ]
  br label %102

; <label>:102                                     ; preds = %101
  %103 = add nsw i32 %j.0, 1
  br label %79

; <label>:104                                     ; preds = %79
  %105 = icmp ne i32 %g.0, 0
  br i1 %105, label %106, label %113

; <label>:106                                     ; preds = %104
  %107 = sub nsw i32 %g.0, 1
  %108 = sext i32 %107 to i64
  %109 = getelementptr inbounds i32* %50, i64 %108
  %110 = load i32* %109, align 4
  %111 = sext i32 %g.0 to i64
  %112 = getelementptr inbounds i32* %50, i64 %111
  store i32 %110, i32* %112, align 4
  br label %113

; <label>:113                                     ; preds = %106, %104
  %114 = load i32* @_ZN20ComputeNonbondedUtil12fixedAtomsOnE, align 4
  %115 = icmp ne i32 %114, 0
  br i1 %115, label %116, label %165

; <label>:116                                     ; preds = %113
  br label %117

; <label>:117                                     ; preds = %135, %116
  %all_fixed.0 = phi i32 [ 1, %116 ], [ %all_fixed.1, %135 ]
  %fixg.0 = phi i32 [ 0, %116 ], [ %fixg.1, %135 ]
  %g.2 = phi i32 [ 0, %116 ], [ %136, %135 ]
  %118 = icmp slt i32 %g.2, %g.0
  br i1 %118, label %119, label %137

; <label>:119                                     ; preds = %117
  %120 = sext i32 %g.2 to i64
  %121 = getelementptr inbounds i32* %50, i64 %120
  %122 = load i32* %121, align 4
  %123 = sext i32 %122 to i64
  %124 = getelementptr inbounds %struct.CompAtom* %36, i64 %123
  %125 = getelementptr inbounds %struct.CompAtom* %124, i32 0, i32 2
  %126 = load i32* %125, align 4
  %127 = lshr i32 %126, 27
  %128 = and i32 %127, 1
  %129 = icmp ne i32 %128, 0
  br i1 %129, label %134, label %130

; <label>:130                                     ; preds = %119
  %131 = add nsw i32 %fixg.0, 1
  %132 = sext i32 %fixg.0 to i64
  %133 = getelementptr inbounds i32* %64, i64 %132
  store i32 %122, i32* %133, align 4
  br label %134

; <label>:134                                     ; preds = %130, %119
  %all_fixed.1 = phi i32 [ %all_fixed.0, %119 ], [ 0, %130 ]
  %fixg.1 = phi i32 [ %fixg.0, %119 ], [ %131, %130 ]
  br label %135

; <label>:135                                     ; preds = %134
  %136 = add nsw i32 %g.2, 1
  br label %117

; <label>:137                                     ; preds = %117
  %138 = icmp ne i32 %all_fixed.0, 0
  br i1 %138, label %139, label %164

; <label>:139                                     ; preds = %137
  %140 = getelementptr inbounds [1005 x i32]* %grouplist_std, i32 0, i32 0
  %141 = icmp ne i32* %50, %140
  br i1 %141, label %142, label %147

; <label>:142                                     ; preds = %139
  %143 = icmp eq i32* %50, null
  br i1 %143, label %146, label %144

; <label>:144                                     ; preds = %142
  %145 = bitcast i32* %50 to i8*
  call void @_ZdaPv(i8* %145) #8
  br label %146

; <label>:146                                     ; preds = %144, %142
  br label %147

; <label>:147                                     ; preds = %146, %139
  %148 = getelementptr inbounds [1005 x i32]* %fixglist_std, i32 0, i32 0
  %149 = icmp ne i32* %64, %148
  br i1 %149, label %150, label %155

; <label>:150                                     ; preds = %147
  %151 = icmp eq i32* %64, null
  br i1 %151, label %154, label %152

; <label>:152                                     ; preds = %150
  %153 = bitcast i32* %64 to i8*
  call void @_ZdaPv(i8* %153) #8
  br label %154

; <label>:154                                     ; preds = %152, %150
  br label %155

; <label>:155                                     ; preds = %154, %147
  %156 = getelementptr inbounds [1005 x i32]* %goodglist_std, i32 0, i32 0
  %157 = icmp ne i32* %78, %156
  br i1 %157, label %158, label %163

; <label>:158                                     ; preds = %155
  %159 = icmp eq i32* %78, null
  br i1 %159, label %162, label %160

; <label>:160                                     ; preds = %158
  %161 = bitcast i32* %78 to i8*
  call void @_ZdaPv(i8* %161) #8
  br label %162

; <label>:162                                     ; preds = %160, %158
  br label %163

; <label>:163                                     ; preds = %162, %155
  br label %1280

; <label>:164                                     ; preds = %137
  br label %165

; <label>:165                                     ; preds = %164, %113
  %fixg.2 = phi i32 [ %fixg.0, %164 ], [ 0, %113 ]
  %166 = icmp ne i32 %fixg.2, 0
  br i1 %166, label %167, label %174

; <label>:167                                     ; preds = %165
  %168 = sub nsw i32 %fixg.2, 1
  %169 = sext i32 %168 to i64
  %170 = getelementptr inbounds i32* %64, i64 %169
  %171 = load i32* %170, align 4
  %172 = sext i32 %fixg.2 to i64
  %173 = getelementptr inbounds i32* %64, i64 %172
  store i32 %171, i32* %173, align 4
  br label %174

; <label>:174                                     ; preds = %167, %165
  %175 = icmp slt i32 %30, 1000
  br i1 %175, label %176, label %178

; <label>:176                                     ; preds = %174
  %177 = getelementptr inbounds [1005 x i32]* %pairlist_std, i32 0, i32 0
  br label %187

; <label>:178                                     ; preds = %174
  %179 = add nsw i32 %30, 5
  %180 = sext i32 %179 to i64
  %181 = call { i64, i1 } @llvm.umul.with.overflow.i64(i64 %180, i64 4)
  %182 = extractvalue { i64, i1 } %181, 1
  %183 = extractvalue { i64, i1 } %181, 0
  %184 = select i1 %182, i64 -1, i64 %183
  %185 = call noalias i8* @_Znam(i64 %184) #9
  %186 = bitcast i8* %185 to i32*
  br label %187

; <label>:187                                     ; preds = %178, %176
  %188 = phi i32* [ %177, %176 ], [ %186, %178 ]
  %189 = icmp slt i32 %30, 1000
  br i1 %189, label %190, label %192

; <label>:190                                     ; preds = %187
  %191 = getelementptr inbounds [1005 x i32]* %pairlist2_std, i32 0, i32 0
  br label %201

; <label>:192                                     ; preds = %187
  %193 = add nsw i32 %30, 5
  %194 = sext i32 %193 to i64
  %195 = call { i64, i1 } @llvm.umul.with.overflow.i64(i64 %194, i64 4)
  %196 = extractvalue { i64, i1 } %195, 1
  %197 = extractvalue { i64, i1 } %195, 0
  %198 = select i1 %196, i64 -1, i64 %197
  %199 = call noalias i8* @_Znam(i64 %198) #9
  %200 = bitcast i8* %199 to i32*
  br label %201

; <label>:201                                     ; preds = %192, %190
  %202 = phi i32* [ %191, %190 ], [ %200, %192 ]
  %203 = icmp slt i32 %30, 1000
  br i1 %203, label %204, label %206

; <label>:204                                     ; preds = %201
  %205 = getelementptr inbounds [1005 x i32]* %pairlistn_std, i32 0, i32 0
  br label %215

; <label>:206                                     ; preds = %201
  %207 = add nsw i32 %30, 5
  %208 = sext i32 %207 to i64
  %209 = call { i64, i1 } @llvm.umul.with.overflow.i64(i64 %208, i64 4)
  %210 = extractvalue { i64, i1 } %209, 1
  %211 = extractvalue { i64, i1 } %209, 0
  %212 = select i1 %210, i64 -1, i64 %211
  %213 = call noalias i8* @_Znam(i64 %212) #9
  %214 = bitcast i8* %213 to i32*
  br label %215

; <label>:215                                     ; preds = %206, %204
  %216 = phi i32* [ %205, %204 ], [ %214, %206 ]
  %217 = icmp slt i32 %30, 1000
  br i1 %217, label %218, label %220

; <label>:218                                     ; preds = %215
  %219 = getelementptr inbounds [1005 x i32]* %pairlistx_std, i32 0, i32 0
  br label %229

; <label>:220                                     ; preds = %215
  %221 = add nsw i32 %30, 5
  %222 = sext i32 %221 to i64
  %223 = call { i64, i1 } @llvm.umul.with.overflow.i64(i64 %222, i64 4)
  %224 = extractvalue { i64, i1 } %223, 1
  %225 = extractvalue { i64, i1 } %223, 0
  %226 = select i1 %224, i64 -1, i64 %225
  %227 = call noalias i8* @_Znam(i64 %226) #9
  %228 = bitcast i8* %227 to i32*
  br label %229

; <label>:229                                     ; preds = %220, %218
  %230 = phi i32* [ %219, %218 ], [ %228, %220 ]
  %231 = icmp slt i32 %30, 1000
  br i1 %231, label %232, label %234

; <label>:232                                     ; preds = %229
  %233 = getelementptr inbounds [1005 x i32]* %pairlistm_std, i32 0, i32 0
  br label %243

; <label>:234                                     ; preds = %229
  %235 = add nsw i32 %30, 5
  %236 = sext i32 %235 to i64
  %237 = call { i64, i1 } @llvm.umul.with.overflow.i64(i64 %236, i64 4)
  %238 = extractvalue { i64, i1 } %237, 1
  %239 = extractvalue { i64, i1 } %237, 0
  %240 = select i1 %238, i64 -1, i64 %239
  %241 = call noalias i8* @_Znam(i64 %240) #9
  %242 = bitcast i8* %241 to i32*
  br label %243

; <label>:243                                     ; preds = %234, %232
  %244 = phi i32* [ %233, %232 ], [ %242, %234 ]
  %245 = getelementptr inbounds %struct.nonbonded* %params, i32 0, i32 1
  %246 = getelementptr inbounds [2 x %class.Vector*]* %245, i32 0, i64 0
  %247 = load %class.Vector** %246, align 8
  %248 = getelementptr inbounds %struct.nonbonded* %params, i32 0, i32 1
  %249 = getelementptr inbounds [2 x %class.Vector*]* %248, i32 0, i64 1
  %250 = load %class.Vector** %249, align 8
  %251 = sub nsw i32 %27, 1
  %252 = mul nsw i32 %251, %30
  %253 = sdiv i32 %252, 2
  %254 = getelementptr inbounds %struct.nonbonded* %params, i32 0, i32 8
  %255 = load i32* %254, align 4
  %256 = mul nsw i32 %253, %255
  %257 = getelementptr inbounds %struct.nonbonded* %params, i32 0, i32 10
  %258 = load i32* %257, align 4
  %259 = sdiv i32 %256, %258
  %260 = getelementptr inbounds %struct.nonbonded* %params, i32 0, i32 9
  %261 = load i32* %260, align 4
  %262 = mul nsw i32 %253, %261
  %263 = getelementptr inbounds %struct.nonbonded* %params, i32 0, i32 10
  %264 = load i32* %263, align 4
  %265 = sdiv i32 %262, %264
  br label %266

; <label>:266                                     ; preds = %1170, %243
  %fixg_lower.0 = phi i32 [ 0, %243 ], [ %fixg_lower.4, %1170 ]
  %g_lower.0 = phi i32 [ 0, %243 ], [ %g_lower.4, %1170 ]
  %j_hgroup.0 = phi i32 [ 0, %243 ], [ %j_hgroup.3, %1170 ]
  %pairlistindex.0 = phi i32 [ 0, %243 ], [ %pairlistindex.3, %1170 ]
  %pairlistoffset.0 = phi i32 [ 0, %243 ], [ %pairlistoffset.2, %1170 ]
  %pairCount.0 = phi i32 [ 0, %243 ], [ %pairCount.3, %1170 ]
  %i.0 = phi i32 [ 0, %243 ], [ %1171, %1170 ]
  %virial_zz.0 = phi double [ 0.000000e+00, %243 ], [ %virial_zz.3, %1170 ]
  %virial_yz.0 = phi double [ 0.000000e+00, %243 ], [ %virial_yz.3, %1170 ]
  %virial_yy.0 = phi double [ 0.000000e+00, %243 ], [ %virial_yy.3, %1170 ]
  %virial_xz.0 = phi double [ 0.000000e+00, %243 ], [ %virial_xz.3, %1170 ]
  %virial_xy.0 = phi double [ 0.000000e+00, %243 ], [ %virial_xy.3, %1170 ]
  %virial_xx.0 = phi double [ 0.000000e+00, %243 ], [ %virial_xx.3, %1170 ]
  %electEnergy_s.0 = phi double [ 0.000000e+00, %243 ], [ %electEnergy_s.3, %1170 ]
  %vdwEnergy_s.0 = phi double [ 0.000000e+00, %243 ], [ %vdwEnergy_s.3, %1170 ]
  %electEnergy.0 = phi double [ 0.000000e+00, %243 ], [ %electEnergy.3, %1170 ]
  %vdwEnergy.0 = phi double [ 0.000000e+00, %243 ], [ %vdwEnergy.3, %1170 ]
  %exclChecksum.0 = phi i32 [ 0, %243 ], [ %exclChecksum.11, %1170 ]
  %267 = sub nsw i32 %27, 1
  %268 = icmp slt i32 %i.0, %267
  br i1 %268, label %269, label %1172

; <label>:269                                     ; preds = %266
  %270 = sext i32 %i.0 to i64
  %271 = getelementptr inbounds %struct.CompAtom* %33, i64 %270
  %272 = getelementptr inbounds %struct.CompAtom* %271, i32 0, i32 2
  %273 = load i32* %272, align 4
  %274 = and i32 %273, 4194303
  %275 = call %class.ExclusionCheck* @_ZNK8Molecule23get_excl_check_for_atomEi(%class.Molecule* %13, i32 %274)
  %276 = getelementptr inbounds %class.ExclusionCheck* %275, i32 0, i32 0
  %277 = load i32* %276, align 4
  %278 = getelementptr inbounds %class.ExclusionCheck* %275, i32 0, i32 1
  %279 = load i32* %278, align 4
  %280 = getelementptr inbounds %class.ExclusionCheck* %275, i32 0, i32 2
  %281 = load i8** %280, align 8
  %282 = sext i32 %277 to i64
  %283 = sub i64 0, %282
  %284 = getelementptr inbounds i8* %281, i64 %283
  %285 = getelementptr inbounds %struct.CompAtom* %271, i32 0, i32 0
  %286 = getelementptr inbounds %class.Vector* %285, i32 0, i32 0
  %287 = load double* %286, align 8
  %288 = getelementptr inbounds %struct.CompAtom* %271, i32 0, i32 0
  %289 = getelementptr inbounds %class.Vector* %288, i32 0, i32 1
  %290 = load double* %289, align 8
  %291 = getelementptr inbounds %struct.CompAtom* %271, i32 0, i32 0
  %292 = getelementptr inbounds %class.Vector* %291, i32 0, i32 2
  %293 = load double* %292, align 8
  %294 = sext i32 %i.0 to i64
  %295 = getelementptr inbounds %class.Vector* %247, i64 %294
  %296 = getelementptr inbounds %struct.CompAtom* %271, i32 0, i32 2
  %297 = load i32* %296, align 4
  %298 = lshr i32 %297, 22
  %299 = and i32 %298, 7
  %300 = icmp ne i32 %299, 0
  br i1 %300, label %307, label %301

; <label>:301                                     ; preds = %269
  %302 = getelementptr inbounds %struct.CompAtom* %271, i32 0, i32 2
  %303 = load i32* %302, align 4
  %304 = lshr i32 %303, 25
  %305 = and i32 %304, 1
  %306 = icmp ne i32 %305, 0
  br i1 %306, label %307, label %518

; <label>:307                                     ; preds = %301, %269
  %308 = getelementptr inbounds %struct.CompAtom* %271, i32 0, i32 2
  %309 = load i32* %308, align 4
  %310 = lshr i32 %309, 22
  %311 = and i32 %310, 7
  %312 = icmp ne i32 %311, 0
  br i1 %312, label %313, label %333

; <label>:313                                     ; preds = %307
  %314 = getelementptr inbounds %struct.CompAtom* %271, i32 0, i32 2
  %315 = load i32* %314, align 4
  %316 = lshr i32 %315, 22
  %317 = and i32 %316, 7
  %318 = sub nsw i32 %27, 1
  %319 = sub nsw i32 %318, %i.0
  %320 = mul nsw i32 %317, %319
  %321 = add nsw i32 %pairCount.0, %320
  %322 = sub nsw i32 %317, 1
  %323 = mul nsw i32 %317, %322
  %324 = sdiv i32 %323, 2
  %325 = sub nsw i32 %321, %324
  %326 = icmp slt i32 %pairCount.0, %259
  br i1 %326, label %329, label %327

; <label>:327                                     ; preds = %313
  %328 = icmp sge i32 %pairCount.0, %265
  br i1 %328, label %329, label %332

; <label>:329                                     ; preds = %327, %313
  %330 = sub nsw i32 %317, 1
  %331 = add nsw i32 %i.0, %330
  br label %1170

; <label>:332                                     ; preds = %327
  br label %333

; <label>:333                                     ; preds = %332, %307
  %pairCount.1 = phi i32 [ %325, %332 ], [ %pairCount.0, %307 ]
  %334 = load i32* @_ZN20ComputeNonbondedUtil12fixedAtomsOnE, align 4
  %335 = icmp ne i32 %334, 0
  br i1 %335, label %336, label %342

; <label>:336                                     ; preds = %333
  %337 = getelementptr inbounds %struct.CompAtom* %271, i32 0, i32 2
  %338 = load i32* %337, align 4
  %339 = lshr i32 %338, 27
  %340 = and i32 %339, 1
  %341 = icmp ne i32 %340, 0
  br label %342

; <label>:342                                     ; preds = %336, %333
  %343 = phi i1 [ false, %333 ], [ %341, %336 ]
  %344 = zext i1 %343 to i32
  %345 = getelementptr inbounds %struct.CompAtom* %271, i32 0, i32 2
  %346 = load i32* %345, align 4
  %347 = lshr i32 %346, 22
  %348 = and i32 %347, 7
  %349 = icmp ne i32 %348, 0
  br i1 %349, label %350, label %380

; <label>:350                                     ; preds = %342
  %351 = getelementptr inbounds %struct.CompAtom* %271, i32 0, i32 2
  %352 = load i32* %351, align 4
  %353 = lshr i32 %352, 22
  %354 = and i32 %353, 7
  %355 = add nsw i32 %i.0, %354
  br label %356

; <label>:356                                     ; preds = %365, %350
  %g_lower.1 = phi i32 [ %g_lower.0, %350 ], [ %366, %365 ]
  %357 = icmp slt i32 %g_lower.1, %g.0
  br i1 %357, label %358, label %363

; <label>:358                                     ; preds = %356
  %359 = sext i32 %g_lower.1 to i64
  %360 = getelementptr inbounds i32* %50, i64 %359
  %361 = load i32* %360, align 4
  %362 = icmp slt i32 %361, %355
  br label %363

; <label>:363                                     ; preds = %358, %356
  %364 = phi i1 [ false, %356 ], [ %362, %358 ]
  br i1 %364, label %365, label %367

; <label>:365                                     ; preds = %363
  %366 = add nsw i32 %g_lower.1, 1
  br label %356

; <label>:367                                     ; preds = %363
  br label %368

; <label>:368                                     ; preds = %377, %367
  %fixg_lower.1 = phi i32 [ %fixg_lower.0, %367 ], [ %378, %377 ]
  %369 = icmp slt i32 %fixg_lower.1, %fixg.2
  br i1 %369, label %370, label %375

; <label>:370                                     ; preds = %368
  %371 = sext i32 %fixg_lower.1 to i64
  %372 = getelementptr inbounds i32* %64, i64 %371
  %373 = load i32* %372, align 4
  %374 = icmp slt i32 %373, %355
  br label %375

; <label>:375                                     ; preds = %370, %368
  %376 = phi i1 [ false, %368 ], [ %374, %370 ]
  br i1 %376, label %377, label %379

; <label>:377                                     ; preds = %375
  %378 = add nsw i32 %fixg_lower.1, 1
  br label %368

; <label>:379                                     ; preds = %375
  br label %380

; <label>:380                                     ; preds = %379, %342
  %fixg_lower.2 = phi i32 [ %fixg_lower.1, %379 ], [ %fixg_lower.0, %342 ]
  %g_lower.2 = phi i32 [ %g_lower.1, %379 ], [ %g_lower.0, %342 ]
  %j_hgroup.1 = phi i32 [ %355, %379 ], [ %j_hgroup.0, %342 ]
  %381 = add nsw i32 %i.0, 1
  br label %382

; <label>:382                                     ; preds = %388, %380
  %pairlistindex.1 = phi i32 [ 0, %380 ], [ %385, %388 ]
  %j.1 = phi i32 [ %381, %380 ], [ %389, %388 ]
  %383 = icmp slt i32 %j.1, %j_hgroup.1
  br i1 %383, label %384, label %390

; <label>:384                                     ; preds = %382
  %385 = add nsw i32 %pairlistindex.1, 1
  %386 = sext i32 %pairlistindex.1 to i64
  %387 = getelementptr inbounds i32* %188, i64 %386
  store i32 %j.1, i32* %387, align 4
  br label %388

; <label>:388                                     ; preds = %384
  %389 = add nsw i32 %j.1, 1
  br label %382

; <label>:390                                     ; preds = %382
  %391 = sext i32 %pairlistindex.1 to i64
  %392 = getelementptr inbounds i32* %188, i64 %391
  %393 = icmp ne i32 %344, 0
  br i1 %393, label %394, label %395

; <label>:394                                     ; preds = %390
  br label %396

; <label>:395                                     ; preds = %390
  br label %396

; <label>:396                                     ; preds = %395, %394
  %397 = phi i32* [ %64, %394 ], [ %50, %395 ]
  %398 = icmp ne i32 %344, 0
  br i1 %398, label %399, label %400

; <label>:399                                     ; preds = %396
  br label %401

; <label>:400                                     ; preds = %396
  br label %401

; <label>:401                                     ; preds = %400, %399
  %402 = phi i32 [ %fixg_lower.2, %399 ], [ %g_lower.2, %400 ]
  %403 = icmp ne i32 %344, 0
  br i1 %403, label %404, label %405

; <label>:404                                     ; preds = %401
  br label %406

; <label>:405                                     ; preds = %401
  br label %406

; <label>:406                                     ; preds = %405, %404
  %407 = phi i32 [ %fixg.2, %404 ], [ %g.0, %405 ]
  %408 = icmp slt i32 %402, %407
  br i1 %408, label %409, label %503

; <label>:409                                     ; preds = %406
  %410 = sext i32 %402 to i64
  %411 = getelementptr inbounds i32* %397, i64 %410
  %412 = load i32* %411, align 4
  %413 = sext i32 %412 to i64
  %414 = getelementptr inbounds %struct.CompAtom* %36, i64 %413
  %415 = getelementptr inbounds %struct.CompAtom* %414, i32 0, i32 0
  %416 = getelementptr inbounds %class.Vector* %415, i32 0, i32 0
  %417 = load double* %416, align 8
  %418 = sext i32 %412 to i64
  %419 = getelementptr inbounds %struct.CompAtom* %36, i64 %418
  %420 = getelementptr inbounds %struct.CompAtom* %419, i32 0, i32 0
  %421 = getelementptr inbounds %class.Vector* %420, i32 0, i32 1
  %422 = load double* %421, align 8
  %423 = sext i32 %412 to i64
  %424 = getelementptr inbounds %struct.CompAtom* %36, i64 %423
  %425 = getelementptr inbounds %struct.CompAtom* %424, i32 0, i32 0
  %426 = getelementptr inbounds %class.Vector* %425, i32 0, i32 2
  %427 = load double* %426, align 8
  br label %428

; <label>:428                                     ; preds = %461, %409
  %g.3 = phi i32 [ %402, %409 ], [ %431, %461 ]
  %gli.0 = phi i32* [ %78, %409 ], [ %gli.1, %461 ]
  %j2.0 = phi i32 [ %412, %409 ], [ %434, %461 ]
  %p_j_x.0 = phi double [ %417, %409 ], [ %441, %461 ]
  %p_j_y.0 = phi double [ %422, %409 ], [ %449, %461 ]
  %p_j_z.0 = phi double [ %427, %409 ], [ %457, %461 ]
  %429 = icmp slt i32 %g.3, %407
  br i1 %429, label %430, label %462

; <label>:430                                     ; preds = %428
  %431 = add nsw i32 %g.3, 1
  %432 = sext i32 %431 to i64
  %433 = getelementptr inbounds i32* %397, i64 %432
  %434 = load i32* %433, align 4
  %435 = fsub double %287, %p_j_x.0
  %436 = fmul double %435, %435
  %437 = sext i32 %434 to i64
  %438 = getelementptr inbounds %struct.CompAtom* %36, i64 %437
  %439 = getelementptr inbounds %struct.CompAtom* %438, i32 0, i32 0
  %440 = getelementptr inbounds %class.Vector* %439, i32 0, i32 0
  %441 = load double* %440, align 8
  %442 = fsub double %290, %p_j_y.0
  %443 = fmul double %442, %442
  %444 = fadd double %436, %443
  %445 = sext i32 %434 to i64
  %446 = getelementptr inbounds %struct.CompAtom* %36, i64 %445
  %447 = getelementptr inbounds %struct.CompAtom* %446, i32 0, i32 0
  %448 = getelementptr inbounds %class.Vector* %447, i32 0, i32 1
  %449 = load double* %448, align 8
  %450 = fsub double %293, %p_j_z.0
  %451 = fmul double %450, %450
  %452 = fadd double %444, %451
  %453 = sext i32 %434 to i64
  %454 = getelementptr inbounds %struct.CompAtom* %36, i64 %453
  %455 = getelementptr inbounds %struct.CompAtom* %454, i32 0, i32 0
  %456 = getelementptr inbounds %class.Vector* %455, i32 0, i32 2
  %457 = load double* %456, align 8
  %458 = fcmp ole double %452, %8
  br i1 %458, label %459, label %461

; <label>:459                                     ; preds = %430
  store i32 %j2.0, i32* %gli.0, align 4
  %460 = getelementptr inbounds i32* %gli.0, i32 1
  br label %461

; <label>:461                                     ; preds = %459, %430
  %gli.1 = phi i32* [ %460, %459 ], [ %gli.0, %430 ]
  br label %428

; <label>:462                                     ; preds = %428
  %463 = ptrtoint i32* %gli.0 to i64
  %464 = ptrtoint i32* %78 to i64
  %465 = sub i64 %463, %464
  %466 = sdiv exact i64 %465, 4
  %467 = trunc i64 %466 to i32
  br label %468

; <label>:468                                     ; preds = %500, %462
  %pli.0 = phi i32* [ %392, %462 ], [ %499, %500 ]
  %h.0 = phi i32 [ 0, %462 ], [ %501, %500 ]
  %469 = icmp slt i32 %h.0, %467
  br i1 %469, label %470, label %502

; <label>:470                                     ; preds = %468
  %471 = sext i32 %h.0 to i64
  %472 = getelementptr inbounds i32* %78, i64 %471
  %473 = load i32* %472, align 4
  %474 = sext i32 %473 to i64
  %475 = getelementptr inbounds %struct.CompAtom* %36, i64 %474
  %476 = getelementptr inbounds %struct.CompAtom* %475, i32 0, i32 2
  %477 = load i32* %476, align 4
  %478 = lshr i32 %477, 25
  %479 = and i32 %478, 1
  %480 = icmp ne i32 %479, 0
  br i1 %480, label %481, label %482

; <label>:481                                     ; preds = %470
  br label %489

; <label>:482                                     ; preds = %470
  %483 = sext i32 %473 to i64
  %484 = getelementptr inbounds %struct.CompAtom* %36, i64 %483
  %485 = getelementptr inbounds %struct.CompAtom* %484, i32 0, i32 2
  %486 = load i32* %485, align 4
  %487 = lshr i32 %486, 22
  %488 = and i32 %487, 7
  br label %489

; <label>:489                                     ; preds = %482, %481
  %490 = phi i32 [ 1, %481 ], [ %488, %482 ]
  %491 = getelementptr inbounds i32* %pli.0, i64 0
  store i32 %473, i32* %491, align 4
  %492 = add nsw i32 %473, 1
  %493 = getelementptr inbounds i32* %pli.0, i64 1
  store i32 %492, i32* %493, align 4
  %494 = add nsw i32 %473, 2
  %495 = getelementptr inbounds i32* %pli.0, i64 2
  store i32 %494, i32* %495, align 4
  %496 = add nsw i32 %473, 3
  %497 = getelementptr inbounds i32* %pli.0, i64 3
  store i32 %496, i32* %497, align 4
  %498 = sext i32 %490 to i64
  %499 = getelementptr inbounds i32* %pli.0, i64 %498
  br label %500

; <label>:500                                     ; preds = %489
  %501 = add nsw i32 %h.0, 1
  br label %468

; <label>:502                                     ; preds = %468
  br label %503

; <label>:503                                     ; preds = %502, %406
  %pli.1 = phi i32* [ %pli.0, %502 ], [ %392, %406 ]
  %504 = ptrtoint i32* %pli.1 to i64
  %505 = ptrtoint i32* %188 to i64
  %506 = sub i64 %504, %505
  %507 = sdiv exact i64 %506, 4
  %508 = trunc i64 %507 to i32
  %509 = icmp ne i32 %508, 0
  br i1 %509, label %510, label %517

; <label>:510                                     ; preds = %503
  %511 = sub nsw i32 %508, 1
  %512 = sext i32 %511 to i64
  %513 = getelementptr inbounds i32* %188, i64 %512
  %514 = load i32* %513, align 4
  %515 = sext i32 %508 to i64
  %516 = getelementptr inbounds i32* %188, i64 %515
  store i32 %514, i32* %516, align 4
  br label %517

; <label>:517                                     ; preds = %510, %503
  br label %520

; <label>:518                                     ; preds = %301
  %519 = add nsw i32 %pairlistoffset.0, 1
  br label %520

; <label>:520                                     ; preds = %518, %517
  %fixg_lower.3 = phi i32 [ %fixg_lower.2, %517 ], [ %fixg_lower.0, %518 ]
  %g_lower.3 = phi i32 [ %g_lower.2, %517 ], [ %g_lower.0, %518 ]
  %j_hgroup.2 = phi i32 [ %j_hgroup.1, %517 ], [ %j_hgroup.0, %518 ]
  %pairlistindex.2 = phi i32 [ %508, %517 ], [ %pairlistindex.0, %518 ]
  %pairlistoffset.1 = phi i32 [ 0, %517 ], [ %519, %518 ]
  %pairCount.2 = phi i32 [ %pairCount.1, %517 ], [ %pairCount.0, %518 ]
  %521 = load i32* @_ZN20ComputeNonbondedUtil12fixedAtomsOnE, align 4
  %522 = icmp ne i32 %521, 0
  br i1 %522, label %523, label %529

; <label>:523                                     ; preds = %520
  %524 = getelementptr inbounds %struct.CompAtom* %271, i32 0, i32 2
  %525 = load i32* %524, align 4
  %526 = lshr i32 %525, 26
  %527 = and i32 %526, 1
  %528 = icmp ne i32 %527, 0
  br label %529

; <label>:529                                     ; preds = %523, %520
  %530 = phi i1 [ false, %520 ], [ %528, %523 ]
  %531 = zext i1 %530 to i32
  %532 = load double** @_ZN20ComputeNonbondedUtil12lambda_tableE, align 8
  %533 = getelementptr inbounds %struct.CompAtom* %271, i32 0, i32 2
  %534 = load i32* %533, align 4
  %535 = lshr i32 %534, 28
  %536 = mul nsw i32 6, %535
  %537 = sext i32 %536 to i64
  %538 = getelementptr inbounds double* %532, i64 %537
  %539 = getelementptr inbounds %struct.CompAtom* %271, i32 0, i32 1
  %540 = load float* %539, align 4
  %541 = fpext float %540 to double
  %542 = fmul double 3.320636e+02, %541
  %543 = fmul double %542, %15
  %544 = fmul double %543, %9
  %545 = getelementptr inbounds %struct.CompAtom* %271, i32 0, i32 2
  %546 = load i32* %545, align 4
  %547 = and i32 %546, 4194303
  %548 = call zeroext i16 @_ZNK8Molecule11atomvdwtypeEi(%class.Molecule* %13, i32 %547)
  %549 = zext i16 %548 to i32
  %550 = call %"struct.LJTable::TableEntry"* @_ZNK7LJTable9table_rowEj(%class.LJTable* %10, i32 %549)
  %551 = icmp ne i32 %531, 0
  br i1 %551, label %552, label %614

; <label>:552                                     ; preds = %529
  br label %553

; <label>:553                                     ; preds = %611, %552
  %pli3.0 = phi i32* [ %202, %552 ], [ %pli3.2, %611 ]
  %plin.0 = phi i32* [ %216, %552 ], [ %plin.2, %611 ]
  %k.0 = phi i32 [ %pairlistoffset.1, %552 ], [ %612, %611 ]
  %exclChecksum.1 = phi i32 [ %exclChecksum.0, %552 ], [ %exclChecksum.3, %611 ]
  %554 = icmp slt i32 %k.0, %pairlistindex.2
  br i1 %554, label %555, label %613

; <label>:555                                     ; preds = %553
  %556 = sext i32 %k.0 to i64
  %557 = getelementptr inbounds i32* %188, i64 %556
  %558 = load i32* %557, align 4
  %559 = sext i32 %558 to i64
  %560 = getelementptr inbounds %struct.CompAtom* %36, i64 %559
  %561 = getelementptr inbounds %struct.CompAtom* %560, i32 0, i32 0
  %562 = getelementptr inbounds %class.Vector* %561, i32 0, i32 0
  %563 = load double* %562, align 8
  %564 = fsub double %287, %563
  %565 = fmul double %564, %564
  %566 = sext i32 %558 to i64
  %567 = getelementptr inbounds %struct.CompAtom* %36, i64 %566
  %568 = getelementptr inbounds %struct.CompAtom* %567, i32 0, i32 0
  %569 = getelementptr inbounds %class.Vector* %568, i32 0, i32 1
  %570 = load double* %569, align 8
  %571 = fsub double %290, %570
  %572 = fmul double %571, %571
  %573 = fadd double %565, %572
  %574 = sext i32 %558 to i64
  %575 = getelementptr inbounds %struct.CompAtom* %36, i64 %574
  %576 = getelementptr inbounds %struct.CompAtom* %575, i32 0, i32 0
  %577 = getelementptr inbounds %class.Vector* %576, i32 0, i32 2
  %578 = load double* %577, align 8
  %579 = fsub double %293, %578
  %580 = fmul double %579, %579
  %581 = fadd double %573, %580
  %582 = sext i32 %558 to i64
  %583 = getelementptr inbounds %struct.CompAtom* %36, i64 %582
  %584 = getelementptr inbounds %struct.CompAtom* %583, i32 0, i32 2
  %585 = load i32* %584, align 4
  %586 = lshr i32 %585, 26
  %587 = and i32 %586, 1
  %588 = icmp ne i32 %587, 0
  br i1 %588, label %610, label %589

; <label>:589                                     ; preds = %555
  %590 = fcmp ole double %581, %7
  br i1 %590, label %591, label %610

; <label>:591                                     ; preds = %589
  %592 = fcmp ole double %581, %21
  br i1 %592, label %593, label %596

; <label>:593                                     ; preds = %591
  %594 = add nsw i32 %exclChecksum.1, 1
  %595 = icmp ne i32 %594, 0
  br i1 %595, label %610, label %596

; <label>:596                                     ; preds = %593, %591
  %exclChecksum.2 = phi i32 [ %594, %593 ], [ %exclChecksum.1, %591 ]
  %597 = sext i32 %558 to i64
  %598 = getelementptr inbounds %struct.CompAtom* %36, i64 %597
  %599 = getelementptr inbounds %struct.CompAtom* %598, i32 0, i32 2
  %600 = load i32* %599, align 4
  %601 = and i32 %600, 4194303
  %602 = icmp sge i32 %601, %277
  br i1 %602, label %603, label %607

; <label>:603                                     ; preds = %596
  %604 = icmp sle i32 %601, %279
  br i1 %604, label %605, label %607

; <label>:605                                     ; preds = %603
  %606 = getelementptr inbounds i32* %pli3.0, i32 1
  store i32 %558, i32* %pli3.0, align 4
  br label %609

; <label>:607                                     ; preds = %603, %596
  %608 = getelementptr inbounds i32* %plin.0, i32 1
  store i32 %558, i32* %plin.0, align 4
  br label %609

; <label>:609                                     ; preds = %607, %605
  %pli3.1 = phi i32* [ %606, %605 ], [ %pli3.0, %607 ]
  %plin.1 = phi i32* [ %plin.0, %605 ], [ %608, %607 ]
  br label %610

; <label>:610                                     ; preds = %609, %593, %589, %555
  %pli3.2 = phi i32* [ %pli3.0, %555 ], [ %pli3.0, %593 ], [ %pli3.1, %609 ], [ %pli3.0, %589 ]
  %plin.2 = phi i32* [ %plin.0, %555 ], [ %plin.0, %593 ], [ %plin.1, %609 ], [ %plin.0, %589 ]
  %exclChecksum.3 = phi i32 [ %exclChecksum.1, %555 ], [ %594, %593 ], [ %exclChecksum.2, %609 ], [ %exclChecksum.1, %589 ]
  br label %611

; <label>:611                                     ; preds = %610
  %612 = add nsw i32 %k.0, 1
  br label %553

; <label>:613                                     ; preds = %553
  br label %693

; <label>:614                                     ; preds = %529
  %615 = icmp slt i32 %pairlistoffset.1, %pairlistindex.2
  br i1 %615, label %616, label %692

; <label>:616                                     ; preds = %614
  %617 = sext i32 %pairlistoffset.1 to i64
  %618 = getelementptr inbounds i32* %188, i64 %617
  %619 = load i32* %618, align 4
  %620 = sext i32 %619 to i64
  %621 = getelementptr inbounds %struct.CompAtom* %36, i64 %620
  %622 = getelementptr inbounds %struct.CompAtom* %621, i32 0, i32 0
  %623 = getelementptr inbounds %class.Vector* %622, i32 0, i32 0
  %624 = load double* %623, align 8
  %625 = sext i32 %619 to i64
  %626 = getelementptr inbounds %struct.CompAtom* %36, i64 %625
  %627 = getelementptr inbounds %struct.CompAtom* %626, i32 0, i32 0
  %628 = getelementptr inbounds %class.Vector* %627, i32 0, i32 1
  %629 = load double* %628, align 8
  %630 = sext i32 %619 to i64
  %631 = getelementptr inbounds %struct.CompAtom* %36, i64 %630
  %632 = getelementptr inbounds %struct.CompAtom* %631, i32 0, i32 0
  %633 = getelementptr inbounds %class.Vector* %632, i32 0, i32 2
  %634 = load double* %633, align 8
  %635 = sext i32 %619 to i64
  %636 = getelementptr inbounds %struct.CompAtom* %36, i64 %635
  %637 = getelementptr inbounds %struct.CompAtom* %636, i32 0, i32 2
  %638 = load i32* %637, align 4
  %639 = and i32 %638, 4194303
  br label %640

; <label>:640                                     ; preds = %685, %616
  %pli3.3 = phi i32* [ %202, %616 ], [ %pli3.5, %685 ]
  %plin.3 = phi i32* [ %216, %616 ], [ %plin.5, %685 ]
  %k9.0 = phi i32 [ %pairlistoffset.1, %616 ], [ %643, %685 ]
  %j210.0 = phi i32 [ %619, %616 ], [ %646, %685 ]
  %p_j_x11.0 = phi double [ %624, %616 ], [ %653, %685 ]
  %p_j_y12.0 = phi double [ %629, %616 ], [ %661, %685 ]
  %p_j_z13.0 = phi double [ %634, %616 ], [ %669, %685 ]
  %atom214.0 = phi i32 [ %639, %616 ], [ %690, %685 ]
  %exclChecksum.4 = phi i32 [ %exclChecksum.0, %616 ], [ %exclChecksum.6, %685 ]
  %641 = icmp slt i32 %k9.0, %pairlistindex.2
  br i1 %641, label %642, label %691

; <label>:642                                     ; preds = %640
  %643 = add nsw i32 %k9.0, 1
  %644 = sext i32 %643 to i64
  %645 = getelementptr inbounds i32* %188, i64 %644
  %646 = load i32* %645, align 4
  %647 = fsub double %287, %p_j_x11.0
  %648 = fmul double %647, %647
  %649 = sext i32 %646 to i64
  %650 = getelementptr inbounds %struct.CompAtom* %36, i64 %649
  %651 = getelementptr inbounds %struct.CompAtom* %650, i32 0, i32 0
  %652 = getelementptr inbounds %class.Vector* %651, i32 0, i32 0
  %653 = load double* %652, align 8
  %654 = fsub double %290, %p_j_y12.0
  %655 = fmul double %654, %654
  %656 = fadd double %648, %655
  %657 = sext i32 %646 to i64
  %658 = getelementptr inbounds %struct.CompAtom* %36, i64 %657
  %659 = getelementptr inbounds %struct.CompAtom* %658, i32 0, i32 0
  %660 = getelementptr inbounds %class.Vector* %659, i32 0, i32 1
  %661 = load double* %660, align 8
  %662 = fsub double %293, %p_j_z13.0
  %663 = fmul double %662, %662
  %664 = fadd double %656, %663
  %665 = sext i32 %646 to i64
  %666 = getelementptr inbounds %struct.CompAtom* %36, i64 %665
  %667 = getelementptr inbounds %struct.CompAtom* %666, i32 0, i32 0
  %668 = getelementptr inbounds %class.Vector* %667, i32 0, i32 2
  %669 = load double* %668, align 8
  %670 = fcmp ole double %664, %7
  br i1 %670, label %671, label %685

; <label>:671                                     ; preds = %642
  %672 = fcmp ole double %664, %21
  br i1 %672, label %673, label %676

; <label>:673                                     ; preds = %671
  %674 = add nsw i32 %exclChecksum.4, 1
  %675 = icmp ne i32 %674, 0
  br i1 %675, label %685, label %676

; <label>:676                                     ; preds = %673, %671
  %exclChecksum.5 = phi i32 [ %674, %673 ], [ %exclChecksum.4, %671 ]
  %677 = icmp sge i32 %atom214.0, %277
  br i1 %677, label %678, label %682

; <label>:678                                     ; preds = %676
  %679 = icmp sle i32 %atom214.0, %279
  br i1 %679, label %680, label %682

; <label>:680                                     ; preds = %678
  %681 = getelementptr inbounds i32* %pli3.3, i32 1
  store i32 %j210.0, i32* %pli3.3, align 4
  br label %684

; <label>:682                                     ; preds = %678, %676
  %683 = getelementptr inbounds i32* %plin.3, i32 1
  store i32 %j210.0, i32* %plin.3, align 4
  br label %684

; <label>:684                                     ; preds = %682, %680
  %pli3.4 = phi i32* [ %681, %680 ], [ %pli3.3, %682 ]
  %plin.4 = phi i32* [ %plin.3, %680 ], [ %683, %682 ]
  br label %685

; <label>:685                                     ; preds = %684, %673, %642
  %pli3.5 = phi i32* [ %pli3.3, %673 ], [ %pli3.4, %684 ], [ %pli3.3, %642 ]
  %plin.5 = phi i32* [ %plin.3, %673 ], [ %plin.4, %684 ], [ %plin.3, %642 ]
  %exclChecksum.6 = phi i32 [ %674, %673 ], [ %exclChecksum.5, %684 ], [ %exclChecksum.4, %642 ]
  %686 = sext i32 %646 to i64
  %687 = getelementptr inbounds %struct.CompAtom* %36, i64 %686
  %688 = getelementptr inbounds %struct.CompAtom* %687, i32 0, i32 2
  %689 = load i32* %688, align 4
  %690 = and i32 %689, 4194303
  br label %640

; <label>:691                                     ; preds = %640
  br label %692

; <label>:692                                     ; preds = %691, %614
  %pli3.6 = phi i32* [ %pli3.3, %691 ], [ %202, %614 ]
  %plin.6 = phi i32* [ %plin.3, %691 ], [ %216, %614 ]
  %exclChecksum.7 = phi i32 [ %exclChecksum.4, %691 ], [ %exclChecksum.0, %614 ]
  br label %693

; <label>:693                                     ; preds = %692, %613
  %pli3.7 = phi i32* [ %pli3.0, %613 ], [ %pli3.6, %692 ]
  %plin.7 = phi i32* [ %plin.0, %613 ], [ %plin.6, %692 ]
  %exclChecksum.8 = phi i32 [ %exclChecksum.1, %613 ], [ %exclChecksum.7, %692 ]
  %694 = ptrtoint i32* %pli3.7 to i64
  %695 = ptrtoint i32* %202 to i64
  %696 = sub i64 %694, %695
  %697 = sdiv exact i64 %696, 4
  %698 = trunc i64 %697 to i32
  %699 = icmp ne i32 %698, 0
  br i1 %699, label %700, label %707

; <label>:700                                     ; preds = %693
  %701 = sub nsw i32 %698, 1
  %702 = sext i32 %701 to i64
  %703 = getelementptr inbounds i32* %202, i64 %702
  %704 = load i32* %703, align 4
  %705 = sext i32 %698 to i64
  %706 = getelementptr inbounds i32* %202, i64 %705
  store i32 %704, i32* %706, align 4
  br label %707

; <label>:707                                     ; preds = %700, %693
  br label %708

; <label>:708                                     ; preds = %719, %707
  %plix.0 = phi i32* [ %230, %707 ], [ %717, %719 ]
  %pln.0 = phi i32* [ %216, %707 ], [ %720, %719 ]
  %exclChecksum.9 = phi i32 [ %exclChecksum.8, %707 ], [ %718, %719 ]
  %709 = icmp ult i32* %pln.0, %plin.7
  br i1 %709, label %710, label %713

; <label>:710                                     ; preds = %708
  %711 = load i32* %pln.0, align 4
  %712 = icmp slt i32 %711, %j_hgroup.2
  br label %713

; <label>:713                                     ; preds = %710, %708
  %714 = phi i1 [ false, %708 ], [ %712, %710 ]
  br i1 %714, label %715, label %721

; <label>:715                                     ; preds = %713
  %716 = load i32* %pln.0, align 4
  %717 = getelementptr inbounds i32* %plix.0, i32 1
  store i32 %716, i32* %plix.0, align 4
  %718 = add nsw i32 %exclChecksum.9, -1
  br label %719

; <label>:719                                     ; preds = %715
  %720 = getelementptr inbounds i32* %pln.0, i32 1
  br label %708

; <label>:721                                     ; preds = %713
  br label %722

; <label>:722                                     ; preds = %737, %721
  %plix.1 = phi i32* [ %plix.0, %721 ], [ %735, %737 ]
  %k17.0 = phi i32 [ 0, %721 ], [ %738, %737 ]
  %exclChecksum.10 = phi i32 [ %exclChecksum.9, %721 ], [ %736, %737 ]
  %723 = icmp slt i32 %k17.0, %698
  br i1 %723, label %724, label %729

; <label>:724                                     ; preds = %722
  %725 = sext i32 %k17.0 to i64
  %726 = getelementptr inbounds i32* %202, i64 %725
  %727 = load i32* %726, align 4
  %728 = icmp slt i32 %727, %j_hgroup.2
  br label %729

; <label>:729                                     ; preds = %724, %722
  %730 = phi i1 [ false, %722 ], [ %728, %724 ]
  br i1 %730, label %731, label %739

; <label>:731                                     ; preds = %729
  %732 = sext i32 %k17.0 to i64
  %733 = getelementptr inbounds i32* %202, i64 %732
  %734 = load i32* %733, align 4
  %735 = getelementptr inbounds i32* %plix.1, i32 1
  store i32 %734, i32* %plix.1, align 4
  %736 = add nsw i32 %exclChecksum.10, -1
  br label %737

; <label>:737                                     ; preds = %731
  %738 = add nsw i32 %k17.0, 1
  br label %722

; <label>:739                                     ; preds = %729
  br label %740

; <label>:740                                     ; preds = %762, %739
  %plin.8 = phi i32* [ %plin.7, %739 ], [ %plin.9, %762 ]
  %plix.2 = phi i32* [ %plix.1, %739 ], [ %plix.3, %762 ]
  %plim.0 = phi i32* [ %244, %739 ], [ %plim.1, %762 ]
  %k17.1 = phi i32 [ %k17.0, %739 ], [ %763, %762 ]
  %741 = icmp slt i32 %k17.1, %698
  br i1 %741, label %742, label %764

; <label>:742                                     ; preds = %740
  %743 = sext i32 %k17.1 to i64
  %744 = getelementptr inbounds i32* %202, i64 %743
  %745 = load i32* %744, align 4
  %746 = sext i32 %745 to i64
  %747 = getelementptr inbounds %struct.CompAtom* %36, i64 %746
  %748 = getelementptr inbounds %struct.CompAtom* %747, i32 0, i32 2
  %749 = load i32* %748, align 4
  %750 = and i32 %749, 4194303
  %751 = sext i32 %750 to i64
  %752 = getelementptr inbounds i8* %284, i64 %751
  %753 = load i8* %752, align 1
  %754 = sext i8 %753 to i32
  switch i32 %754, label %761 [
    i32 0, label %755
    i32 1, label %757
    i32 2, label %759
  ]

; <label>:755                                     ; preds = %742
  %756 = getelementptr inbounds i32* %plin.8, i32 1
  store i32 %745, i32* %plin.8, align 4
  br label %761

; <label>:757                                     ; preds = %742
  %758 = getelementptr inbounds i32* %plix.2, i32 1
  store i32 %745, i32* %plix.2, align 4
  br label %761

; <label>:759                                     ; preds = %742
  %760 = getelementptr inbounds i32* %plim.0, i32 1
  store i32 %745, i32* %plim.0, align 4
  br label %761

; <label>:761                                     ; preds = %759, %757, %755, %742
  %plin.9 = phi i32* [ %plin.8, %742 ], [ %plin.8, %759 ], [ %plin.8, %757 ], [ %756, %755 ]
  %plix.3 = phi i32* [ %plix.2, %742 ], [ %plix.2, %759 ], [ %758, %757 ], [ %plix.2, %755 ]
  %plim.1 = phi i32* [ %plim.0, %742 ], [ %760, %759 ], [ %plim.0, %757 ], [ %plim.0, %755 ]
  br label %762

; <label>:762                                     ; preds = %761
  %763 = add nsw i32 %k17.1, 1
  br label %740

; <label>:764                                     ; preds = %740
  %765 = ptrtoint i32* %plix.2 to i64
  %766 = ptrtoint i32* %230 to i64
  %767 = sub i64 %765, %766
  %768 = sdiv exact i64 %767, 4
  %769 = sext i32 %exclChecksum.10 to i64
  %770 = add nsw i64 %769, %768
  %771 = trunc i64 %770 to i32
  %772 = ptrtoint i32* %plim.0 to i64
  %773 = ptrtoint i32* %244 to i64
  %774 = sub i64 %772, %773
  %775 = sdiv exact i64 %774, 4
  %776 = sext i32 %771 to i64
  %777 = add nsw i64 %776, %775
  %778 = trunc i64 %777 to i32
  %779 = ptrtoint i32* %plin.8 to i64
  %780 = ptrtoint i32* %pln.0 to i64
  %781 = sub i64 %779, %780
  %782 = sdiv exact i64 %781, 4
  %783 = trunc i64 %782 to i32
  br label %784

; <label>:784                                     ; preds = %970, %764
  %k17.2 = phi i32 [ 0, %764 ], [ %971, %970 ]
  %virial_zz.1 = phi double [ %virial_zz.0, %764 ], [ %963, %970 ]
  %virial_yz.1 = phi double [ %virial_yz.0, %764 ], [ %954, %970 ]
  %virial_yy.1 = phi double [ %virial_yy.0, %764 ], [ %952, %970 ]
  %virial_xz.1 = phi double [ %virial_xz.0, %764 ], [ %943, %970 ]
  %virial_xy.1 = phi double [ %virial_xy.0, %764 ], [ %941, %970 ]
  %virial_xx.1 = phi double [ %virial_xx.0, %764 ], [ %939, %970 ]
  %electEnergy_s.1 = phi double [ %electEnergy_s.0, %764 ], [ %922, %970 ]
  %vdwEnergy_s.1 = phi double [ %vdwEnergy_s.0, %764 ], [ %902, %970 ]
  %electEnergy.1 = phi double [ %electEnergy.0, %764 ], [ %920, %970 ]
  %vdwEnergy.1 = phi double [ %vdwEnergy.0, %764 ], [ %900, %970 ]
  %785 = icmp slt i32 %k17.2, %783
  br i1 %785, label %786, label %972

; <label>:786                                     ; preds = %784
  %787 = sext i32 %k17.2 to i64
  %788 = getelementptr inbounds i32* %pln.0, i64 %787
  %789 = load i32* %788, align 4
  %790 = sext i32 %789 to i64
  %791 = getelementptr inbounds %struct.CompAtom* %36, i64 %790
  %792 = getelementptr inbounds %struct.CompAtom* %791, i32 0, i32 0
  %793 = getelementptr inbounds %class.Vector* %792, i32 0, i32 0
  %794 = load double* %793, align 8
  %795 = fsub double %287, %794
  %796 = fmul double %795, %795
  %797 = getelementptr inbounds %struct.CompAtom* %791, i32 0, i32 0
  %798 = getelementptr inbounds %class.Vector* %797, i32 0, i32 1
  %799 = load double* %798, align 8
  %800 = fsub double %290, %799
  %801 = fmul double %800, %800
  %802 = fadd double %796, %801
  %803 = getelementptr inbounds %struct.CompAtom* %791, i32 0, i32 0
  %804 = getelementptr inbounds %class.Vector* %803, i32 0, i32 2
  %805 = load double* %804, align 8
  %806 = fsub double %293, %805
  %807 = fmul double %806, %806
  %808 = fadd double %802, %807
  %809 = fptrunc double %808 to float
  %810 = bitcast %union.anon.54* %r2f to float*
  store float %809, float* %810, align 4
  %811 = bitcast %union.anon.54* %r2f to i32*
  %812 = load i32* %811, align 4
  %813 = ashr i32 %812, 17
  %814 = add nsw i32 %813, %24
  %815 = getelementptr inbounds %struct.CompAtom* %791, i32 0, i32 2
  %816 = load i32* %815, align 4
  %817 = and i32 %816, 4194303
  %818 = call zeroext i16 @_ZNK8Molecule11atomvdwtypeEi(%class.Molecule* %13, i32 %817)
  %819 = zext i16 %818 to i32
  %820 = mul nsw i32 2, %819
  %821 = sext i32 %820 to i64
  %822 = getelementptr inbounds %"struct.LJTable::TableEntry"* %550, i64 %821
  %823 = mul nsw i32 16, %814
  %824 = sext i32 %823 to i64
  %825 = getelementptr inbounds double* %14, i64 %824
  %826 = getelementptr inbounds double* %825, i64 0
  %827 = load double* %826, align 8
  %828 = mul nsw i32 16, %814
  %829 = sext i32 %828 to i64
  %830 = getelementptr inbounds double* %14, i64 %829
  %831 = getelementptr inbounds double* %830, i64 4
  %832 = getelementptr inbounds double* %831, i64 0
  %833 = load double* %832, align 8
  %834 = mul nsw i32 16, %814
  %835 = sext i32 %834 to i64
  %836 = getelementptr inbounds double* %14, i64 %835
  %837 = getelementptr inbounds double* %836, i64 8
  %838 = getelementptr inbounds double* %837, i64 0
  %839 = load double* %838, align 8
  %840 = bitcast %union.anon.54* %r2f to i32*
  %841 = load i32* %840, align 4
  %842 = and i32 %841, -131072
  store i32 %842, i32* %840, align 4
  %843 = getelementptr inbounds %struct.CompAtom* %791, i32 0, i32 1
  %844 = load float* %843, align 4
  %845 = fpext float %844 to double
  %846 = fmul double %544, %845
  %847 = bitcast %union.anon.54* %r2f to float*
  %848 = load float* %847, align 4
  %849 = fpext float %848 to double
  %850 = fsub double %808, %849
  %851 = getelementptr inbounds %struct.CompAtom* %791, i32 0, i32 2
  %852 = load i32* %851, align 4
  %853 = lshr i32 %852, 28
  %854 = mul nsw i32 2, %853
  %855 = sext i32 %854 to i64
  %856 = getelementptr inbounds double* %538, i64 %855
  %857 = load double* %856, align 8
  %858 = mul nsw i32 2, %853
  %859 = add nsw i32 %858, 1
  %860 = sext i32 %859 to i64
  %861 = getelementptr inbounds double* %538, i64 %860
  %862 = load double* %861, align 8
  %863 = getelementptr inbounds %"struct.LJTable::TableEntry"* %822, i32 0, i32 0
  %864 = load double* %863, align 8
  %865 = fmul double %15, %864
  %866 = getelementptr inbounds %"struct.LJTable::TableEntry"* %822, i32 0, i32 1
  %867 = load double* %866, align 8
  %868 = fmul double %15, %867
  %869 = fmul double %865, %827
  %870 = fmul double %868, %833
  %871 = fsub double %869, %870
  %872 = getelementptr inbounds double* %825, i64 3
  %873 = load double* %872, align 8
  %874 = fmul double %865, %873
  %875 = getelementptr inbounds double* %831, i64 3
  %876 = load double* %875, align 8
  %877 = fmul double %868, %876
  %878 = fsub double %874, %877
  %879 = getelementptr inbounds double* %825, i64 2
  %880 = load double* %879, align 8
  %881 = fmul double %865, %880
  %882 = getelementptr inbounds double* %831, i64 2
  %883 = load double* %882, align 8
  %884 = fmul double %868, %883
  %885 = fsub double %881, %884
  %886 = getelementptr inbounds double* %825, i64 1
  %887 = load double* %886, align 8
  %888 = fmul double %865, %887
  %889 = getelementptr inbounds double* %831, i64 1
  %890 = load double* %889, align 8
  %891 = fmul double %868, %890
  %892 = fsub double %888, %891
  %893 = fmul double %850, %878
  %894 = fadd double %893, %885
  %895 = fmul double %894, %850
  %896 = fadd double %895, %892
  %897 = fmul double %896, %850
  %898 = fadd double %897, %871
  %899 = fmul double %857, %898
  %900 = fadd double %vdwEnergy.1, %899
  %901 = fmul double %862, %898
  %902 = fadd double %vdwEnergy_s.1, %901
  %903 = fmul double %839, %846
  %904 = getelementptr inbounds double* %837, i64 3
  %905 = load double* %904, align 8
  %906 = fmul double %846, %905
  %907 = getelementptr inbounds double* %837, i64 2
  %908 = load double* %907, align 8
  %909 = fmul double %846, %908
  %910 = getelementptr inbounds double* %837, i64 1
  %911 = load double* %910, align 8
  %912 = fmul double %846, %911
  %913 = fmul double %850, %906
  %914 = fadd double %913, %909
  %915 = fmul double %914, %850
  %916 = fadd double %915, %912
  %917 = fmul double %916, %850
  %918 = fadd double %917, %903
  %919 = fmul double %857, %918
  %920 = fadd double %electEnergy.1, %919
  %921 = fmul double %862, %918
  %922 = fadd double %electEnergy_s.1, %921
  %923 = fadd double %906, %878
  %924 = fadd double %909, %885
  %925 = fadd double %912, %892
  %926 = fadd double %903, %871
  %927 = fmul double 3.000000e+00, %850
  %928 = fmul double %927, %923
  %929 = fmul double 2.000000e+00, %924
  %930 = fadd double %928, %929
  %931 = fmul double %930, %850
  %932 = fadd double %931, %925
  %933 = fmul double -2.000000e+00, %857
  %934 = fmul double %933, %932
  %935 = sext i32 %789 to i64
  %936 = getelementptr inbounds %class.Vector* %250, i64 %935
  %937 = fmul double %934, %795
  %938 = fmul double %937, %795
  %939 = fadd double %virial_xx.1, %938
  %940 = fmul double %937, %800
  %941 = fadd double %virial_xy.1, %940
  %942 = fmul double %937, %806
  %943 = fadd double %virial_xz.1, %942
  %944 = getelementptr inbounds %class.Vector* %295, i32 0, i32 0
  %945 = load double* %944, align 8
  %946 = fadd double %945, %937
  store double %946, double* %944, align 8
  %947 = getelementptr inbounds %class.Vector* %936, i32 0, i32 0
  %948 = load double* %947, align 8
  %949 = fsub double %948, %937
  store double %949, double* %947, align 8
  %950 = fmul double %934, %800
  %951 = fmul double %950, %800
  %952 = fadd double %virial_yy.1, %951
  %953 = fmul double %950, %806
  %954 = fadd double %virial_yz.1, %953
  %955 = getelementptr inbounds %class.Vector* %295, i32 0, i32 1
  %956 = load double* %955, align 8
  %957 = fadd double %956, %950
  store double %957, double* %955, align 8
  %958 = getelementptr inbounds %class.Vector* %936, i32 0, i32 1
  %959 = load double* %958, align 8
  %960 = fsub double %959, %950
  store double %960, double* %958, align 8
  %961 = fmul double %934, %806
  %962 = fmul double %961, %806
  %963 = fadd double %virial_zz.1, %962
  %964 = getelementptr inbounds %class.Vector* %295, i32 0, i32 2
  %965 = load double* %964, align 8
  %966 = fadd double %965, %961
  store double %966, double* %964, align 8
  %967 = getelementptr inbounds %class.Vector* %936, i32 0, i32 2
  %968 = load double* %967, align 8
  %969 = fsub double %968, %961
  store double %969, double* %967, align 8
  br label %970

; <label>:970                                     ; preds = %786
  %971 = add nsw i32 %k17.2, 1
  br label %784

; <label>:972                                     ; preds = %784
  %973 = ptrtoint i32* %plim.0 to i64
  %974 = ptrtoint i32* %244 to i64
  %975 = sub i64 %973, %974
  %976 = sdiv exact i64 %975, 4
  %977 = trunc i64 %976 to i32
  br label %978

; <label>:978                                     ; preds = %1167, %972
  %k17.3 = phi i32 [ 0, %972 ], [ %1168, %1167 ]
  %virial_zz.2 = phi double [ %virial_zz.1, %972 ], [ %1160, %1167 ]
  %virial_yz.2 = phi double [ %virial_yz.1, %972 ], [ %1151, %1167 ]
  %virial_yy.2 = phi double [ %virial_yy.1, %972 ], [ %1149, %1167 ]
  %virial_xz.2 = phi double [ %virial_xz.1, %972 ], [ %1140, %1167 ]
  %virial_xy.2 = phi double [ %virial_xy.1, %972 ], [ %1138, %1167 ]
  %virial_xx.2 = phi double [ %virial_xx.1, %972 ], [ %1136, %1167 ]
  %electEnergy_s.2 = phi double [ %electEnergy_s.1, %972 ], [ %1119, %1167 ]
  %vdwEnergy_s.2 = phi double [ %vdwEnergy_s.1, %972 ], [ %1097, %1167 ]
  %electEnergy.2 = phi double [ %electEnergy.1, %972 ], [ %1117, %1167 ]
  %vdwEnergy.2 = phi double [ %vdwEnergy.1, %972 ], [ %1095, %1167 ]
  %979 = icmp slt i32 %k17.3, %977
  br i1 %979, label %980, label %1169

; <label>:980                                     ; preds = %978
  %981 = sext i32 %k17.3 to i64
  %982 = getelementptr inbounds i32* %244, i64 %981
  %983 = load i32* %982, align 4
  %984 = sext i32 %983 to i64
  %985 = getelementptr inbounds %struct.CompAtom* %36, i64 %984
  %986 = getelementptr inbounds %struct.CompAtom* %985, i32 0, i32 0
  %987 = getelementptr inbounds %class.Vector* %986, i32 0, i32 0
  %988 = load double* %987, align 8
  %989 = fsub double %287, %988
  %990 = fmul double %989, %989
  %991 = getelementptr inbounds %struct.CompAtom* %985, i32 0, i32 0
  %992 = getelementptr inbounds %class.Vector* %991, i32 0, i32 1
  %993 = load double* %992, align 8
  %994 = fsub double %290, %993
  %995 = fmul double %994, %994
  %996 = fadd double %990, %995
  %997 = getelementptr inbounds %struct.CompAtom* %985, i32 0, i32 0
  %998 = getelementptr inbounds %class.Vector* %997, i32 0, i32 2
  %999 = load double* %998, align 8
  %1000 = fsub double %293, %999
  %1001 = fmul double %1000, %1000
  %1002 = fadd double %996, %1001
  %1003 = fptrunc double %1002 to float
  %1004 = bitcast %union.anon.55* %r2f28 to float*
  store float %1003, float* %1004, align 4
  %1005 = bitcast %union.anon.55* %r2f28 to i32*
  %1006 = load i32* %1005, align 4
  %1007 = ashr i32 %1006, 17
  %1008 = add nsw i32 %1007, %24
  %1009 = getelementptr inbounds %struct.CompAtom* %985, i32 0, i32 2
  %1010 = load i32* %1009, align 4
  %1011 = and i32 %1010, 4194303
  %1012 = call zeroext i16 @_ZNK8Molecule11atomvdwtypeEi(%class.Molecule* %13, i32 %1011)
  %1013 = zext i16 %1012 to i32
  %1014 = mul nsw i32 2, %1013
  %1015 = sext i32 %1014 to i64
  %1016 = getelementptr inbounds %"struct.LJTable::TableEntry"* %550, i64 %1015
  %1017 = getelementptr inbounds %"struct.LJTable::TableEntry"* %1016, i64 1
  %1018 = mul nsw i32 16, %1008
  %1019 = sext i32 %1018 to i64
  %1020 = getelementptr inbounds double* %14, i64 %1019
  %1021 = getelementptr inbounds double* %1020, i64 0
  %1022 = load double* %1021, align 8
  %1023 = mul nsw i32 16, %1008
  %1024 = sext i32 %1023 to i64
  %1025 = getelementptr inbounds double* %14, i64 %1024
  %1026 = getelementptr inbounds double* %1025, i64 4
  %1027 = getelementptr inbounds double* %1026, i64 0
  %1028 = load double* %1027, align 8
  %1029 = mul nsw i32 16, %1008
  %1030 = sext i32 %1029 to i64
  %1031 = getelementptr inbounds double* %14, i64 %1030
  %1032 = getelementptr inbounds double* %1031, i64 8
  %1033 = getelementptr inbounds double* %1032, i64 0
  %1034 = load double* %1033, align 8
  %1035 = bitcast %union.anon.55* %r2f28 to i32*
  %1036 = load i32* %1035, align 4
  %1037 = and i32 %1036, -131072
  store i32 %1037, i32* %1035, align 4
  %1038 = getelementptr inbounds %struct.CompAtom* %985, i32 0, i32 1
  %1039 = load float* %1038, align 4
  %1040 = fpext float %1039 to double
  %1041 = fmul double %544, %1040
  %1042 = bitcast %union.anon.55* %r2f28 to float*
  %1043 = load float* %1042, align 4
  %1044 = fpext float %1043 to double
  %1045 = fsub double %1002, %1044
  %1046 = getelementptr inbounds %struct.CompAtom* %985, i32 0, i32 2
  %1047 = load i32* %1046, align 4
  %1048 = lshr i32 %1047, 28
  %1049 = mul nsw i32 2, %1048
  %1050 = sext i32 %1049 to i64
  %1051 = getelementptr inbounds double* %538, i64 %1050
  %1052 = load double* %1051, align 8
  %1053 = mul nsw i32 2, %1048
  %1054 = add nsw i32 %1053, 1
  %1055 = sext i32 %1054 to i64
  %1056 = getelementptr inbounds double* %538, i64 %1055
  %1057 = load double* %1056, align 8
  %1058 = getelementptr inbounds %"struct.LJTable::TableEntry"* %1017, i32 0, i32 0
  %1059 = load double* %1058, align 8
  %1060 = fmul double %15, %1059
  %1061 = getelementptr inbounds %"struct.LJTable::TableEntry"* %1017, i32 0, i32 1
  %1062 = load double* %1061, align 8
  %1063 = fmul double %15, %1062
  %1064 = fmul double %1060, %1022
  %1065 = fmul double %1063, %1028
  %1066 = fsub double %1064, %1065
  %1067 = getelementptr inbounds double* %1020, i64 3
  %1068 = load double* %1067, align 8
  %1069 = fmul double %1060, %1068
  %1070 = getelementptr inbounds double* %1026, i64 3
  %1071 = load double* %1070, align 8
  %1072 = fmul double %1063, %1071
  %1073 = fsub double %1069, %1072
  %1074 = getelementptr inbounds double* %1020, i64 2
  %1075 = load double* %1074, align 8
  %1076 = fmul double %1060, %1075
  %1077 = getelementptr inbounds double* %1026, i64 2
  %1078 = load double* %1077, align 8
  %1079 = fmul double %1063, %1078
  %1080 = fsub double %1076, %1079
  %1081 = getelementptr inbounds double* %1020, i64 1
  %1082 = load double* %1081, align 8
  %1083 = fmul double %1060, %1082
  %1084 = getelementptr inbounds double* %1026, i64 1
  %1085 = load double* %1084, align 8
  %1086 = fmul double %1063, %1085
  %1087 = fsub double %1083, %1086
  %1088 = fmul double %1045, %1073
  %1089 = fadd double %1088, %1080
  %1090 = fmul double %1089, %1045
  %1091 = fadd double %1090, %1087
  %1092 = fmul double %1091, %1045
  %1093 = fadd double %1092, %1066
  %1094 = fmul double %1052, %1093
  %1095 = fadd double %vdwEnergy.2, %1094
  %1096 = fmul double %1057, %1093
  %1097 = fadd double %vdwEnergy_s.2, %1096
  %1098 = fsub double 1.000000e+00, %17
  %1099 = fmul double %1098, %1041
  %1100 = fmul double %1034, %1099
  %1101 = getelementptr inbounds double* %1032, i64 3
  %1102 = load double* %1101, align 8
  %1103 = fmul double %1099, %1102
  %1104 = getelementptr inbounds double* %1032, i64 2
  %1105 = load double* %1104, align 8
  %1106 = fmul double %1099, %1105
  %1107 = getelementptr inbounds double* %1032, i64 1
  %1108 = load double* %1107, align 8
  %1109 = fmul double %1099, %1108
  %1110 = fmul double %1045, %1103
  %1111 = fadd double %1110, %1106
  %1112 = fmul double %1111, %1045
  %1113 = fadd double %1112, %1109
  %1114 = fmul double %1113, %1045
  %1115 = fadd double %1114, %1100
  %1116 = fmul double %1052, %1115
  %1117 = fadd double %electEnergy.2, %1116
  %1118 = fmul double %1057, %1115
  %1119 = fadd double %electEnergy_s.2, %1118
  %1120 = fadd double %1103, %1073
  %1121 = fadd double %1106, %1080
  %1122 = fadd double %1109, %1087
  %1123 = fadd double %1100, %1066
  %1124 = fmul double 3.000000e+00, %1045
  %1125 = fmul double %1124, %1120
  %1126 = fmul double 2.000000e+00, %1121
  %1127 = fadd double %1125, %1126
  %1128 = fmul double %1127, %1045
  %1129 = fadd double %1128, %1122
  %1130 = fmul double -2.000000e+00, %1052
  %1131 = fmul double %1130, %1129
  %1132 = sext i32 %983 to i64
  %1133 = getelementptr inbounds %class.Vector* %250, i64 %1132
  %1134 = fmul double %1131, %989
  %1135 = fmul double %1134, %989
  %1136 = fadd double %virial_xx.2, %1135
  %1137 = fmul double %1134, %994
  %1138 = fadd double %virial_xy.2, %1137
  %1139 = fmul double %1134, %1000
  %1140 = fadd double %virial_xz.2, %1139
  %1141 = getelementptr inbounds %class.Vector* %295, i32 0, i32 0
  %1142 = load double* %1141, align 8
  %1143 = fadd double %1142, %1134
  store double %1143, double* %1141, align 8
  %1144 = getelementptr inbounds %class.Vector* %1133, i32 0, i32 0
  %1145 = load double* %1144, align 8
  %1146 = fsub double %1145, %1134
  store double %1146, double* %1144, align 8
  %1147 = fmul double %1131, %994
  %1148 = fmul double %1147, %994
  %1149 = fadd double %virial_yy.2, %1148
  %1150 = fmul double %1147, %1000
  %1151 = fadd double %virial_yz.2, %1150
  %1152 = getelementptr inbounds %class.Vector* %295, i32 0, i32 1
  %1153 = load double* %1152, align 8
  %1154 = fadd double %1153, %1147
  store double %1154, double* %1152, align 8
  %1155 = getelementptr inbounds %class.Vector* %1133, i32 0, i32 1
  %1156 = load double* %1155, align 8
  %1157 = fsub double %1156, %1147
  store double %1157, double* %1155, align 8
  %1158 = fmul double %1131, %1000
  %1159 = fmul double %1158, %1000
  %1160 = fadd double %virial_zz.2, %1159
  %1161 = getelementptr inbounds %class.Vector* %295, i32 0, i32 2
  %1162 = load double* %1161, align 8
  %1163 = fadd double %1162, %1158
  store double %1163, double* %1161, align 8
  %1164 = getelementptr inbounds %class.Vector* %1133, i32 0, i32 2
  %1165 = load double* %1164, align 8
  %1166 = fsub double %1165, %1158
  store double %1166, double* %1164, align 8
  br label %1167

; <label>:1167                                    ; preds = %980
  %1168 = add nsw i32 %k17.3, 1
  br label %978

; <label>:1169                                    ; preds = %978
  br label %1170

; <label>:1170                                    ; preds = %1169, %329
  %fixg_lower.4 = phi i32 [ %fixg_lower.0, %329 ], [ %fixg_lower.3, %1169 ]
  %g_lower.4 = phi i32 [ %g_lower.0, %329 ], [ %g_lower.3, %1169 ]
  %j_hgroup.3 = phi i32 [ %j_hgroup.0, %329 ], [ %j_hgroup.2, %1169 ]
  %pairlistindex.3 = phi i32 [ %pairlistindex.0, %329 ], [ %pairlistindex.2, %1169 ]
  %pairlistoffset.2 = phi i32 [ %pairlistoffset.0, %329 ], [ %pairlistoffset.1, %1169 ]
  %pairCount.3 = phi i32 [ %325, %329 ], [ %pairCount.2, %1169 ]
  %i.1 = phi i32 [ %331, %329 ], [ %i.0, %1169 ]
  %virial_zz.3 = phi double [ %virial_zz.0, %329 ], [ %virial_zz.2, %1169 ]
  %virial_yz.3 = phi double [ %virial_yz.0, %329 ], [ %virial_yz.2, %1169 ]
  %virial_yy.3 = phi double [ %virial_yy.0, %329 ], [ %virial_yy.2, %1169 ]
  %virial_xz.3 = phi double [ %virial_xz.0, %329 ], [ %virial_xz.2, %1169 ]
  %virial_xy.3 = phi double [ %virial_xy.0, %329 ], [ %virial_xy.2, %1169 ]
  %virial_xx.3 = phi double [ %virial_xx.0, %329 ], [ %virial_xx.2, %1169 ]
  %electEnergy_s.3 = phi double [ %electEnergy_s.0, %329 ], [ %electEnergy_s.2, %1169 ]
  %vdwEnergy_s.3 = phi double [ %vdwEnergy_s.0, %329 ], [ %vdwEnergy_s.2, %1169 ]
  %electEnergy.3 = phi double [ %electEnergy.0, %329 ], [ %electEnergy.2, %1169 ]
  %vdwEnergy.3 = phi double [ %vdwEnergy.0, %329 ], [ %vdwEnergy.2, %1169 ]
  %exclChecksum.11 = phi i32 [ %exclChecksum.0, %329 ], [ %778, %1169 ]
  %1171 = add nsw i32 %i.1, 1
  br label %266

; <label>:1172                                    ; preds = %266
  %1173 = getelementptr inbounds [1005 x i32]* %grouplist_std, i32 0, i32 0
  %1174 = icmp ne i32* %50, %1173
  br i1 %1174, label %1175, label %1180

; <label>:1175                                    ; preds = %1172
  %1176 = icmp eq i32* %50, null
  br i1 %1176, label %1179, label %1177

; <label>:1177                                    ; preds = %1175
  %1178 = bitcast i32* %50 to i8*
  call void @_ZdaPv(i8* %1178) #8
  br label %1179

; <label>:1179                                    ; preds = %1177, %1175
  br label %1180

; <label>:1180                                    ; preds = %1179, %1172
  %1181 = getelementptr inbounds [1005 x i32]* %fixglist_std, i32 0, i32 0
  %1182 = icmp ne i32* %64, %1181
  br i1 %1182, label %1183, label %1188

; <label>:1183                                    ; preds = %1180
  %1184 = icmp eq i32* %64, null
  br i1 %1184, label %1187, label %1185

; <label>:1185                                    ; preds = %1183
  %1186 = bitcast i32* %64 to i8*
  call void @_ZdaPv(i8* %1186) #8
  br label %1187

; <label>:1187                                    ; preds = %1185, %1183
  br label %1188

; <label>:1188                                    ; preds = %1187, %1180
  %1189 = getelementptr inbounds [1005 x i32]* %goodglist_std, i32 0, i32 0
  %1190 = icmp ne i32* %78, %1189
  br i1 %1190, label %1191, label %1196

; <label>:1191                                    ; preds = %1188
  %1192 = icmp eq i32* %78, null
  br i1 %1192, label %1195, label %1193

; <label>:1193                                    ; preds = %1191
  %1194 = bitcast i32* %78 to i8*
  call void @_ZdaPv(i8* %1194) #8
  br label %1195

; <label>:1195                                    ; preds = %1193, %1191
  br label %1196

; <label>:1196                                    ; preds = %1195, %1188
  %1197 = getelementptr inbounds [1005 x i32]* %pairlist_std, i32 0, i32 0
  %1198 = icmp ne i32* %188, %1197
  br i1 %1198, label %1199, label %1204

; <label>:1199                                    ; preds = %1196
  %1200 = icmp eq i32* %188, null
  br i1 %1200, label %1203, label %1201

; <label>:1201                                    ; preds = %1199
  %1202 = bitcast i32* %188 to i8*
  call void @_ZdaPv(i8* %1202) #8
  br label %1203

; <label>:1203                                    ; preds = %1201, %1199
  br label %1204

; <label>:1204                                    ; preds = %1203, %1196
  %1205 = getelementptr inbounds [1005 x i32]* %pairlist2_std, i32 0, i32 0
  %1206 = icmp ne i32* %202, %1205
  br i1 %1206, label %1207, label %1212

; <label>:1207                                    ; preds = %1204
  %1208 = icmp eq i32* %202, null
  br i1 %1208, label %1211, label %1209

; <label>:1209                                    ; preds = %1207
  %1210 = bitcast i32* %202 to i8*
  call void @_ZdaPv(i8* %1210) #8
  br label %1211

; <label>:1211                                    ; preds = %1209, %1207
  br label %1212

; <label>:1212                                    ; preds = %1211, %1204
  %1213 = getelementptr inbounds [1005 x i32]* %pairlistn_std, i32 0, i32 0
  %1214 = icmp ne i32* %216, %1213
  br i1 %1214, label %1215, label %1220

; <label>:1215                                    ; preds = %1212
  %1216 = icmp eq i32* %216, null
  br i1 %1216, label %1219, label %1217

; <label>:1217                                    ; preds = %1215
  %1218 = bitcast i32* %216 to i8*
  call void @_ZdaPv(i8* %1218) #8
  br label %1219

; <label>:1219                                    ; preds = %1217, %1215
  br label %1220

; <label>:1220                                    ; preds = %1219, %1212
  %1221 = getelementptr inbounds [1005 x i32]* %pairlistx_std, i32 0, i32 0
  %1222 = icmp ne i32* %230, %1221
  br i1 %1222, label %1223, label %1228

; <label>:1223                                    ; preds = %1220
  %1224 = icmp eq i32* %230, null
  br i1 %1224, label %1227, label %1225

; <label>:1225                                    ; preds = %1223
  %1226 = bitcast i32* %230 to i8*
  call void @_ZdaPv(i8* %1226) #8
  br label %1227

; <label>:1227                                    ; preds = %1225, %1223
  br label %1228

; <label>:1228                                    ; preds = %1227, %1220
  %1229 = getelementptr inbounds [1005 x i32]* %pairlistm_std, i32 0, i32 0
  %1230 = icmp ne i32* %244, %1229
  br i1 %1230, label %1231, label %1236

; <label>:1231                                    ; preds = %1228
  %1232 = icmp eq i32* %244, null
  br i1 %1232, label %1235, label %1233

; <label>:1233                                    ; preds = %1231
  %1234 = bitcast i32* %244 to i8*
  call void @_ZdaPv(i8* %1234) #8
  br label %1235

; <label>:1235                                    ; preds = %1233, %1231
  br label %1236

; <label>:1236                                    ; preds = %1235, %1228
  %1237 = sitofp i32 %exclChecksum.0 to double
  %1238 = getelementptr inbounds double* %6, i64 22
  %1239 = load double* %1238, align 8
  %1240 = fadd double %1239, %1237
  store double %1240, double* %1238, align 8
  %1241 = getelementptr inbounds double* %6, i64 2
  %1242 = load double* %1241, align 8
  %1243 = fadd double %1242, %vdwEnergy.0
  store double %1243, double* %1241, align 8
  %1244 = getelementptr inbounds double* %6, i64 0
  %1245 = load double* %1244, align 8
  %1246 = fadd double %1245, %electEnergy.0
  store double %1246, double* %1244, align 8
  %1247 = getelementptr inbounds double* %6, i64 25
  %1248 = load double* %1247, align 8
  %1249 = fadd double %1248, %vdwEnergy_s.0
  store double %1249, double* %1247, align 8
  %1250 = getelementptr inbounds double* %6, i64 23
  %1251 = load double* %1250, align 8
  %1252 = fadd double %1251, %electEnergy_s.0
  store double %1252, double* %1250, align 8
  %1253 = getelementptr inbounds double* %6, i64 3
  %1254 = load double* %1253, align 8
  %1255 = fadd double %1254, %virial_xx.0
  store double %1255, double* %1253, align 8
  %1256 = getelementptr inbounds double* %6, i64 4
  %1257 = load double* %1256, align 8
  %1258 = fadd double %1257, %virial_xy.0
  store double %1258, double* %1256, align 8
  %1259 = getelementptr inbounds double* %6, i64 5
  %1260 = load double* %1259, align 8
  %1261 = fadd double %1260, %virial_xz.0
  store double %1261, double* %1259, align 8
  %1262 = getelementptr inbounds double* %6, i64 6
  %1263 = load double* %1262, align 8
  %1264 = fadd double %1263, %virial_xy.0
  store double %1264, double* %1262, align 8
  %1265 = getelementptr inbounds double* %6, i64 7
  %1266 = load double* %1265, align 8
  %1267 = fadd double %1266, %virial_yy.0
  store double %1267, double* %1265, align 8
  %1268 = getelementptr inbounds double* %6, i64 8
  %1269 = load double* %1268, align 8
  %1270 = fadd double %1269, %virial_yz.0
  store double %1270, double* %1268, align 8
  %1271 = getelementptr inbounds double* %6, i64 9
  %1272 = load double* %1271, align 8
  %1273 = fadd double %1272, %virial_xz.0
  store double %1273, double* %1271, align 8
  %1274 = getelementptr inbounds double* %6, i64 10
  %1275 = load double* %1274, align 8
  %1276 = fadd double %1275, %virial_yz.0
  store double %1276, double* %1274, align 8
  %1277 = getelementptr inbounds double* %6, i64 11
  %1278 = load double* %1277, align 8
  %1279 = fadd double %1278, %virial_zz.0
  store double %1279, double* %1277, align 8
  br label %1280

; <label>:1280                                    ; preds = %1236, %163, %3
  ret void
}

; Function Attrs: uwtable
define void @_ZN20ComputeNonbondedUtil30calc_pair_energy_fullelect_fepEP9nonbonded(%struct.nonbonded* %params) #0 align 2 {
  %ljNull = alloca %"struct.LJTable::TableEntry", align 8
  %grouplist_std = alloca [1005 x i32], align 16
  %fixglist_std = alloca [1005 x i32], align 16
  %goodglist_std = alloca [1005 x i32], align 16
  %pairlist_std = alloca [1005 x i32], align 16
  %pairlist2_std = alloca [1005 x i32], align 16
  %pairlistn_std = alloca [1005 x i32], align 16
  %pairlistx_std = alloca [1005 x i32], align 16
  %pairlistm_std = alloca [1005 x i32], align 16
  %r2f = alloca %union.anon.45, align 4
  %r2f32 = alloca %union.anon.46, align 4
  %r2f81 = alloca %union.anon.47, align 4
  %1 = load i32* @_ZN20ComputeNonbondedUtil8commOnlyE, align 4
  %2 = icmp ne i32 %1, 0
  br i1 %2, label %3, label %4

; <label>:3                                       ; preds = %0
  br label %1569

; <label>:4                                       ; preds = %0
  %5 = getelementptr inbounds %struct.nonbonded* %params, i32 0, i32 4
  %6 = load double** %5, align 8
  %7 = load double* @_ZN20ComputeNonbondedUtil7cutoff2E, align 8
  %8 = load double* @_ZN20ComputeNonbondedUtil12groupcutoff2E, align 8
  %9 = load double* @_ZN20ComputeNonbondedUtil12dielectric_1E, align 8
  %10 = load %class.LJTable** @_ZN20ComputeNonbondedUtil7ljTableE, align 8
  %11 = getelementptr inbounds %"struct.LJTable::TableEntry"* %ljNull, i32 0, i32 0
  store double 0.000000e+00, double* %11, align 8
  %12 = getelementptr inbounds %"struct.LJTable::TableEntry"* %ljNull, i32 0, i32 1
  store double 0.000000e+00, double* %12, align 8
  %13 = load %class.Molecule** @_ZN20ComputeNonbondedUtil3molE, align 8
  %14 = load double** @_ZN20ComputeNonbondedUtil11table_shortE, align 8
  %15 = load double** @_ZN20ComputeNonbondedUtil10slow_tableE, align 8
  %16 = load double* @_ZN20ComputeNonbondedUtil7scalingE, align 8
  %17 = load double* @_ZN20ComputeNonbondedUtil7scale14E, align 8
  %18 = fsub double 1.000000e+00, %17
  %19 = load double* @_ZN20ComputeNonbondedUtil9switchOn2E, align 8
  %20 = load double* @_ZN20ComputeNonbondedUtil2c1E, align 8
  %21 = load double* @_ZN20ComputeNonbondedUtil2c3E, align 8
  %22 = load double* @_ZN20ComputeNonbondedUtil8r2_deltaE, align 8
  %23 = load i32* @_ZN20ComputeNonbondedUtil12r2_delta_expE, align 4
  %24 = sub nsw i32 %23, 127
  %25 = mul nsw i32 64, %24
  %26 = getelementptr inbounds %struct.nonbonded* %params, i32 0, i32 3
  %27 = getelementptr inbounds [2 x i32]* %26, i32 0, i64 0
  %28 = load i32* %27, align 4
  %29 = getelementptr inbounds %struct.nonbonded* %params, i32 0, i32 3
  %30 = getelementptr inbounds [2 x i32]* %29, i32 0, i64 1
  %31 = load i32* %30, align 4
  %32 = getelementptr inbounds %struct.nonbonded* %params, i32 0, i32 0
  %33 = getelementptr inbounds [2 x %struct.CompAtom*]* %32, i32 0, i64 0
  %34 = load %struct.CompAtom** %33, align 8
  %35 = getelementptr inbounds %struct.nonbonded* %params, i32 0, i32 0
  %36 = getelementptr inbounds [2 x %struct.CompAtom*]* %35, i32 0, i64 1
  %37 = load %struct.CompAtom** %36, align 8
  %38 = icmp slt i32 %31, 1000
  br i1 %38, label %39, label %41

; <label>:39                                      ; preds = %4
  %40 = getelementptr inbounds [1005 x i32]* %grouplist_std, i32 0, i32 0
  br label %50

; <label>:41                                      ; preds = %4
  %42 = add nsw i32 %31, 5
  %43 = sext i32 %42 to i64
  %44 = call { i64, i1 } @llvm.umul.with.overflow.i64(i64 %43, i64 4)
  %45 = extractvalue { i64, i1 } %44, 1
  %46 = extractvalue { i64, i1 } %44, 0
  %47 = select i1 %45, i64 -1, i64 %46
  %48 = call noalias i8* @_Znam(i64 %47) #9
  %49 = bitcast i8* %48 to i32*
  br label %50

; <label>:50                                      ; preds = %41, %39
  %51 = phi i32* [ %40, %39 ], [ %49, %41 ]
  %52 = icmp slt i32 %31, 1000
  br i1 %52, label %53, label %55

; <label>:53                                      ; preds = %50
  %54 = getelementptr inbounds [1005 x i32]* %fixglist_std, i32 0, i32 0
  br label %64

; <label>:55                                      ; preds = %50
  %56 = add nsw i32 %31, 5
  %57 = sext i32 %56 to i64
  %58 = call { i64, i1 } @llvm.umul.with.overflow.i64(i64 %57, i64 4)
  %59 = extractvalue { i64, i1 } %58, 1
  %60 = extractvalue { i64, i1 } %58, 0
  %61 = select i1 %59, i64 -1, i64 %60
  %62 = call noalias i8* @_Znam(i64 %61) #9
  %63 = bitcast i8* %62 to i32*
  br label %64

; <label>:64                                      ; preds = %55, %53
  %65 = phi i32* [ %54, %53 ], [ %63, %55 ]
  %66 = icmp slt i32 %31, 1000
  br i1 %66, label %67, label %69

; <label>:67                                      ; preds = %64
  %68 = getelementptr inbounds [1005 x i32]* %goodglist_std, i32 0, i32 0
  br label %78

; <label>:69                                      ; preds = %64
  %70 = add nsw i32 %31, 5
  %71 = sext i32 %70 to i64
  %72 = call { i64, i1 } @llvm.umul.with.overflow.i64(i64 %71, i64 4)
  %73 = extractvalue { i64, i1 } %72, 1
  %74 = extractvalue { i64, i1 } %72, 0
  %75 = select i1 %73, i64 -1, i64 %74
  %76 = call noalias i8* @_Znam(i64 %75) #9
  %77 = bitcast i8* %76 to i32*
  br label %78

; <label>:78                                      ; preds = %69, %67
  %79 = phi i32* [ %68, %67 ], [ %77, %69 ]
  br label %80

; <label>:80                                      ; preds = %103, %78
  %g.0 = phi i32 [ 0, %78 ], [ %g.1, %103 ]
  %j.0 = phi i32 [ 0, %78 ], [ %104, %103 ]
  %81 = icmp slt i32 %j.0, %31
  br i1 %81, label %82, label %105

; <label>:82                                      ; preds = %80
  %83 = sext i32 %j.0 to i64
  %84 = getelementptr inbounds %struct.CompAtom* %37, i64 %83
  %85 = getelementptr inbounds %struct.CompAtom* %84, i32 0, i32 2
  %86 = load i32* %85, align 4
  %87 = lshr i32 %86, 22
  %88 = and i32 %87, 7
  %89 = icmp ne i32 %88, 0
  br i1 %89, label %98, label %90

; <label>:90                                      ; preds = %82
  %91 = sext i32 %j.0 to i64
  %92 = getelementptr inbounds %struct.CompAtom* %37, i64 %91
  %93 = getelementptr inbounds %struct.CompAtom* %92, i32 0, i32 2
  %94 = load i32* %93, align 4
  %95 = lshr i32 %94, 25
  %96 = and i32 %95, 1
  %97 = icmp ne i32 %96, 0
  br i1 %97, label %98, label %102

; <label>:98                                      ; preds = %90, %82
  %99 = add nsw i32 %g.0, 1
  %100 = sext i32 %g.0 to i64
  %101 = getelementptr inbounds i32* %51, i64 %100
  store i32 %j.0, i32* %101, align 4
  br label %102

; <label>:102                                     ; preds = %98, %90
  %g.1 = phi i32 [ %99, %98 ], [ %g.0, %90 ]
  br label %103

; <label>:103                                     ; preds = %102
  %104 = add nsw i32 %j.0, 1
  br label %80

; <label>:105                                     ; preds = %80
  %106 = icmp ne i32 %g.0, 0
  br i1 %106, label %107, label %114

; <label>:107                                     ; preds = %105
  %108 = sub nsw i32 %g.0, 1
  %109 = sext i32 %108 to i64
  %110 = getelementptr inbounds i32* %51, i64 %109
  %111 = load i32* %110, align 4
  %112 = sext i32 %g.0 to i64
  %113 = getelementptr inbounds i32* %51, i64 %112
  store i32 %111, i32* %113, align 4
  br label %114

; <label>:114                                     ; preds = %107, %105
  %115 = load i32* @_ZN20ComputeNonbondedUtil12fixedAtomsOnE, align 4
  %116 = icmp ne i32 %115, 0
  br i1 %116, label %117, label %185

; <label>:117                                     ; preds = %114
  br label %118

; <label>:118                                     ; preds = %136, %117
  %fixg.0 = phi i32 [ 0, %117 ], [ %fixg.1, %136 ]
  %all_fixed.0 = phi i32 [ 1, %117 ], [ %all_fixed.1, %136 ]
  %g.2 = phi i32 [ 0, %117 ], [ %137, %136 ]
  %119 = icmp slt i32 %g.2, %g.0
  br i1 %119, label %120, label %138

; <label>:120                                     ; preds = %118
  %121 = sext i32 %g.2 to i64
  %122 = getelementptr inbounds i32* %51, i64 %121
  %123 = load i32* %122, align 4
  %124 = sext i32 %123 to i64
  %125 = getelementptr inbounds %struct.CompAtom* %37, i64 %124
  %126 = getelementptr inbounds %struct.CompAtom* %125, i32 0, i32 2
  %127 = load i32* %126, align 4
  %128 = lshr i32 %127, 27
  %129 = and i32 %128, 1
  %130 = icmp ne i32 %129, 0
  br i1 %130, label %135, label %131

; <label>:131                                     ; preds = %120
  %132 = add nsw i32 %fixg.0, 1
  %133 = sext i32 %fixg.0 to i64
  %134 = getelementptr inbounds i32* %65, i64 %133
  store i32 %123, i32* %134, align 4
  br label %135

; <label>:135                                     ; preds = %131, %120
  %fixg.1 = phi i32 [ %fixg.0, %120 ], [ %132, %131 ]
  %all_fixed.1 = phi i32 [ %all_fixed.0, %120 ], [ 0, %131 ]
  br label %136

; <label>:136                                     ; preds = %135
  %137 = add nsw i32 %g.2, 1
  br label %118

; <label>:138                                     ; preds = %118
  br label %139

; <label>:139                                     ; preds = %155, %138
  %all_fixed.2 = phi i32 [ %all_fixed.0, %138 ], [ %all_fixed.3, %155 ]
  %i.0 = phi i32 [ 0, %138 ], [ %156, %155 ]
  %140 = icmp ne i32 %all_fixed.2, 0
  br i1 %140, label %141, label %143

; <label>:141                                     ; preds = %139
  %142 = icmp slt i32 %i.0, %28
  br label %143

; <label>:143                                     ; preds = %141, %139
  %144 = phi i1 [ false, %139 ], [ %142, %141 ]
  br i1 %144, label %145, label %157

; <label>:145                                     ; preds = %143
  %146 = sext i32 %i.0 to i64
  %147 = getelementptr inbounds %struct.CompAtom* %34, i64 %146
  %148 = getelementptr inbounds %struct.CompAtom* %147, i32 0, i32 2
  %149 = load i32* %148, align 4
  %150 = lshr i32 %149, 26
  %151 = and i32 %150, 1
  %152 = icmp ne i32 %151, 0
  br i1 %152, label %154, label %153

; <label>:153                                     ; preds = %145
  br label %154

; <label>:154                                     ; preds = %153, %145
  %all_fixed.3 = phi i32 [ %all_fixed.2, %145 ], [ 0, %153 ]
  br label %155

; <label>:155                                     ; preds = %154
  %156 = add nsw i32 %i.0, 1
  br label %139

; <label>:157                                     ; preds = %143
  %158 = icmp ne i32 %all_fixed.2, 0
  br i1 %158, label %159, label %184

; <label>:159                                     ; preds = %157
  %160 = getelementptr inbounds [1005 x i32]* %grouplist_std, i32 0, i32 0
  %161 = icmp ne i32* %51, %160
  br i1 %161, label %162, label %167

; <label>:162                                     ; preds = %159
  %163 = icmp eq i32* %51, null
  br i1 %163, label %166, label %164

; <label>:164                                     ; preds = %162
  %165 = bitcast i32* %51 to i8*
  call void @_ZdaPv(i8* %165) #8
  br label %166

; <label>:166                                     ; preds = %164, %162
  br label %167

; <label>:167                                     ; preds = %166, %159
  %168 = getelementptr inbounds [1005 x i32]* %fixglist_std, i32 0, i32 0
  %169 = icmp ne i32* %65, %168
  br i1 %169, label %170, label %175

; <label>:170                                     ; preds = %167
  %171 = icmp eq i32* %65, null
  br i1 %171, label %174, label %172

; <label>:172                                     ; preds = %170
  %173 = bitcast i32* %65 to i8*
  call void @_ZdaPv(i8* %173) #8
  br label %174

; <label>:174                                     ; preds = %172, %170
  br label %175

; <label>:175                                     ; preds = %174, %167
  %176 = getelementptr inbounds [1005 x i32]* %goodglist_std, i32 0, i32 0
  %177 = icmp ne i32* %79, %176
  br i1 %177, label %178, label %183

; <label>:178                                     ; preds = %175
  %179 = icmp eq i32* %79, null
  br i1 %179, label %182, label %180

; <label>:180                                     ; preds = %178
  %181 = bitcast i32* %79 to i8*
  call void @_ZdaPv(i8* %181) #8
  br label %182

; <label>:182                                     ; preds = %180, %178
  br label %183

; <label>:183                                     ; preds = %182, %175
  br label %1569

; <label>:184                                     ; preds = %157
  br label %185

; <label>:185                                     ; preds = %184, %114
  %fixg.2 = phi i32 [ %fixg.0, %184 ], [ 0, %114 ]
  %186 = icmp ne i32 %fixg.2, 0
  br i1 %186, label %187, label %194

; <label>:187                                     ; preds = %185
  %188 = sub nsw i32 %fixg.2, 1
  %189 = sext i32 %188 to i64
  %190 = getelementptr inbounds i32* %65, i64 %189
  %191 = load i32* %190, align 4
  %192 = sext i32 %fixg.2 to i64
  %193 = getelementptr inbounds i32* %65, i64 %192
  store i32 %191, i32* %193, align 4
  br label %194

; <label>:194                                     ; preds = %187, %185
  %195 = icmp slt i32 %31, 1000
  br i1 %195, label %196, label %198

; <label>:196                                     ; preds = %194
  %197 = getelementptr inbounds [1005 x i32]* %pairlist_std, i32 0, i32 0
  br label %207

; <label>:198                                     ; preds = %194
  %199 = add nsw i32 %31, 5
  %200 = sext i32 %199 to i64
  %201 = call { i64, i1 } @llvm.umul.with.overflow.i64(i64 %200, i64 4)
  %202 = extractvalue { i64, i1 } %201, 1
  %203 = extractvalue { i64, i1 } %201, 0
  %204 = select i1 %202, i64 -1, i64 %203
  %205 = call noalias i8* @_Znam(i64 %204) #9
  %206 = bitcast i8* %205 to i32*
  br label %207

; <label>:207                                     ; preds = %198, %196
  %208 = phi i32* [ %197, %196 ], [ %206, %198 ]
  %209 = icmp slt i32 %31, 1000
  br i1 %209, label %210, label %212

; <label>:210                                     ; preds = %207
  %211 = getelementptr inbounds [1005 x i32]* %pairlist2_std, i32 0, i32 0
  br label %221

; <label>:212                                     ; preds = %207
  %213 = add nsw i32 %31, 5
  %214 = sext i32 %213 to i64
  %215 = call { i64, i1 } @llvm.umul.with.overflow.i64(i64 %214, i64 4)
  %216 = extractvalue { i64, i1 } %215, 1
  %217 = extractvalue { i64, i1 } %215, 0
  %218 = select i1 %216, i64 -1, i64 %217
  %219 = call noalias i8* @_Znam(i64 %218) #9
  %220 = bitcast i8* %219 to i32*
  br label %221

; <label>:221                                     ; preds = %212, %210
  %222 = phi i32* [ %211, %210 ], [ %220, %212 ]
  %223 = icmp slt i32 %31, 1000
  br i1 %223, label %224, label %226

; <label>:224                                     ; preds = %221
  %225 = getelementptr inbounds [1005 x i32]* %pairlistn_std, i32 0, i32 0
  br label %235

; <label>:226                                     ; preds = %221
  %227 = add nsw i32 %31, 5
  %228 = sext i32 %227 to i64
  %229 = call { i64, i1 } @llvm.umul.with.overflow.i64(i64 %228, i64 4)
  %230 = extractvalue { i64, i1 } %229, 1
  %231 = extractvalue { i64, i1 } %229, 0
  %232 = select i1 %230, i64 -1, i64 %231
  %233 = call noalias i8* @_Znam(i64 %232) #9
  %234 = bitcast i8* %233 to i32*
  br label %235

; <label>:235                                     ; preds = %226, %224
  %236 = phi i32* [ %225, %224 ], [ %234, %226 ]
  %237 = icmp slt i32 %31, 1000
  br i1 %237, label %238, label %240

; <label>:238                                     ; preds = %235
  %239 = getelementptr inbounds [1005 x i32]* %pairlistx_std, i32 0, i32 0
  br label %249

; <label>:240                                     ; preds = %235
  %241 = add nsw i32 %31, 5
  %242 = sext i32 %241 to i64
  %243 = call { i64, i1 } @llvm.umul.with.overflow.i64(i64 %242, i64 4)
  %244 = extractvalue { i64, i1 } %243, 1
  %245 = extractvalue { i64, i1 } %243, 0
  %246 = select i1 %244, i64 -1, i64 %245
  %247 = call noalias i8* @_Znam(i64 %246) #9
  %248 = bitcast i8* %247 to i32*
  br label %249

; <label>:249                                     ; preds = %240, %238
  %250 = phi i32* [ %239, %238 ], [ %248, %240 ]
  %251 = icmp slt i32 %31, 1000
  br i1 %251, label %252, label %254

; <label>:252                                     ; preds = %249
  %253 = getelementptr inbounds [1005 x i32]* %pairlistm_std, i32 0, i32 0
  br label %263

; <label>:254                                     ; preds = %249
  %255 = add nsw i32 %31, 5
  %256 = sext i32 %255 to i64
  %257 = call { i64, i1 } @llvm.umul.with.overflow.i64(i64 %256, i64 4)
  %258 = extractvalue { i64, i1 } %257, 1
  %259 = extractvalue { i64, i1 } %257, 0
  %260 = select i1 %258, i64 -1, i64 %259
  %261 = call noalias i8* @_Znam(i64 %260) #9
  %262 = bitcast i8* %261 to i32*
  br label %263

; <label>:263                                     ; preds = %254, %252
  %264 = phi i32* [ %253, %252 ], [ %262, %254 ]
  %265 = getelementptr inbounds %struct.nonbonded* %params, i32 0, i32 1
  %266 = getelementptr inbounds [2 x %class.Vector*]* %265, i32 0, i64 0
  %267 = load %class.Vector** %266, align 8
  %268 = getelementptr inbounds %struct.nonbonded* %params, i32 0, i32 1
  %269 = getelementptr inbounds [2 x %class.Vector*]* %268, i32 0, i64 1
  %270 = load %class.Vector** %269, align 8
  %271 = getelementptr inbounds %struct.nonbonded* %params, i32 0, i32 2
  %272 = getelementptr inbounds [2 x %class.Vector*]* %271, i32 0, i64 0
  %273 = load %class.Vector** %272, align 8
  %274 = getelementptr inbounds %struct.nonbonded* %params, i32 0, i32 2
  %275 = getelementptr inbounds [2 x %class.Vector*]* %274, i32 0, i64 1
  %276 = load %class.Vector** %275, align 8
  %277 = mul nsw i32 %28, %31
  %278 = getelementptr inbounds %struct.nonbonded* %params, i32 0, i32 8
  %279 = load i32* %278, align 4
  %280 = mul nsw i32 %277, %279
  %281 = getelementptr inbounds %struct.nonbonded* %params, i32 0, i32 10
  %282 = load i32* %281, align 4
  %283 = sdiv i32 %280, %282
  %284 = getelementptr inbounds %struct.nonbonded* %params, i32 0, i32 9
  %285 = load i32* %284, align 4
  %286 = mul nsw i32 %277, %285
  %287 = getelementptr inbounds %struct.nonbonded* %params, i32 0, i32 10
  %288 = load i32* %287, align 4
  %289 = sdiv i32 %286, %288
  br label %290

; <label>:290                                     ; preds = %1426, %263
  %pairlistindex.0 = phi i32 [ 0, %263 ], [ %pairlistindex.2, %1426 ]
  %pairlistoffset.0 = phi i32 [ 0, %263 ], [ %pairlistoffset.2, %1426 ]
  %pairCount.0 = phi i32 [ 0, %263 ], [ %pairCount.3, %1426 ]
  %i.1 = phi i32 [ 0, %263 ], [ %1427, %1426 ]
  %fullElectVirial_zz.0 = phi double [ 0.000000e+00, %263 ], [ %fullElectVirial_zz.4, %1426 ]
  %fullElectVirial_yz.0 = phi double [ 0.000000e+00, %263 ], [ %fullElectVirial_yz.4, %1426 ]
  %fullElectVirial_yy.0 = phi double [ 0.000000e+00, %263 ], [ %fullElectVirial_yy.4, %1426 ]
  %fullElectVirial_xz.0 = phi double [ 0.000000e+00, %263 ], [ %fullElectVirial_xz.4, %1426 ]
  %fullElectVirial_xy.0 = phi double [ 0.000000e+00, %263 ], [ %fullElectVirial_xy.4, %1426 ]
  %fullElectVirial_xx.0 = phi double [ 0.000000e+00, %263 ], [ %fullElectVirial_xx.4, %1426 ]
  %fullElectEnergy_s.0 = phi double [ 0.000000e+00, %263 ], [ %fullElectEnergy_s.4, %1426 ]
  %fullElectEnergy.0 = phi double [ 0.000000e+00, %263 ], [ %fullElectEnergy.4, %1426 ]
  %virial_zz.0 = phi double [ 0.000000e+00, %263 ], [ %virial_zz.3, %1426 ]
  %virial_yz.0 = phi double [ 0.000000e+00, %263 ], [ %virial_yz.3, %1426 ]
  %virial_yy.0 = phi double [ 0.000000e+00, %263 ], [ %virial_yy.3, %1426 ]
  %virial_xz.0 = phi double [ 0.000000e+00, %263 ], [ %virial_xz.3, %1426 ]
  %virial_xy.0 = phi double [ 0.000000e+00, %263 ], [ %virial_xy.3, %1426 ]
  %virial_xx.0 = phi double [ 0.000000e+00, %263 ], [ %virial_xx.3, %1426 ]
  %electEnergy_s.0 = phi double [ 0.000000e+00, %263 ], [ %electEnergy_s.3, %1426 ]
  %vdwEnergy_s.0 = phi double [ 0.000000e+00, %263 ], [ %vdwEnergy_s.3, %1426 ]
  %electEnergy.0 = phi double [ 0.000000e+00, %263 ], [ %electEnergy.3, %1426 ]
  %vdwEnergy.0 = phi double [ 0.000000e+00, %263 ], [ %vdwEnergy.3, %1426 ]
  %exclChecksum.0 = phi i32 [ 0, %263 ], [ %exclChecksum.9, %1426 ]
  %291 = icmp slt i32 %i.1, %28
  br i1 %291, label %292, label %1428

; <label>:292                                     ; preds = %290
  %293 = sext i32 %i.1 to i64
  %294 = getelementptr inbounds %struct.CompAtom* %34, i64 %293
  %295 = getelementptr inbounds %struct.CompAtom* %294, i32 0, i32 2
  %296 = load i32* %295, align 4
  %297 = and i32 %296, 4194303
  %298 = call %class.ExclusionCheck* @_ZNK8Molecule23get_excl_check_for_atomEi(%class.Molecule* %13, i32 %297)
  %299 = getelementptr inbounds %class.ExclusionCheck* %298, i32 0, i32 0
  %300 = load i32* %299, align 4
  %301 = getelementptr inbounds %class.ExclusionCheck* %298, i32 0, i32 1
  %302 = load i32* %301, align 4
  %303 = getelementptr inbounds %class.ExclusionCheck* %298, i32 0, i32 2
  %304 = load i8** %303, align 8
  %305 = sext i32 %300 to i64
  %306 = sub i64 0, %305
  %307 = getelementptr inbounds i8* %304, i64 %306
  %308 = getelementptr inbounds %struct.CompAtom* %294, i32 0, i32 0
  %309 = getelementptr inbounds %class.Vector* %308, i32 0, i32 0
  %310 = load double* %309, align 8
  %311 = getelementptr inbounds %struct.CompAtom* %294, i32 0, i32 0
  %312 = getelementptr inbounds %class.Vector* %311, i32 0, i32 1
  %313 = load double* %312, align 8
  %314 = getelementptr inbounds %struct.CompAtom* %294, i32 0, i32 0
  %315 = getelementptr inbounds %class.Vector* %314, i32 0, i32 2
  %316 = load double* %315, align 8
  %317 = sext i32 %i.1 to i64
  %318 = getelementptr inbounds %class.Vector* %267, i64 %317
  %319 = sext i32 %i.1 to i64
  %320 = getelementptr inbounds %class.Vector* %273, i64 %319
  %321 = getelementptr inbounds %struct.CompAtom* %294, i32 0, i32 2
  %322 = load i32* %321, align 4
  %323 = lshr i32 %322, 22
  %324 = and i32 %323, 7
  %325 = icmp ne i32 %324, 0
  br i1 %325, label %332, label %326

; <label>:326                                     ; preds = %292
  %327 = getelementptr inbounds %struct.CompAtom* %294, i32 0, i32 2
  %328 = load i32* %327, align 4
  %329 = lshr i32 %328, 25
  %330 = and i32 %329, 1
  %331 = icmp ne i32 %330, 0
  br i1 %331, label %332, label %502

; <label>:332                                     ; preds = %326, %292
  %333 = getelementptr inbounds %struct.CompAtom* %294, i32 0, i32 2
  %334 = load i32* %333, align 4
  %335 = lshr i32 %334, 22
  %336 = and i32 %335, 7
  %337 = icmp ne i32 %336, 0
  br i1 %337, label %338, label %352

; <label>:338                                     ; preds = %332
  %339 = getelementptr inbounds %struct.CompAtom* %294, i32 0, i32 2
  %340 = load i32* %339, align 4
  %341 = lshr i32 %340, 22
  %342 = and i32 %341, 7
  %343 = mul nsw i32 %342, %31
  %344 = add nsw i32 %pairCount.0, %343
  %345 = icmp slt i32 %pairCount.0, %283
  br i1 %345, label %348, label %346

; <label>:346                                     ; preds = %338
  %347 = icmp sge i32 %pairCount.0, %289
  br i1 %347, label %348, label %351

; <label>:348                                     ; preds = %346, %338
  %349 = sub nsw i32 %342, 1
  %350 = add nsw i32 %i.1, %349
  br label %1426

; <label>:351                                     ; preds = %346
  br label %352

; <label>:352                                     ; preds = %351, %332
  %pairCount.1 = phi i32 [ %344, %351 ], [ %pairCount.0, %332 ]
  %353 = load i32* @_ZN20ComputeNonbondedUtil12fixedAtomsOnE, align 4
  %354 = icmp ne i32 %353, 0
  br i1 %354, label %355, label %361

; <label>:355                                     ; preds = %352
  %356 = getelementptr inbounds %struct.CompAtom* %294, i32 0, i32 2
  %357 = load i32* %356, align 4
  %358 = lshr i32 %357, 27
  %359 = and i32 %358, 1
  %360 = icmp ne i32 %359, 0
  br label %361

; <label>:361                                     ; preds = %355, %352
  %362 = phi i1 [ false, %352 ], [ %360, %355 ]
  %363 = zext i1 %362 to i32
  %364 = sext i32 0 to i64
  %365 = getelementptr inbounds i32* %208, i64 %364
  %366 = icmp ne i32 %363, 0
  br i1 %366, label %367, label %368

; <label>:367                                     ; preds = %361
  br label %369

; <label>:368                                     ; preds = %361
  br label %369

; <label>:369                                     ; preds = %368, %367
  %370 = phi i32* [ %65, %367 ], [ %51, %368 ]
  %371 = icmp ne i32 %363, 0
  br i1 %371, label %372, label %373

; <label>:372                                     ; preds = %369
  br label %374

; <label>:373                                     ; preds = %369
  br label %374

; <label>:374                                     ; preds = %373, %372
  %375 = phi i32 [ %fixg.2, %372 ], [ %g.0, %373 ]
  %376 = icmp slt i32 0, %375
  br i1 %376, label %377, label %471

; <label>:377                                     ; preds = %374
  %378 = sext i32 0 to i64
  %379 = getelementptr inbounds i32* %370, i64 %378
  %380 = load i32* %379, align 4
  %381 = sext i32 %380 to i64
  %382 = getelementptr inbounds %struct.CompAtom* %37, i64 %381
  %383 = getelementptr inbounds %struct.CompAtom* %382, i32 0, i32 0
  %384 = getelementptr inbounds %class.Vector* %383, i32 0, i32 0
  %385 = load double* %384, align 8
  %386 = sext i32 %380 to i64
  %387 = getelementptr inbounds %struct.CompAtom* %37, i64 %386
  %388 = getelementptr inbounds %struct.CompAtom* %387, i32 0, i32 0
  %389 = getelementptr inbounds %class.Vector* %388, i32 0, i32 1
  %390 = load double* %389, align 8
  %391 = sext i32 %380 to i64
  %392 = getelementptr inbounds %struct.CompAtom* %37, i64 %391
  %393 = getelementptr inbounds %struct.CompAtom* %392, i32 0, i32 0
  %394 = getelementptr inbounds %class.Vector* %393, i32 0, i32 2
  %395 = load double* %394, align 8
  br label %396

; <label>:396                                     ; preds = %429, %377
  %g.3 = phi i32 [ 0, %377 ], [ %399, %429 ]
  %gli.0 = phi i32* [ %79, %377 ], [ %gli.1, %429 ]
  %j2.0 = phi i32 [ %380, %377 ], [ %402, %429 ]
  %p_j_x.0 = phi double [ %385, %377 ], [ %409, %429 ]
  %p_j_y.0 = phi double [ %390, %377 ], [ %417, %429 ]
  %p_j_z.0 = phi double [ %395, %377 ], [ %425, %429 ]
  %397 = icmp slt i32 %g.3, %375
  br i1 %397, label %398, label %430

; <label>:398                                     ; preds = %396
  %399 = add nsw i32 %g.3, 1
  %400 = sext i32 %399 to i64
  %401 = getelementptr inbounds i32* %370, i64 %400
  %402 = load i32* %401, align 4
  %403 = fsub double %310, %p_j_x.0
  %404 = fmul double %403, %403
  %405 = sext i32 %402 to i64
  %406 = getelementptr inbounds %struct.CompAtom* %37, i64 %405
  %407 = getelementptr inbounds %struct.CompAtom* %406, i32 0, i32 0
  %408 = getelementptr inbounds %class.Vector* %407, i32 0, i32 0
  %409 = load double* %408, align 8
  %410 = fsub double %313, %p_j_y.0
  %411 = fmul double %410, %410
  %412 = fadd double %404, %411
  %413 = sext i32 %402 to i64
  %414 = getelementptr inbounds %struct.CompAtom* %37, i64 %413
  %415 = getelementptr inbounds %struct.CompAtom* %414, i32 0, i32 0
  %416 = getelementptr inbounds %class.Vector* %415, i32 0, i32 1
  %417 = load double* %416, align 8
  %418 = fsub double %316, %p_j_z.0
  %419 = fmul double %418, %418
  %420 = fadd double %412, %419
  %421 = sext i32 %402 to i64
  %422 = getelementptr inbounds %struct.CompAtom* %37, i64 %421
  %423 = getelementptr inbounds %struct.CompAtom* %422, i32 0, i32 0
  %424 = getelementptr inbounds %class.Vector* %423, i32 0, i32 2
  %425 = load double* %424, align 8
  %426 = fcmp ole double %420, %8
  br i1 %426, label %427, label %429

; <label>:427                                     ; preds = %398
  store i32 %j2.0, i32* %gli.0, align 4
  %428 = getelementptr inbounds i32* %gli.0, i32 1
  br label %429

; <label>:429                                     ; preds = %427, %398
  %gli.1 = phi i32* [ %428, %427 ], [ %gli.0, %398 ]
  br label %396

; <label>:430                                     ; preds = %396
  %431 = ptrtoint i32* %gli.0 to i64
  %432 = ptrtoint i32* %79 to i64
  %433 = sub i64 %431, %432
  %434 = sdiv exact i64 %433, 4
  %435 = trunc i64 %434 to i32
  br label %436

; <label>:436                                     ; preds = %468, %430
  %pli.0 = phi i32* [ %365, %430 ], [ %467, %468 ]
  %h.0 = phi i32 [ 0, %430 ], [ %469, %468 ]
  %437 = icmp slt i32 %h.0, %435
  br i1 %437, label %438, label %470

; <label>:438                                     ; preds = %436
  %439 = sext i32 %h.0 to i64
  %440 = getelementptr inbounds i32* %79, i64 %439
  %441 = load i32* %440, align 4
  %442 = sext i32 %441 to i64
  %443 = getelementptr inbounds %struct.CompAtom* %37, i64 %442
  %444 = getelementptr inbounds %struct.CompAtom* %443, i32 0, i32 2
  %445 = load i32* %444, align 4
  %446 = lshr i32 %445, 25
  %447 = and i32 %446, 1
  %448 = icmp ne i32 %447, 0
  br i1 %448, label %449, label %450

; <label>:449                                     ; preds = %438
  br label %457

; <label>:450                                     ; preds = %438
  %451 = sext i32 %441 to i64
  %452 = getelementptr inbounds %struct.CompAtom* %37, i64 %451
  %453 = getelementptr inbounds %struct.CompAtom* %452, i32 0, i32 2
  %454 = load i32* %453, align 4
  %455 = lshr i32 %454, 22
  %456 = and i32 %455, 7
  br label %457

; <label>:457                                     ; preds = %450, %449
  %458 = phi i32 [ 1, %449 ], [ %456, %450 ]
  %459 = getelementptr inbounds i32* %pli.0, i64 0
  store i32 %441, i32* %459, align 4
  %460 = add nsw i32 %441, 1
  %461 = getelementptr inbounds i32* %pli.0, i64 1
  store i32 %460, i32* %461, align 4
  %462 = add nsw i32 %441, 2
  %463 = getelementptr inbounds i32* %pli.0, i64 2
  store i32 %462, i32* %463, align 4
  %464 = add nsw i32 %441, 3
  %465 = getelementptr inbounds i32* %pli.0, i64 3
  store i32 %464, i32* %465, align 4
  %466 = sext i32 %458 to i64
  %467 = getelementptr inbounds i32* %pli.0, i64 %466
  br label %468

; <label>:468                                     ; preds = %457
  %469 = add nsw i32 %h.0, 1
  br label %436

; <label>:470                                     ; preds = %436
  br label %471

; <label>:471                                     ; preds = %470, %374
  %pli.1 = phi i32* [ %pli.0, %470 ], [ %365, %374 ]
  %472 = ptrtoint i32* %pli.1 to i64
  %473 = ptrtoint i32* %208 to i64
  %474 = sub i64 %472, %473
  %475 = sdiv exact i64 %474, 4
  %476 = trunc i64 %475 to i32
  %477 = icmp ne i32 %476, 0
  br i1 %477, label %478, label %485

; <label>:478                                     ; preds = %471
  %479 = sub nsw i32 %476, 1
  %480 = sext i32 %479 to i64
  %481 = getelementptr inbounds i32* %208, i64 %480
  %482 = load i32* %481, align 4
  %483 = sext i32 %476 to i64
  %484 = getelementptr inbounds i32* %208, i64 %483
  store i32 %482, i32* %484, align 4
  br label %501

; <label>:485                                     ; preds = %471
  %486 = getelementptr inbounds %struct.CompAtom* %294, i32 0, i32 2
  %487 = load i32* %486, align 4
  %488 = lshr i32 %487, 25
  %489 = and i32 %488, 1
