; ModuleID = 'spxsteeppr.cc'
target datalayout = "e-m:e-i64:64-f80:128-n8:16:32:64-S128"
target triple = "x86_64-unknown-linux-gnu"

%"class.std::ios_base::Init" = type { i8 }
%"class.std::basic_ostream" = type { i32 (...)**, %"class.std::basic_ios" }
%"class.std::basic_ios" = type { %"class.std::ios_base", %"class.std::basic_ostream"*, i8, i8, %"class.std::basic_streambuf"*, %"class.std::ctype"*, %"class.std::num_put"*, %"class.std::num_get"* }
%"class.std::ios_base" = type { i32 (...)**, i64, i64, i32, i32, i32, %"struct.std::ios_base::_Callback_list"*, %"struct.std::ios_base::_Words", [8 x %"struct.std::ios_base::_Words"], i32, %"struct.std::ios_base::_Words"*, %"class.std::locale" }
%"struct.std::ios_base::_Callback_list" = type { %"struct.std::ios_base::_Callback_list"*, void (i32, %"class.std::ios_base"*, i32)*, i32, i32 }
%"struct.std::ios_base::_Words" = type { i8*, i64 }
%"class.std::locale" = type { %"class.std::locale::_Impl"* }
%"class.std::locale::_Impl" = type { i32, %"class.std::locale::facet"**, i64, %"class.std::locale::facet"**, i8** }
%"class.std::locale::facet" = type <{ i32 (...)**, i32, [4 x i8] }>
%"class.std::basic_streambuf" = type { i32 (...)**, i8*, i8*, i8*, i8*, i8*, i8*, %"class.std::locale" }
%"class.std::ctype" = type <{ %"class.std::locale::facet.base", [4 x i8], %struct.__locale_struct*, i8, [7 x i8], i32*, i32*, i16*, i8, [256 x i8], [256 x i8], i8, [6 x i8] }>
%"class.std::locale::facet.base" = type <{ i32 (...)**, i32 }>
%struct.__locale_struct = type { [13 x %struct.__locale_data*], i16*, i32*, i32*, [13 x i8*] }
%struct.__locale_data = type opaque
%"class.std::num_put" = type { %"class.std::locale::facet.base", [4 x i8] }
%"class.std::num_get" = type { %"class.std::locale::facet.base", [4 x i8] }
%"class.soplex::SPxSteepPR" = type { %"class.soplex::SPxPricer", %"class.soplex::DVector", %"class.soplex::DVector", %"class.soplex::DVector", %"class.soplex::SSVector", i32, %"class.soplex::SPxId", double, i32, %"class.soplex::DataArray.3", %"class.soplex::DataArray.3", %"class.soplex::DataArray.3", i32, double }
%"class.soplex::SPxPricer" = type { i32 (...)**, i8*, %"class.soplex::SoPlex"*, double }
%"class.soplex::SoPlex" = type { %"class.soplex::SPxLP.base", %"class.soplex::SPxBasis", i32, i32, i32, %"class.soplex::Timer", i32, double, double, i32, double, double, double, i32, i32, i8, %"class.soplex::Vector"*, %"class.soplex::SSVector"*, %"class.soplex::Vector"*, %"class.soplex::SSVector"*, double, %"class.soplex::Array", %"class.soplex::SVSet"*, %"class.soplex::SVSet"*, i32, i32, %"class.soplex::DVector", %"class.soplex::UpdateVector", %"class.soplex::DVector", %"class.soplex::UpdateVector", %"class.soplex::UpdateVector", %"class.soplex::DVector", %"class.soplex::DVector", %"class.soplex::DVector", %"class.soplex::DVector", %"class.soplex::DVector", %"class.soplex::DVector", %"class.soplex::DVector"*, %"class.soplex::UpdateVector"*, %"class.soplex::DVector"*, %"class.soplex::UpdateVector"*, %"class.soplex::UpdateVector"*, %"class.soplex::UpdateVector"*, %"class.soplex::UpdateVector"*, %"class.soplex::DVector"*, %"class.soplex::DVector"*, %"class.soplex::DVector"*, %"class.soplex::DVector"*, %"class.soplex::DVector", %"class.soplex::DVector", i32, i32, %"class.soplex::SPxPricer"*, %"class.soplex::SPxRatioTester"*, %"class.soplex::SPxStarter"*, %"class.soplex::SPxScaler"*, %"class.soplex::SPxSimplifier"* }
%"class.soplex::SPxLP.base" = type <{ i32 (...)**, %"class.soplex::LPRowSet", %"class.soplex::LPColSet", i32 }>
%"class.soplex::LPRowSet" = type { %"class.soplex::SVSet", %"class.soplex::DVector", %"class.soplex::DVector" }
%"class.soplex::SVSet" = type { %"class.soplex::DataArray", %"class.soplex::DataSet", %"class.soplex::IdList", double, double* }
%"class.soplex::DataArray" = type { i32, i32, %"struct.soplex::SVector::Element"*, double }
%"struct.soplex::SVector::Element" = type { double, i32 }
%"class.soplex::DataSet" = type { %"struct.soplex::DataSet<soplex::SVSet::DLPSV>::Item"*, %"class.soplex::DataKey"*, i32, i32, i32, i32 }
%"struct.soplex::DataSet<soplex::SVSet::DLPSV>::Item" = type <{ %"class.soplex::SVSet::DLPSV", i32, [4 x i8] }>
%"class.soplex::SVSet::DLPSV" = type { %"class.soplex::SVector", %"class.soplex::SVSet::DLPSV"*, %"class.soplex::SVSet::DLPSV"* }
%"class.soplex::SVector" = type { %"struct.soplex::SVector::Element"* }
%"class.soplex::DataKey" = type { i32 }
%"class.soplex::IdList" = type { %"class.soplex::IsList" }
%"class.soplex::IsList" = type { %"class.soplex::SVSet::DLPSV"*, %"class.soplex::SVSet::DLPSV"* }
%"class.soplex::LPColSet" = type { %"class.soplex::SVSet", %"class.soplex::DVector", %"class.soplex::DVector", %"class.soplex::DVector" }
%"class.soplex::SPxBasis" = type { i32 (...)**, %"class.soplex::SoPlex"*, %"class.soplex::DataArray.0", %"class.soplex::DataArray.1", i8, %"class.soplex::SLinSolver"*, i8, i32, double, i32, i32, i32, double, double, %"class.soplex::SPxId", %"class.soplex::SPxId", i32, i32, %"class.soplex::SPxBasis::Desc" }
%"class.soplex::DataArray.0" = type { i32, i32, %"class.soplex::SPxId"*, double }
%"class.soplex::DataArray.1" = type { i32, i32, %"class.soplex::SVector"**, double }
%"class.soplex::SLinSolver" = type { i32 (...)** }
%"class.soplex::SPxBasis::Desc" = type { %"class.soplex::DataArray.2", %"class.soplex::DataArray.2", %"class.soplex::DataArray.2"*, %"class.soplex::DataArray.2"* }
%"class.soplex::DataArray.2" = type { i32, i32, i32*, double }
%"class.soplex::Timer" = type { i32, i64, i64, i64, i64, i64, i64 }
%"class.soplex::Vector" = type { i32, double* }
%"class.soplex::Array" = type { i32, %"class.soplex::UnitVector"* }
%"class.soplex::UnitVector" = type { %"class.soplex::SVector", %"struct.soplex::SVector::Element", %"struct.soplex::SVector::Element" }
%"class.soplex::UpdateVector" = type { %"class.soplex::DVector", double, %"class.soplex::SSVector" }
%"class.soplex::SPxRatioTester" = type opaque
%"class.soplex::SPxStarter" = type opaque
%"class.soplex::SPxScaler" = type opaque
%"class.soplex::SPxSimplifier" = type opaque
%"class.soplex::DVector" = type { %"class.soplex::Vector", i32, double* }
%"class.soplex::SSVector" = type { %"class.soplex::DVector", %"class.soplex::IdxSet", i8, double }
%"class.soplex::IdxSet" = type { i32, i32, i32* }
%"class.soplex::SPxId" = type { %"class.soplex::DataKey" }
%"class.soplex::DataArray.3" = type { i32, i32, double*, double }
%"class.soplex::SPxLP" = type <{ i32 (...)**, %"class.soplex::LPRowSet", %"class.soplex::LPColSet", i32, [4 x i8] }>
%"class.soplex::SPxRowId" = type { %"class.soplex::DataKey" }
%"class.soplex::SPxColId" = type { %"class.soplex::DataKey" }

@_ZStL8__ioinit = internal global %"class.std::ios_base::Init" zeroinitializer, align 1
@__dso_handle = external global i8
@.str = private unnamed_addr constant [22 x i8] c"type == SoPlex::LEAVE\00", align 1
@.str1 = private unnamed_addr constant [14 x i8] c"spxsteeppr.cc\00", align 1
@__PRETTY_FUNCTION__._ZN6soplex10SPxSteepPR7setTypeENS_6SoPlex4TypeE = private unnamed_addr constant [55 x i8] c"virtual void soplex::SPxSteepPR::setType(SoPlex::Type)\00", align 1
@_ZSt4cerr = external global %"class.std::basic_ostream"
@.str2 = private unnamed_addr constant [65 x i8] c"sorry, no exact setup for steepest edge multipliers implemented\0A\00", align 1
@.str3 = private unnamed_addr constant [35 x i8] c"thesolver->type() == SoPlex::LEAVE\00", align 1
@__PRETTY_FUNCTION__._ZN6soplex10SPxSteepPR6left4XEiNS_5SPxIdEii = private unnamed_addr constant [62 x i8] c"void soplex::SPxSteepPR::left4X(int, soplex::SPxId, int, int)\00", align 1
@.str4 = private unnamed_addr constant [44 x i8] c"rhoVec[n] >= theeps || -rhoVec[n] >= theeps\00", align 1
@_ZN6soplex8infinityE = external constant double
@.str5 = private unnamed_addr constant [47 x i8] c"SPxSteepPR::selectLeaveX(): This shall not be!\00", align 1
@.str6 = private unnamed_addr constant [3 x i8] c"i=\00", align 1
@.str7 = private unnamed_addr constant [4 x i8] c" x=\00", align 1
@.str8 = private unnamed_addr constant [19 x i8] c" coPenalty_ptr[i]=\00", align 1
@.str9 = private unnamed_addr constant [9 x i8] c" theeps=\00", align 1
@.str10 = private unnamed_addr constant [15 x i8] c"isConsistent()\00", align 1
@__PRETTY_FUNCTION__._ZN6soplex10SPxSteepPR11selectLeaveEv = private unnamed_addr constant [46 x i8] c"virtual int soplex::SPxSteepPR::selectLeave()\00", align 1
@.str11 = private unnamed_addr constant [35 x i8] c"thesolver->type() == SoPlex::ENTER\00", align 1
@__PRETTY_FUNCTION__._ZN6soplex10SPxSteepPR9entered4XENS_5SPxIdEiiiii = private unnamed_addr constant [75 x i8] c"void soplex::SPxSteepPR::entered4X(soplex::SPxId, int, int, int, int, int)\00", align 1
@.str12 = private unnamed_addr constant [108 x i8] c"thesolver->fVec().delta()[n] > thesolver->epsilon() || thesolver->fVec().delta()[n] < -thesolver->epsilon()\00", align 1
@__PRETTY_FUNCTION__._ZN6soplex10SPxSteepPR12selectEnterXERdiiii = private unnamed_addr constant [75 x i8] c"soplex::SPxId soplex::SPxSteepPR::selectEnterX(Real &, int, int, int, int)\00", align 1
@.str13 = private unnamed_addr constant [15 x i8] c"thesolver != 0\00", align 1
@__PRETTY_FUNCTION__._ZN6soplex10SPxSteepPR10removedVecEi = private unnamed_addr constant [49 x i8] c"virtual void soplex::SPxSteepPR::removedVec(int)\00", align 1
@__PRETTY_FUNCTION__._ZN6soplex10SPxSteepPR11removedVecsEPKi = private unnamed_addr constant [58 x i8] c"virtual void soplex::SPxSteepPR::removedVecs(const int *)\00", align 1
@__PRETTY_FUNCTION__._ZN6soplex10SPxSteepPR12removedCoVecEi = private unnamed_addr constant [51 x i8] c"virtual void soplex::SPxSteepPR::removedCoVec(int)\00", align 1
@__PRETTY_FUNCTION__._ZN6soplex10SPxSteepPR13removedCoVecsEPKi = private unnamed_addr constant [60 x i8] c"virtual void soplex::SPxSteepPR::removedCoVecs(const int *)\00", align 1
@.str14 = private unnamed_addr constant [3 x i8] c"x[\00", align 1
@.str15 = private unnamed_addr constant [5 x i8] c"] = \00", align 1
@.str16 = private unnamed_addr constant [11 x i8] c"SPxSteepPR\00", align 1
@_ZTVN6soplex10SPxSteepPRE = unnamed_addr constant [23 x i8*] [i8* null, i8* bitcast ({ i8*, i8*, i8* }* @_ZTIN6soplex10SPxSteepPRE to i8*), i8* bitcast (i8* (%"class.soplex::SPxPricer"*)* @_ZNK6soplex9SPxPricer7getNameEv to i8*), i8* bitcast (void (%"class.soplex::SPxSteepPR"*, %"class.soplex::SoPlex"*)* @_ZN6soplex10SPxSteepPR4loadEPNS_6SoPlexE to i8*), i8* bitcast (void (%"class.soplex::SPxSteepPR"*)* @_ZN6soplex10SPxSteepPR5clearEv to i8*), i8* bitcast (%"class.soplex::SoPlex"* (%"class.soplex::SPxPricer"*)* @_ZNK6soplex9SPxPricer6solverEv to i8*), i8* bitcast (double (%"class.soplex::SPxPricer"*)* @_ZNK6soplex9SPxPricer7epsilonEv to i8*), i8* bitcast (void (%"class.soplex::SPxPricer"*, double)* @_ZN6soplex9SPxPricer10setEpsilonEd to i8*), i8* bitcast (void (%"class.soplex::SPxSteepPR"*, i32)* @_ZN6soplex10SPxSteepPR7setTypeENS_6SoPlex4TypeE to i8*), i8* bitcast (void (%"class.soplex::SPxSteepPR"*, i32)* @_ZN6soplex10SPxSteepPR6setRepENS_6SoPlex14RepresentationE to i8*), i8* bitcast (i32 (%"class.soplex::SPxSteepPR"*)* @_ZN6soplex10SPxSteepPR11selectLeaveEv to i8*), i8* bitcast (void (%"class.soplex::SPxSteepPR"*, i32, %"class.soplex::SPxId"*)* @_ZN6soplex10SPxSteepPR5left4EiNS_5SPxIdE to i8*), i8* bitcast (void (%"class.soplex::SPxId"*, %"class.soplex::SPxSteepPR"*)* @_ZN6soplex10SPxSteepPR11selectEnterEv to i8*), i8* bitcast (void (%"class.soplex::SPxSteepPR"*, %"class.soplex::SPxId"*, i32)* @_ZN6soplex10SPxSteepPR8entered4ENS_5SPxIdEi to i8*), i8* bitcast (void (%"class.soplex::SPxSteepPR"*, i32)* @_ZN6soplex10SPxSteepPR9addedVecsEi to i8*), i8* bitcast (void (%"class.soplex::SPxSteepPR"*, i32)* @_ZN6soplex10SPxSteepPR11addedCoVecsEi to i8*), i8* bitcast (void (%"class.soplex::SPxSteepPR"*, i32)* @_ZN6soplex10SPxSteepPR10removedVecEi to i8*), i8* bitcast (void (%"class.soplex::SPxSteepPR"*, i32*)* @_ZN6soplex10SPxSteepPR11removedVecsEPKi to i8*), i8* bitcast (void (%"class.soplex::SPxSteepPR"*, i32)* @_ZN6soplex10SPxSteepPR12removedCoVecEi to i8*), i8* bitcast (void (%"class.soplex::SPxSteepPR"*, i32*)* @_ZN6soplex10SPxSteepPR13removedCoVecsEPKi to i8*), i8* bitcast (i1 (%"class.soplex::SPxSteepPR"*)* @_ZNK6soplex10SPxSteepPR12isConsistentEv to i8*), i8* bitcast (void (%"class.soplex::SPxSteepPR"*)* @_ZN6soplex10SPxSteepPRD2Ev to i8*), i8* bitcast (void (%"class.soplex::SPxSteepPR"*)* @_ZN6soplex10SPxSteepPRD0Ev to i8*)], align 8
@_ZTVN10__cxxabiv120__si_class_type_infoE = external global i8*
@_ZTSN6soplex10SPxSteepPRE = constant [22 x i8] c"N6soplex10SPxSteepPRE\00"
@_ZTVN10__cxxabiv117__class_type_infoE = external global i8*
@_ZTSN6soplex9SPxPricerE = linkonce_odr constant [20 x i8] c"N6soplex9SPxPricerE\00"
@_ZTIN6soplex9SPxPricerE = linkonce_odr constant { i8*, i8* } { i8* bitcast (i8** getelementptr inbounds (i8** @_ZTVN10__cxxabiv117__class_type_infoE, i64 2) to i8*), i8* getelementptr inbounds ([20 x i8]* @_ZTSN6soplex9SPxPricerE, i32 0, i32 0) }
@_ZTIN6soplex10SPxSteepPRE = constant { i8*, i8*, i8* } { i8* bitcast (i8** getelementptr inbounds (i8** @_ZTVN10__cxxabiv120__si_class_type_infoE, i64 2) to i8*), i8* getelementptr inbounds ([22 x i8]* @_ZTSN6soplex10SPxSteepPRE, i32 0, i32 0), i8* bitcast ({ i8*, i8* }* @_ZTIN6soplex9SPxPricerE to i8*) }
@.str17 = private unnamed_addr constant [7 x i8] c"n >= 0\00", align 1
@.str18 = private unnamed_addr constant [14 x i8] c"./dataarray.h\00", align 1
@__PRETTY_FUNCTION__._ZN6soplex9DataArrayIdEixEi = private unnamed_addr constant [59 x i8] c"T &soplex::DataArray<double>::operator[](int) [T = double]\00", align 1
@.str19 = private unnamed_addr constant [12 x i8] c"n < thesize\00", align 1
@.str20 = private unnamed_addr constant [15 x i8] c"memFactor >= 1\00", align 1
@__PRETTY_FUNCTION__._ZN6soplex9DataArrayIdE6reSizeEi = private unnamed_addr constant [57 x i8] c"void soplex::DataArray<double>::reSize(int) [T = double]\00", align 1
@.str21 = private unnamed_addr constant [7 x i8] c"p != 0\00", align 1
@.str22 = private unnamed_addr constant [13 x i8] c"./spxalloc.h\00", align 1
@__PRETTY_FUNCTION__._ZN6soplex11spx_reallocIPdEEvRT_i = private unnamed_addr constant [50 x i8] c"void soplex::spx_realloc(T &, int) [T = double *]\00", align 1
@.str23 = private unnamed_addr constant [23 x i8] c"realloc: Out of memory\00", align 1
@.str24 = private unnamed_addr constant [7 x i8] c"p == 0\00", align 1
@__PRETTY_FUNCTION__._ZN6soplex9spx_allocIPdEEvRT_i = private unnamed_addr constant [48 x i8] c"void soplex::spx_alloc(T &, int) [T = double *]\00", align 1
@.str25 = private unnamed_addr constant [22 x i8] c"malloc: Out of memory\00", align 1
@__PRETTY_FUNCTION__._ZN6soplex8spx_freeIPdEEvRT_ = private unnamed_addr constant [42 x i8] c"void soplex::spx_free(T &) [T = double *]\00", align 1
@_ZTVN6soplex9SPxPricerE = linkonce_odr unnamed_addr constant [23 x i8*] [i8* null, i8* bitcast ({ i8*, i8* }* @_ZTIN6soplex9SPxPricerE to i8*), i8* bitcast (i8* (%"class.soplex::SPxPricer"*)* @_ZNK6soplex9SPxPricer7getNameEv to i8*), i8* bitcast (void (%"class.soplex::SPxPricer"*, %"class.soplex::SoPlex"*)* @_ZN6soplex9SPxPricer4loadEPNS_6SoPlexE to i8*), i8* bitcast (void (%"class.soplex::SPxPricer"*)* @_ZN6soplex9SPxPricer5clearEv to i8*), i8* bitcast (%"class.soplex::SoPlex"* (%"class.soplex::SPxPricer"*)* @_ZNK6soplex9SPxPricer6solverEv to i8*), i8* bitcast (double (%"class.soplex::SPxPricer"*)* @_ZNK6soplex9SPxPricer7epsilonEv to i8*), i8* bitcast (void (%"class.soplex::SPxPricer"*, double)* @_ZN6soplex9SPxPricer10setEpsilonEd to i8*), i8* bitcast (void (%"class.soplex::SPxPricer"*, i32)* @_ZN6soplex9SPxPricer7setTypeENS_6SoPlex4TypeE to i8*), i8* bitcast (void (%"class.soplex::SPxPricer"*, i32)* @_ZN6soplex9SPxPricer6setRepENS_6SoPlex14RepresentationE to i8*), i8* bitcast (void ()* @__cxa_pure_virtual to i8*), i8* bitcast (void (%"class.soplex::SPxPricer"*, i32, %"class.soplex::SPxId"*)* @_ZN6soplex9SPxPricer5left4EiNS_5SPxIdE to i8*), i8* bitcast (void ()* @__cxa_pure_virtual to i8*), i8* bitcast (void (%"class.soplex::SPxPricer"*, %"class.soplex::SPxId"*, i32)* @_ZN6soplex9SPxPricer8entered4ENS_5SPxIdEi to i8*), i8* bitcast (void (%"class.soplex::SPxPricer"*, i32)* @_ZN6soplex9SPxPricer9addedVecsEi to i8*), i8* bitcast (void (%"class.soplex::SPxPricer"*, i32)* @_ZN6soplex9SPxPricer11addedCoVecsEi to i8*), i8* bitcast (void (%"class.soplex::SPxPricer"*, i32)* @_ZN6soplex9SPxPricer10removedVecEi to i8*), i8* bitcast (void (%"class.soplex::SPxPricer"*, i32*)* @_ZN6soplex9SPxPricer11removedVecsEPKi to i8*), i8* bitcast (void (%"class.soplex::SPxPricer"*, i32)* @_ZN6soplex9SPxPricer12removedCoVecEi to i8*), i8* bitcast (void (%"class.soplex::SPxPricer"*, i32*)* @_ZN6soplex9SPxPricer13removedCoVecsEPKi to i8*), i8* bitcast (i1 (%"class.soplex::SPxPricer"*)* @_ZNK6soplex9SPxPricer12isConsistentEv to i8*), i8* bitcast (void (%"class.soplex::SPxPricer"*)* @_ZN6soplex9SPxPricerD2Ev to i8*), i8* bitcast (void (%"class.soplex::SPxPricer"*)* @_ZN6soplex9SPxPricerD0Ev to i8*)], align 8
@.str26 = private unnamed_addr constant [11 x i8] c"eps >= 0.0\00", align 1
@.str27 = private unnamed_addr constant [14 x i8] c"./spxpricer.h\00", align 1
@__PRETTY_FUNCTION__._ZN6soplex9SPxPricer10setEpsilonEd = private unnamed_addr constant [49 x i8] c"virtual void soplex::SPxPricer::setEpsilon(Real)\00", align 1
@__PRETTY_FUNCTION__._ZN6soplex8spx_freeIPiEEvRT_ = private unnamed_addr constant [39 x i8] c"void soplex::spx_free(T &) [T = int *]\00", align 1
@.str28 = private unnamed_addr constant [20 x i8] c"n >= 0 && n < dim()\00", align 1
@.str29 = private unnamed_addr constant [11 x i8] c"./vector.h\00", align 1
@__PRETTY_FUNCTION__._ZNK6soplex6VectorixEi = private unnamed_addr constant [43 x i8] c"Real soplex::Vector::operator[](int) const\00", align 1
@__PRETTY_FUNCTION__._ZN6soplex9spx_allocIPiEEvRT_i = private unnamed_addr constant [45 x i8] c"void soplex::spx_alloc(T &, int) [T = int *]\00", align 1
@.str30 = private unnamed_addr constant [11 x i8] c"./idxset.h\00", align 1
@__PRETTY_FUNCTION__._ZN6soplex6IdxSetC2Ev = private unnamed_addr constant [25 x i8] c"soplex::IdxSet::IdxSet()\00", align 1
@.str31 = private unnamed_addr constant [16 x i8] c"type() == ENTER\00", align 1
@.str32 = private unnamed_addr constant [11 x i8] c"./soplex.h\00", align 1
@__PRETTY_FUNCTION__._ZN6soplex6SoPlex13setup4coSolveEPNS_6VectorEPNS_8SSVectorE = private unnamed_addr constant [73 x i8] c"void soplex::SoPlex::setup4coSolve(soplex::Vector *, soplex::SSVector *)\00", align 1
@.str33 = private unnamed_addr constant [15 x i8] c"p_id.isValid()\00", align 1
@__PRETTY_FUNCTION__._ZNK6soplex6SoPlex6vectorERKNS_5SPxIdE = private unnamed_addr constant [75 x i8] c"const soplex::SVector &soplex::SoPlex::vector(const soplex::SPxId &) const\00", align 1
@.str34 = private unnamed_addr constant [14 x i8] c"cid.isValid()\00", align 1
@__PRETTY_FUNCTION__._ZNK6soplex6SoPlex6vectorERKNS_8SPxColIdE = private unnamed_addr constant [78 x i8] c"const soplex::SVector &soplex::SoPlex::vector(const soplex::SPxColId &) const\00", align 1
@.str35 = private unnamed_addr constant [21 x i8] c"n >= 0 && n < size()\00", align 1
@.str36 = private unnamed_addr constant [10 x i8] c"./array.h\00", align 1
@__PRETTY_FUNCTION__._ZNK6soplex5ArrayINS_10UnitVectorEEixEi = private unnamed_addr constant [91 x i8] c"const T &soplex::Array<soplex::UnitVector>::operator[](int) const [T = soplex::UnitVector]\00", align 1
@.str37 = private unnamed_addr constant [11 x i8] c"n < thenum\00", align 1
@.str38 = private unnamed_addr constant [12 x i8] c"./dataset.h\00", align 1
@__PRETTY_FUNCTION__._ZNK6soplex7DataSetINS_5SVSet5DLPSVEEixEi = private unnamed_addr constant [103 x i8] c"const DATA &soplex::DataSet<soplex::SVSet::DLPSV>::operator[](int) const [DATA = soplex::SVSet::DLPSV]\00", align 1
@.str39 = private unnamed_addr constant [14 x i8] c"rid.isValid()\00", align 1
@__PRETTY_FUNCTION__._ZNK6soplex6SoPlex6vectorERKNS_8SPxRowIdE = private unnamed_addr constant [78 x i8] c"const soplex::SVector &soplex::SoPlex::vector(const soplex::SPxRowId &) const\00", align 1
@.str40 = private unnamed_addr constant [20 x i8] c"n >= 0 && n < num()\00", align 1
@__PRETTY_FUNCTION__._ZNK6soplex7DataSetINS_5SVSet5DLPSVEE3keyEi = private unnamed_addr constant [100 x i8] c"soplex::DataKey soplex::DataSet<soplex::SVSet::DLPSV>::key(int) const [DATA = soplex::SVSet::DLPSV]\00", align 1
@__PRETTY_FUNCTION__._ZNK6soplex6SoPlex6coTestEv = private unnamed_addr constant [53 x i8] c"const soplex::Vector &soplex::SoPlex::coTest() const\00", align 1
@__PRETTY_FUNCTION__._ZNK6soplex6SoPlex4testEv = private unnamed_addr constant [51 x i8] c"const soplex::Vector &soplex::SoPlex::test() const\00", align 1
@.str41 = private unnamed_addr constant [16 x i8] c"type() == LEAVE\00", align 1
@__PRETTY_FUNCTION__._ZN6soplex6SoPlex11setup4solveEPNS_6VectorEPNS_8SSVectorE = private unnamed_addr constant [71 x i8] c"void soplex::SoPlex::setup4solve(soplex::Vector *, soplex::SSVector *)\00", align 1
@__PRETTY_FUNCTION__._ZNK6soplex6SoPlex5fTestEv = private unnamed_addr constant [52 x i8] c"const soplex::Vector &soplex::SoPlex::fTest() const\00", align 1
@__PRETTY_FUNCTION__._ZNK6soplex6IdxSet5indexEi = private unnamed_addr constant [37 x i8] c"int soplex::IdxSet::index(int) const\00", align 1
@.str42 = private unnamed_addr constant [14 x i8] c"matrixIsSetup\00", align 1
@.str43 = private unnamed_addr constant [13 x i8] c"./spxbasis.h\00", align 1
@__PRETTY_FUNCTION__._ZNK6soplex8SPxBasis7baseVecEi = private unnamed_addr constant [60 x i8] c"const soplex::SVector &soplex::SPxBasis::baseVec(int) const\00", align 1
@__PRETTY_FUNCTION__._ZNK6soplex9DataArrayIPKNS_7SVectorEEixEi = private unnamed_addr constant [105 x i8] c"const T &soplex::DataArray<const soplex::SVector *>::operator[](int) const [T = const soplex::SVector *]\00", align 1
@__PRETTY_FUNCTION__._ZN6soplex9DataArrayINS_5SPxIdEEixEi = private unnamed_addr constant [73 x i8] c"T &soplex::DataArray<soplex::SPxId>::operator[](int) [T = soplex::SPxId]\00", align 1
@__PRETTY_FUNCTION__._ZN6soplex6VectorixEi = private unnamed_addr constant [38 x i8] c"Real &soplex::Vector::operator[](int)\00", align 1
@llvm.global_ctors = appending global [1 x { i32, void ()*, i8* }] [{ i32, void ()*, i8* } { i32 65535, void ()* @_GLOBAL__sub_I_spxsteeppr.cc, i8* null }]

define internal void @__cxx_global_var_init() section ".text.startup" {
  call void @_ZNSt8ios_base4InitC1Ev(%"class.std::ios_base::Init"* @_ZStL8__ioinit), !dbg !2570
  %1 = call i32 @__cxa_atexit(void (i8*)* bitcast (void (%"class.std::ios_base::Init"*)* @_ZNSt8ios_base4InitD1Ev to void (i8*)*), i8* getelementptr inbounds (%"class.std::ios_base::Init"* @_ZStL8__ioinit, i32 0, i32 0), i8* @__dso_handle) #1, !dbg !2570
  ret void, !dbg !2570
}

declare void @_ZNSt8ios_base4InitC1Ev(%"class.std::ios_base::Init"*) #0

declare void @_ZNSt8ios_base4InitD1Ev(%"class.std::ios_base::Init"*) #0

; Function Attrs: nounwind
declare i32 @__cxa_atexit(void (i8*)*, i8*, i8*) #1

; Function Attrs: nounwind uwtable
define void @_ZN6soplex10SPxSteepPR5clearEv(%"class.soplex::SPxSteepPR"* %this) unnamed_addr #2 align 2 {
  %1 = alloca %"class.soplex::SPxSteepPR"*, align 8
  store %"class.soplex::SPxSteepPR"* %this, %"class.soplex::SPxSteepPR"** %1, align 8
  call void @llvm.dbg.declare(metadata %"class.soplex::SPxSteepPR"** %1, metadata !2571, metadata !2573), !dbg !2574
  %2 = load %"class.soplex::SPxSteepPR"** %1
  %3 = bitcast %"class.soplex::SPxSteepPR"* %2 to %"class.soplex::SPxPricer"*, !dbg !2575
  %4 = getelementptr inbounds %"class.soplex::SPxPricer"* %3, i32 0, i32 2, !dbg !2575
  store %"class.soplex::SoPlex"* null, %"class.soplex::SoPlex"** %4, align 8, !dbg !2575
  %5 = getelementptr inbounds %"class.soplex::SPxSteepPR"* %2, i32 0, i32 8, !dbg !2576
  store i32 0, i32* %5, align 4, !dbg !2576
  ret void, !dbg !2577
}

; Function Attrs: nounwind readnone
declare void @llvm.dbg.declare(metadata, metadata, metadata) #3

; Function Attrs: uwtable
define void @_ZN6soplex10SPxSteepPR4loadEPNS_6SoPlexE(%"class.soplex::SPxSteepPR"* %this, %"class.soplex::SoPlex"* %base) unnamed_addr #4 align 2 {
  %1 = alloca %"class.soplex::SPxSteepPR"*, align 8
  %2 = alloca %"class.soplex::SoPlex"*, align 8
  store %"class.soplex::SPxSteepPR"* %this, %"class.soplex::SPxSteepPR"** %1, align 8
  call void @llvm.dbg.declare(metadata %"class.soplex::SPxSteepPR"** %1, metadata !2578, metadata !2573), !dbg !2579
  store %"class.soplex::SoPlex"* %base, %"class.soplex::SoPlex"** %2, align 8
  call void @llvm.dbg.declare(metadata %"class.soplex::SoPlex"** %2, metadata !2580, metadata !2573), !dbg !2581
  %3 = load %"class.soplex::SPxSteepPR"** %1
  %4 = load %"class.soplex::SoPlex"** %2, align 8, !dbg !2582
  %5 = bitcast %"class.soplex::SPxSteepPR"* %3 to %"class.soplex::SPxPricer"*, !dbg !2583
  %6 = getelementptr inbounds %"class.soplex::SPxPricer"* %5, i32 0, i32 2, !dbg !2583
  store %"class.soplex::SoPlex"* %4, %"class.soplex::SoPlex"** %6, align 8, !dbg !2583
  %7 = load %"class.soplex::SoPlex"** %2, align 8, !dbg !2584
  %8 = icmp ne %"class.soplex::SoPlex"* %7, null, !dbg !2584
  br i1 %8, label %9, label %29, !dbg !2586

; <label>:9                                       ; preds = %0
  %10 = getelementptr inbounds %"class.soplex::SPxSteepPR"* %3, i32 0, i32 3, !dbg !2587
  %11 = bitcast %"class.soplex::DVector"* %10 to %"class.soplex::Vector"*, !dbg !2587
  call void @_ZN6soplex6Vector5clearEv(%"class.soplex::Vector"* %11), !dbg !2587
  %12 = getelementptr inbounds %"class.soplex::SPxSteepPR"* %3, i32 0, i32 3, !dbg !2589
  %13 = load %"class.soplex::SoPlex"** %2, align 8, !dbg !2590
  %14 = call i32 @_ZNK6soplex6SoPlex3dimEv(%"class.soplex::SoPlex"* %13), !dbg !2590
  call void @_ZN6soplex7DVector5reDimEi(%"class.soplex::DVector"* %12, i32 %14), !dbg !2589
  %15 = getelementptr inbounds %"class.soplex::SPxSteepPR"* %3, i32 0, i32 4, !dbg !2591
  call void @_ZN6soplex8SSVector5clearEv(%"class.soplex::SSVector"* %15), !dbg !2591
  %16 = getelementptr inbounds %"class.soplex::SPxSteepPR"* %3, i32 0, i32 4, !dbg !2592
  %17 = load %"class.soplex::SoPlex"** %2, align 8, !dbg !2593
  %18 = call i32 @_ZNK6soplex6SoPlex3dimEv(%"class.soplex::SoPlex"* %17), !dbg !2593
  call void @_ZN6soplex8SSVector5reDimEi(%"class.soplex::SSVector"* %16, i32 %18), !dbg !2592
  %19 = getelementptr inbounds %"class.soplex::SPxSteepPR"* %3, i32 0, i32 11, !dbg !2594
  %20 = load %"class.soplex::SoPlex"** %2, align 8, !dbg !2595
  %21 = call i32 @_ZNK6soplex6SoPlex3dimEv(%"class.soplex::SoPlex"* %20), !dbg !2595
  call void @_ZN6soplex9DataArrayIdE6reSizeEi(%"class.soplex::DataArray.3"* %19, i32 %21), !dbg !2594
  %22 = getelementptr inbounds %"class.soplex::SPxSteepPR"* %3, i32 0, i32 9, !dbg !2596
  %23 = load %"class.soplex::SoPlex"** %2, align 8, !dbg !2597
  %24 = call i32 @_ZNK6soplex6SoPlex3dimEv(%"class.soplex::SoPlex"* %23), !dbg !2597
  call void @_ZN6soplex9DataArrayIdE6reSizeEi(%"class.soplex::DataArray.3"* %22, i32 %24), !dbg !2596
  %25 = getelementptr inbounds %"class.soplex::SPxSteepPR"* %3, i32 0, i32 10, !dbg !2598
  %26 = load %"class.soplex::SoPlex"** %2, align 8, !dbg !2599
  %27 = call i32 @_ZNK6soplex6SoPlex5coDimEv(%"class.soplex::SoPlex"* %26), !dbg !2599
  call void @_ZN6soplex9DataArrayIdE6reSizeEi(%"class.soplex::DataArray.3"* %25, i32 %27), !dbg !2598
  %28 = getelementptr inbounds %"class.soplex::SPxSteepPR"* %3, i32 0, i32 8, !dbg !2600
  store i32 0, i32* %28, align 4, !dbg !2600
  br label %29, !dbg !2601

; <label>:29                                      ; preds = %9, %0
  ret void, !dbg !2602
}

; Function Attrs: nounwind uwtable
define linkonce_odr void @_ZN6soplex6Vector5clearEv(%"class.soplex::Vector"* %this) #2 align 2 {
  %1 = alloca %"class.soplex::Vector"*, align 8
  store %"class.soplex::Vector"* %this, %"class.soplex::Vector"** %1, align 8
  call void @llvm.dbg.declare(metadata %"class.soplex::Vector"** %1, metadata !2603, metadata !2573), !dbg !2604
  %2 = load %"class.soplex::Vector"** %1
  %3 = getelementptr inbounds %"class.soplex::Vector"* %2, i32 0, i32 0, !dbg !2605
  %4 = load i32* %3, align 4, !dbg !2605
  %5 = icmp ne i32 %4, 0, !dbg !2605
  br i1 %5, label %6, label %14, !dbg !2607

; <label>:6                                       ; preds = %0
  %7 = getelementptr inbounds %"class.soplex::Vector"* %2, i32 0, i32 1, !dbg !2608
  %8 = load double** %7, align 8, !dbg !2608
  %9 = bitcast double* %8 to i8*, !dbg !2609
  %10 = getelementptr inbounds %"class.soplex::Vector"* %2, i32 0, i32 0, !dbg !2610
  %11 = load i32* %10, align 4, !dbg !2610
  %12 = sext i32 %11 to i64, !dbg !2610
  %13 = mul i64 %12, 8, !dbg !2610
  call void @llvm.memset.p0i8.i64(i8* %9, i8 0, i64 %13, i32 8, i1 false), !dbg !2609
  br label %14, !dbg !2609

; <label>:14                                      ; preds = %6, %0
  ret void, !dbg !2611
}

declare void @_ZN6soplex7DVector5reDimEi(%"class.soplex::DVector"*, i32) #0

; Function Attrs: nounwind uwtable
define linkonce_odr i32 @_ZNK6soplex6SoPlex3dimEv(%"class.soplex::SoPlex"* %this) #2 align 2 {
  %1 = alloca %"class.soplex::SoPlex"*, align 8
  store %"class.soplex::SoPlex"* %this, %"class.soplex::SoPlex"** %1, align 8
  call void @llvm.dbg.declare(metadata %"class.soplex::SoPlex"** %1, metadata !2612, metadata !2573), !dbg !2614
  %2 = load %"class.soplex::SoPlex"** %1
  %3 = getelementptr inbounds %"class.soplex::SoPlex"* %2, i32 0, i32 23, !dbg !2615
  %4 = load %"class.soplex::SVSet"** %3, align 8, !dbg !2615
  %5 = call i32 @_ZNK6soplex5SVSet3numEv(%"class.soplex::SVSet"* %4), !dbg !2615
  ret i32 %5, !dbg !2616
}

declare void @_ZN6soplex8SSVector5clearEv(%"class.soplex::SSVector"*) #0

declare void @_ZN6soplex8SSVector5reDimEi(%"class.soplex::SSVector"*, i32) #0

; Function Attrs: uwtable
define linkonce_odr void @_ZN6soplex9DataArrayIdE6reSizeEi(%"class.soplex::DataArray.3"* %this, i32 %newsize) #4 align 2 {
  %1 = alloca %"class.soplex::DataArray.3"*, align 8
  %2 = alloca i32, align 4
  store %"class.soplex::DataArray.3"* %this, %"class.soplex::DataArray.3"** %1, align 8
  call void @llvm.dbg.declare(metadata %"class.soplex::DataArray.3"** %1, metadata !2617, metadata !2573), !dbg !2619
  store i32 %newsize, i32* %2, align 4
  call void @llvm.dbg.declare(metadata i32* %2, metadata !2620, metadata !2573), !dbg !2622
  %3 = load %"class.soplex::DataArray.3"** %1
  %4 = getelementptr inbounds %"class.soplex::DataArray.3"* %3, i32 0, i32 3, !dbg !2623
  %5 = load double* %4, align 8, !dbg !2623
  %6 = fcmp oge double %5, 1.000000e+00, !dbg !2623
  br i1 %6, label %7, label %8, !dbg !2623

; <label>:7                                       ; preds = %0
  br label %10, !dbg !2624

; <label>:8                                       ; preds = %0
  call void @__assert_fail(i8* getelementptr inbounds ([15 x i8]* @.str20, i32 0, i32 0), i8* getelementptr inbounds ([14 x i8]* @.str18, i32 0, i32 0), i32 207, i8* getelementptr inbounds ([57 x i8]* @__PRETTY_FUNCTION__._ZN6soplex9DataArrayIdE6reSizeEi, i32 0, i32 0)) #11, !dbg !2626
  unreachable, !dbg !2626
                                                  ; No predecessors!
  br label %10, !dbg !2623

; <label>:10                                      ; preds = %9, %7
  %11 = load i32* %2, align 4, !dbg !2628
  %12 = getelementptr inbounds %"class.soplex::DataArray.3"* %3, i32 0, i32 1, !dbg !2630
  %13 = load i32* %12, align 4, !dbg !2630
  %14 = icmp sgt i32 %11, %13, !dbg !2628
  br i1 %14, label %15, label %24, !dbg !2631

; <label>:15                                      ; preds = %10
  %16 = getelementptr inbounds %"class.soplex::DataArray.3"* %3, i32 0, i32 3, !dbg !2632
  %17 = load double* %16, align 8, !dbg !2632
  %18 = load i32* %2, align 4, !dbg !2633
  %19 = sitofp i32 %18 to double, !dbg !2633
  %20 = fmul double %17, %19, !dbg !2632
  %21 = fptosi double %20 to i32, !dbg !2632
  %22 = load i32* %2, align 4, !dbg !2634
  %23 = call i64 @_ZN6soplex9DataArrayIdE5reMaxEii(%"class.soplex::DataArray.3"* %3, i32 %21, i32 %22), !dbg !2635
  br label %33, !dbg !2635

; <label>:24                                      ; preds = %10
  %25 = load i32* %2, align 4, !dbg !2636
  %26 = icmp slt i32 %25, 0, !dbg !2636
  br i1 %26, label %27, label %29, !dbg !2638

; <label>:27                                      ; preds = %24
  %28 = getelementptr inbounds %"class.soplex::DataArray.3"* %3, i32 0, i32 0, !dbg !2639
  store i32 0, i32* %28, align 4, !dbg !2639
  br label %32, !dbg !2639

; <label>:29                                      ; preds = %24
  %30 = load i32* %2, align 4, !dbg !2640
  %31 = getelementptr inbounds %"class.soplex::DataArray.3"* %3, i32 0, i32 0, !dbg !2641
  store i32 %30, i32* %31, align 4, !dbg !2641
  br label %32

; <label>:32                                      ; preds = %29, %27
  br label %33

; <label>:33                                      ; preds = %32, %15
  ret void, !dbg !2642
}

; Function Attrs: nounwind uwtable
define linkonce_odr i32 @_ZNK6soplex6SoPlex5coDimEv(%"class.soplex::SoPlex"* %this) #2 align 2 {
  %1 = alloca %"class.soplex::SoPlex"*, align 8
  store %"class.soplex::SoPlex"* %this, %"class.soplex::SoPlex"** %1, align 8
  call void @llvm.dbg.declare(metadata %"class.soplex::SoPlex"** %1, metadata !2643, metadata !2573), !dbg !2644
  %2 = load %"class.soplex::SoPlex"** %1
  %3 = getelementptr inbounds %"class.soplex::SoPlex"* %2, i32 0, i32 22, !dbg !2645
  %4 = load %"class.soplex::SVSet"** %3, align 8, !dbg !2645
  %5 = call i32 @_ZNK6soplex5SVSet3numEv(%"class.soplex::SVSet"* %4), !dbg !2645
  ret i32 %5, !dbg !2646
}

; Function Attrs: uwtable
define void @_ZN6soplex10SPxSteepPR7setTypeENS_6SoPlex4TypeE(%"class.soplex::SPxSteepPR"* %this, i32 %type) unnamed_addr #4 align 2 {
  %1 = alloca %"class.soplex::SPxSteepPR"*, align 8
  %2 = alloca i32, align 4
  %i = alloca i32, align 4
  %id = alloca %"class.soplex::SPxId", align 4
  %n = alloca i32, align 4
  %3 = alloca %"class.soplex::SPxId", align 4
  store %"class.soplex::SPxSteepPR"* %this, %"class.soplex::SPxSteepPR"** %1, align 8
  call void @llvm.dbg.declare(metadata %"class.soplex::SPxSteepPR"** %1, metadata !2647, metadata !2573), !dbg !2648
  store i32 %type, i32* %2, align 4
  call void @llvm.dbg.declare(metadata i32* %2, metadata !2649, metadata !2573), !dbg !2650
  %4 = load %"class.soplex::SPxSteepPR"** %1
  call void @llvm.dbg.declare(metadata i32* %i, metadata !2651, metadata !2573), !dbg !2652
  %5 = bitcast %"class.soplex::SPxSteepPR"* %4 to %"class.soplex::SPxPricer"*, !dbg !2653
  %6 = getelementptr inbounds %"class.soplex::SPxPricer"* %5, i32 0, i32 2, !dbg !2653
  %7 = load %"class.soplex::SoPlex"** %6, align 8, !dbg !2653
  %8 = call double @_ZNK6soplex6SoPlex7epsilonEv(%"class.soplex::SoPlex"* %7), !dbg !2653
  %9 = getelementptr inbounds %"class.soplex::SPxSteepPR"* %4, i32 0, i32 4, !dbg !2654
  %10 = getelementptr inbounds %"class.soplex::SSVector"* %9, i32 0, i32 3, !dbg !2654
  store double %8, double* %10, align 8, !dbg !2654
  %11 = getelementptr inbounds %"class.soplex::SPxSteepPR"* %4, i32 0, i32 10, !dbg !2655
  %12 = bitcast %"class.soplex::SPxSteepPR"* %4 to %"class.soplex::SPxPricer"*, !dbg !2656
  %13 = getelementptr inbounds %"class.soplex::SPxPricer"* %12, i32 0, i32 2, !dbg !2656
  %14 = load %"class.soplex::SoPlex"** %13, align 8, !dbg !2656
  %15 = call i32 @_ZNK6soplex6SoPlex5coDimEv(%"class.soplex::SoPlex"* %14), !dbg !2656
  call void @_ZN6soplex9DataArrayIdE6reSizeEi(%"class.soplex::DataArray.3"* %11, i32 %15), !dbg !2655
  %16 = getelementptr inbounds %"class.soplex::SPxSteepPR"* %4, i32 0, i32 9, !dbg !2657
  %17 = bitcast %"class.soplex::SPxSteepPR"* %4 to %"class.soplex::SPxPricer"*, !dbg !2658
  %18 = getelementptr inbounds %"class.soplex::SPxPricer"* %17, i32 0, i32 2, !dbg !2658
  %19 = load %"class.soplex::SoPlex"** %18, align 8, !dbg !2658
  %20 = call i32 @_ZNK6soplex6SoPlex3dimEv(%"class.soplex::SoPlex"* %19), !dbg !2658
  call void @_ZN6soplex9DataArrayIdE6reSizeEi(%"class.soplex::DataArray.3"* %16, i32 %20), !dbg !2657
  %21 = load i32* %2, align 4, !dbg !2659
  call void @_ZN6soplex10SPxSteepPR10setupPrefsENS_6SoPlex4TypeE(%"class.soplex::SPxSteepPR"* %4, i32 %21), !dbg !2660
  %22 = getelementptr inbounds %"class.soplex::SPxSteepPR"* %4, i32 0, i32 12, !dbg !2661
  %23 = load i32* %22, align 4, !dbg !2661
  %24 = icmp eq i32 %23, 1, !dbg !2661
  br i1 %24, label %25, label %151, !dbg !2663

; <label>:25                                      ; preds = %0
  %26 = load i32* %2, align 4, !dbg !2664
  %27 = icmp eq i32 %26, -1, !dbg !2664
  br i1 %27, label %28, label %73, !dbg !2667

; <label>:28                                      ; preds = %25
  %29 = getelementptr inbounds %"class.soplex::SPxSteepPR"* %4, i32 0, i32 2, !dbg !2668
  %30 = bitcast %"class.soplex::SPxSteepPR"* %4 to %"class.soplex::SPxPricer"*, !dbg !2670
  %31 = getelementptr inbounds %"class.soplex::SPxPricer"* %30, i32 0, i32 2, !dbg !2670
  %32 = load %"class.soplex::SoPlex"** %31, align 8, !dbg !2670
  %33 = call i32 @_ZNK6soplex6SoPlex3dimEv(%"class.soplex::SoPlex"* %32), !dbg !2670
  call void @_ZN6soplex7DVector5reDimEi(%"class.soplex::DVector"* %29, i32 %33), !dbg !2668
  %34 = bitcast %"class.soplex::SPxSteepPR"* %4 to %"class.soplex::SPxPricer"*, !dbg !2671
  %35 = getelementptr inbounds %"class.soplex::SPxPricer"* %34, i32 0, i32 2, !dbg !2671
  %36 = load %"class.soplex::SoPlex"** %35, align 8, !dbg !2671
  %37 = call i32 @_ZNK6soplex6SoPlex3dimEv(%"class.soplex::SoPlex"* %36), !dbg !2671
  %38 = sub nsw i32 %37, 1, !dbg !2671
  store i32 %38, i32* %i, align 4, !dbg !2673
  br label %39, !dbg !2673

; <label>:39                                      ; preds = %47, %28
  %40 = load i32* %i, align 4, !dbg !2674
  %41 = icmp sge i32 %40, 0, !dbg !2674
  br i1 %41, label %42, label %50, !dbg !2678

; <label>:42                                      ; preds = %39
  %43 = getelementptr inbounds %"class.soplex::SPxSteepPR"* %4, i32 0, i32 2, !dbg !2679
  %44 = bitcast %"class.soplex::DVector"* %43 to %"class.soplex::Vector"*, !dbg !2679
  %45 = load i32* %i, align 4, !dbg !2680
  %46 = call dereferenceable(8) double* @_ZN6soplex6VectorixEi(%"class.soplex::Vector"* %44, i32 %45), !dbg !2679
  store double 2.000000e+00, double* %46, !dbg !2679
  br label %47, !dbg !2679

; <label>:47                                      ; preds = %42
  %48 = load i32* %i, align 4, !dbg !2681
  %49 = add nsw i32 %48, -1, !dbg !2681
  store i32 %49, i32* %i, align 4, !dbg !2681
  br label %39, !dbg !2682

; <label>:50                                      ; preds = %39
  %51 = getelementptr inbounds %"class.soplex::SPxSteepPR"* %4, i32 0, i32 1, !dbg !2683
  %52 = bitcast %"class.soplex::SPxSteepPR"* %4 to %"class.soplex::SPxPricer"*, !dbg !2684
  %53 = getelementptr inbounds %"class.soplex::SPxPricer"* %52, i32 0, i32 2, !dbg !2684
  %54 = load %"class.soplex::SoPlex"** %53, align 8, !dbg !2684
  %55 = call i32 @_ZNK6soplex6SoPlex5coDimEv(%"class.soplex::SoPlex"* %54), !dbg !2684
  call void @_ZN6soplex7DVector5reDimEi(%"class.soplex::DVector"* %51, i32 %55), !dbg !2683
  %56 = bitcast %"class.soplex::SPxSteepPR"* %4 to %"class.soplex::SPxPricer"*, !dbg !2685
  %57 = getelementptr inbounds %"class.soplex::SPxPricer"* %56, i32 0, i32 2, !dbg !2685
  %58 = load %"class.soplex::SoPlex"** %57, align 8, !dbg !2685
  %59 = call i32 @_ZNK6soplex6SoPlex5coDimEv(%"class.soplex::SoPlex"* %58), !dbg !2685
  %60 = sub nsw i32 %59, 1, !dbg !2685
  store i32 %60, i32* %i, align 4, !dbg !2687
  br label %61, !dbg !2687

; <label>:61                                      ; preds = %69, %50
  %62 = load i32* %i, align 4, !dbg !2688
  %63 = icmp sge i32 %62, 0, !dbg !2688
  br i1 %63, label %64, label %72, !dbg !2692

; <label>:64                                      ; preds = %61
  %65 = getelementptr inbounds %"class.soplex::SPxSteepPR"* %4, i32 0, i32 1, !dbg !2693
  %66 = bitcast %"class.soplex::DVector"* %65 to %"class.soplex::Vector"*, !dbg !2693
  %67 = load i32* %i, align 4, !dbg !2694
  %68 = call dereferenceable(8) double* @_ZN6soplex6VectorixEi(%"class.soplex::Vector"* %66, i32 %67), !dbg !2693
  store double 1.000000e+00, double* %68, !dbg !2693
  br label %69, !dbg !2693

; <label>:69                                      ; preds = %64
  %70 = load i32* %i, align 4, !dbg !2695
  %71 = add nsw i32 %70, -1, !dbg !2695
  store i32 %71, i32* %i, align 4, !dbg !2695
  br label %61, !dbg !2696

; <label>:72                                      ; preds = %61
  br label %150, !dbg !2697

; <label>:73                                      ; preds = %25
  %74 = load i32* %2, align 4, !dbg !2698
  %75 = icmp eq i32 %74, 1, !dbg !2698
  br i1 %75, label %76, label %77, !dbg !2698

; <label>:76                                      ; preds = %73
  br label %79, !dbg !2700

; <label>:77                                      ; preds = %73
  call void @__assert_fail(i8* getelementptr inbounds ([22 x i8]* @.str, i32 0, i32 0), i8* getelementptr inbounds ([14 x i8]* @.str1, i32 0, i32 0), i32 85, i8* getelementptr inbounds ([55 x i8]* @__PRETTY_FUNCTION__._ZN6soplex10SPxSteepPR7setTypeENS_6SoPlex4TypeE, i32 0, i32 0)) #11, !dbg !2702
  unreachable, !dbg !2702
                                                  ; No predecessors!
  br label %79, !dbg !2698

; <label>:79                                      ; preds = %78, %76
  %80 = getelementptr inbounds %"class.soplex::SPxSteepPR"* %4, i32 0, i32 2, !dbg !2704
  %81 = bitcast %"class.soplex::SPxSteepPR"* %4 to %"class.soplex::SPxPricer"*, !dbg !2705
  %82 = getelementptr inbounds %"class.soplex::SPxPricer"* %81, i32 0, i32 2, !dbg !2705
  %83 = load %"class.soplex::SoPlex"** %82, align 8, !dbg !2705
  %84 = call i32 @_ZNK6soplex6SoPlex3dimEv(%"class.soplex::SoPlex"* %83), !dbg !2705
  call void @_ZN6soplex7DVector5reDimEi(%"class.soplex::DVector"* %80, i32 %84), !dbg !2704
  %85 = bitcast %"class.soplex::SPxSteepPR"* %4 to %"class.soplex::SPxPricer"*, !dbg !2706
  %86 = getelementptr inbounds %"class.soplex::SPxPricer"* %85, i32 0, i32 2, !dbg !2706
  %87 = load %"class.soplex::SoPlex"** %86, align 8, !dbg !2706
  %88 = call i32 @_ZNK6soplex6SoPlex3dimEv(%"class.soplex::SoPlex"* %87), !dbg !2706
  %89 = sub nsw i32 %88, 1, !dbg !2706
  store i32 %89, i32* %i, align 4, !dbg !2708
  br label %90, !dbg !2708

; <label>:90                                      ; preds = %146, %79
  %91 = load i32* %i, align 4, !dbg !2709
  %92 = icmp sge i32 %91, 0, !dbg !2709
  br i1 %92, label %93, label %149, !dbg !2713

; <label>:93                                      ; preds = %90
  call void @llvm.dbg.declare(metadata %"class.soplex::SPxId"* %id, metadata !2714, metadata !2573), !dbg !2716
  %94 = bitcast %"class.soplex::SPxSteepPR"* %4 to %"class.soplex::SPxPricer"*, !dbg !2717
  %95 = getelementptr inbounds %"class.soplex::SPxPricer"* %94, i32 0, i32 2, !dbg !2717
  %96 = load %"class.soplex::SoPlex"** %95, align 8, !dbg !2717
  %97 = call dereferenceable(208) %"class.soplex::SPxBasis"* @_ZN6soplex6SoPlex5basisEv(%"class.soplex::SoPlex"* %96), !dbg !2717
  %98 = load i32* %i, align 4, !dbg !2718
  %99 = call dereferenceable(4) %"class.soplex::SPxId"* @_ZN6soplex8SPxBasis6baseIdEi(%"class.soplex::SPxBasis"* %97, i32 %98), !dbg !2717
  call void @_ZN6soplex5SPxIdC2ERKS0_(%"class.soplex::SPxId"* %id, %"class.soplex::SPxId"* dereferenceable(4) %99), !dbg !2716
  call void @llvm.dbg.declare(metadata i32* %n, metadata !2719, metadata !2573), !dbg !2720
  %100 = bitcast %"class.soplex::SPxSteepPR"* %4 to %"class.soplex::SPxPricer"*, !dbg !2721
  %101 = getelementptr inbounds %"class.soplex::SPxPricer"* %100, i32 0, i32 2, !dbg !2721
  %102 = load %"class.soplex::SoPlex"** %101, align 8, !dbg !2721
  %103 = bitcast %"class.soplex::SoPlex"* %102 to %"class.soplex::SPxLP"*, !dbg !2721
  %104 = call i32 @_ZNK6soplex5SPxLP6numberERKNS_5SPxIdE(%"class.soplex::SPxLP"* %103, %"class.soplex::SPxId"* dereferenceable(4) %id), !dbg !2721
  store i32 %104, i32* %n, align 4, !dbg !2720
  %105 = bitcast %"class.soplex::SPxSteepPR"* %4 to %"class.soplex::SPxPricer"*, !dbg !2722
  %106 = getelementptr inbounds %"class.soplex::SPxPricer"* %105, i32 0, i32 2, !dbg !2722
  %107 = load %"class.soplex::SoPlex"** %106, align 8, !dbg !2722
  call void @_ZN6soplex5SPxIdC2ERKS0_(%"class.soplex::SPxId"* %3, %"class.soplex::SPxId"* dereferenceable(4) %id), !dbg !2722
  %108 = call i32 @_ZNK6soplex6SoPlex4isIdENS_5SPxIdE(%"class.soplex::SoPlex"* %107, %"class.soplex::SPxId"* %3), !dbg !2722
  %109 = icmp ne i32 %108, 0, !dbg !2722
  br i1 %109, label %110, label %118, !dbg !2724

; <label>:110                                     ; preds = %93
  %111 = getelementptr inbounds %"class.soplex::SPxSteepPR"* %4, i32 0, i32 10, !dbg !2725
  %112 = load i32* %n, align 4, !dbg !2726
  %113 = call dereferenceable(8) double* @_ZN6soplex9DataArrayIdEixEi(%"class.soplex::DataArray.3"* %111, i32 %112), !dbg !2725
  %114 = load double* %113, !dbg !2725
  %115 = getelementptr inbounds %"class.soplex::SPxSteepPR"* %4, i32 0, i32 11, !dbg !2727
  %116 = load i32* %i, align 4, !dbg !2728
  %117 = call dereferenceable(8) double* @_ZN6soplex9DataArrayIdEixEi(%"class.soplex::DataArray.3"* %115, i32 %116), !dbg !2727
  store double %114, double* %117, !dbg !2727
  br label %126, !dbg !2727

; <label>:118                                     ; preds = %93
  %119 = getelementptr inbounds %"class.soplex::SPxSteepPR"* %4, i32 0, i32 9, !dbg !2729
  %120 = load i32* %n, align 4, !dbg !2730
  %121 = call dereferenceable(8) double* @_ZN6soplex9DataArrayIdEixEi(%"class.soplex::DataArray.3"* %119, i32 %120), !dbg !2729
  %122 = load double* %121, !dbg !2729
  %123 = getelementptr inbounds %"class.soplex::SPxSteepPR"* %4, i32 0, i32 11, !dbg !2731
  %124 = load i32* %i, align 4, !dbg !2732
  %125 = call dereferenceable(8) double* @_ZN6soplex9DataArrayIdEixEi(%"class.soplex::DataArray.3"* %123, i32 %124), !dbg !2731
  store double %122, double* %125, !dbg !2731
  br label %126

; <label>:126                                     ; preds = %118, %110
  %127 = bitcast %"class.soplex::SPxSteepPR"* %4 to %"class.soplex::SPxPricer"*, !dbg !2733
  %128 = getelementptr inbounds %"class.soplex::SPxPricer"* %127, i32 0, i32 2, !dbg !2733
  %129 = load %"class.soplex::SoPlex"** %128, align 8, !dbg !2733
  %130 = call dereferenceable(208) %"class.soplex::SPxBasis"* @_ZN6soplex6SoPlex5basisEv(%"class.soplex::SoPlex"* %129), !dbg !2733
  %131 = load i32* %i, align 4, !dbg !2734
  %132 = call dereferenceable(8) %"class.soplex::SVector"* @_ZNK6soplex8SPxBasis7baseVecEi(%"class.soplex::SPxBasis"* %130, i32 %131), !dbg !2733
  %133 = call i32 @_ZNK6soplex7SVector4sizeEv(%"class.soplex::SVector"* %132), !dbg !2733
  %134 = sitofp i32 %133 to double, !dbg !2733
  %135 = bitcast %"class.soplex::SPxSteepPR"* %4 to %"class.soplex::SPxPricer"*, !dbg !2735
  %136 = getelementptr inbounds %"class.soplex::SPxPricer"* %135, i32 0, i32 2, !dbg !2735
  %137 = load %"class.soplex::SoPlex"** %136, align 8, !dbg !2735
  %138 = call i32 @_ZNK6soplex6SoPlex3dimEv(%"class.soplex::SoPlex"* %137), !dbg !2735
  %139 = sitofp i32 %138 to double, !dbg !2735
  %140 = fdiv double %134, %139, !dbg !2733
  %141 = fadd double 1.000000e+00, %140, !dbg !2736
  %142 = getelementptr inbounds %"class.soplex::SPxSteepPR"* %4, i32 0, i32 2, !dbg !2737
  %143 = bitcast %"class.soplex::DVector"* %142 to %"class.soplex::Vector"*, !dbg !2737
  %144 = load i32* %i, align 4, !dbg !2738
  %145 = call dereferenceable(8) double* @_ZN6soplex6VectorixEi(%"class.soplex::Vector"* %143, i32 %144), !dbg !2737
  store double %141, double* %145, !dbg !2737
  br label %146, !dbg !2739

; <label>:146                                     ; preds = %126
  %147 = load i32* %i, align 4, !dbg !2740
  %148 = add nsw i32 %147, -1, !dbg !2740
  store i32 %148, i32* %i, align 4, !dbg !2740
  br label %90, !dbg !2741

; <label>:149                                     ; preds = %90
  br label %150

; <label>:150                                     ; preds = %149, %72
  br label %252, !dbg !2742

; <label>:151                                     ; preds = %0
  %152 = call dereferenceable(272) %"class.std::basic_ostream"* @_ZStlsISt11char_traitsIcEERSt13basic_ostreamIcT_ES5_PKc(%"class.std::basic_ostream"* dereferenceable(272) @_ZSt4cerr, i8* getelementptr inbounds ([65 x i8]* @.str2, i32 0, i32 0)), !dbg !2743
  %153 = load i32* %2, align 4, !dbg !2745
  %154 = icmp eq i32 %153, -1, !dbg !2745
  br i1 %154, label %155, label %207, !dbg !2747

; <label>:155                                     ; preds = %151
  %156 = getelementptr inbounds %"class.soplex::SPxSteepPR"* %4, i32 0, i32 2, !dbg !2748
  %157 = bitcast %"class.soplex::SPxSteepPR"* %4 to %"class.soplex::SPxPricer"*, !dbg !2750
  %158 = getelementptr inbounds %"class.soplex::SPxPricer"* %157, i32 0, i32 2, !dbg !2750
  %159 = load %"class.soplex::SoPlex"** %158, align 8, !dbg !2750
  %160 = call i32 @_ZNK6soplex6SoPlex3dimEv(%"class.soplex::SoPlex"* %159), !dbg !2750
  call void @_ZN6soplex7DVector5reDimEi(%"class.soplex::DVector"* %156, i32 %160), !dbg !2748
  %161 = bitcast %"class.soplex::SPxSteepPR"* %4 to %"class.soplex::SPxPricer"*, !dbg !2751
  %162 = getelementptr inbounds %"class.soplex::SPxPricer"* %161, i32 0, i32 2, !dbg !2751
  %163 = load %"class.soplex::SoPlex"** %162, align 8, !dbg !2751
  %164 = call i32 @_ZNK6soplex6SoPlex3dimEv(%"class.soplex::SoPlex"* %163), !dbg !2751
  %165 = sub nsw i32 %164, 1, !dbg !2751
  store i32 %165, i32* %i, align 4, !dbg !2753
  br label %166, !dbg !2753

; <label>:166                                     ; preds = %174, %155
  %167 = load i32* %i, align 4, !dbg !2754
  %168 = icmp sge i32 %167, 0, !dbg !2754
  br i1 %168, label %169, label %177, !dbg !2758

; <label>:169                                     ; preds = %166
  %170 = getelementptr inbounds %"class.soplex::SPxSteepPR"* %4, i32 0, i32 2, !dbg !2759
  %171 = bitcast %"class.soplex::DVector"* %170 to %"class.soplex::Vector"*, !dbg !2759
  %172 = load i32* %i, align 4, !dbg !2760
  %173 = call dereferenceable(8) double* @_ZN6soplex6VectorixEi(%"class.soplex::Vector"* %171, i32 %172), !dbg !2759
  store double 1.000000e+00, double* %173, !dbg !2759
  br label %174, !dbg !2759

; <label>:174                                     ; preds = %169
  %175 = load i32* %i, align 4, !dbg !2761
  %176 = add nsw i32 %175, -1, !dbg !2761
  store i32 %176, i32* %i, align 4, !dbg !2761
  br label %166, !dbg !2762

; <label>:177                                     ; preds = %166
  %178 = getelementptr inbounds %"class.soplex::SPxSteepPR"* %4, i32 0, i32 1, !dbg !2763
  %179 = bitcast %"class.soplex::SPxSteepPR"* %4 to %"class.soplex::SPxPricer"*, !dbg !2764
  %180 = getelementptr inbounds %"class.soplex::SPxPricer"* %179, i32 0, i32 2, !dbg !2764
  %181 = load %"class.soplex::SoPlex"** %180, align 8, !dbg !2764
  %182 = call i32 @_ZNK6soplex6SoPlex5coDimEv(%"class.soplex::SoPlex"* %181), !dbg !2764
  call void @_ZN6soplex7DVector5reDimEi(%"class.soplex::DVector"* %178, i32 %182), !dbg !2763
  %183 = bitcast %"class.soplex::SPxSteepPR"* %4 to %"class.soplex::SPxPricer"*, !dbg !2765
  %184 = getelementptr inbounds %"class.soplex::SPxPricer"* %183, i32 0, i32 2, !dbg !2765
  %185 = load %"class.soplex::SoPlex"** %184, align 8, !dbg !2765
  %186 = call i32 @_ZNK6soplex6SoPlex5coDimEv(%"class.soplex::SoPlex"* %185), !dbg !2765
  %187 = sub nsw i32 %186, 1, !dbg !2765
  store i32 %187, i32* %i, align 4, !dbg !2767
  br label %188, !dbg !2767

; <label>:188                                     ; preds = %203, %177
  %189 = load i32* %i, align 4, !dbg !2768
  %190 = icmp sge i32 %189, 0, !dbg !2768
  br i1 %190, label %191, label %206, !dbg !2772

; <label>:191                                     ; preds = %188
  %192 = bitcast %"class.soplex::SPxSteepPR"* %4 to %"class.soplex::SPxPricer"*, !dbg !2773
  %193 = getelementptr inbounds %"class.soplex::SPxPricer"* %192, i32 0, i32 2, !dbg !2773
  %194 = load %"class.soplex::SoPlex"** %193, align 8, !dbg !2773
  %195 = load i32* %i, align 4, !dbg !2774
  %196 = call dereferenceable(8) %"class.soplex::SVector"* @_ZNK6soplex6SoPlex6vectorEi(%"class.soplex::SoPlex"* %194, i32 %195), !dbg !2773
  %197 = call double @_ZNK6soplex7SVector7length2Ev(%"class.soplex::SVector"* %196), !dbg !2773
  %198 = fadd double 1.000000e+00, %197, !dbg !2775
  %199 = getelementptr inbounds %"class.soplex::SPxSteepPR"* %4, i32 0, i32 1, !dbg !2776
  %200 = bitcast %"class.soplex::DVector"* %199 to %"class.soplex::Vector"*, !dbg !2776
  %201 = load i32* %i, align 4, !dbg !2777
  %202 = call dereferenceable(8) double* @_ZN6soplex6VectorixEi(%"class.soplex::Vector"* %200, i32 %201), !dbg !2776
  store double %198, double* %202, !dbg !2776
  br label %203, !dbg !2776

; <label>:203                                     ; preds = %191
  %204 = load i32* %i, align 4, !dbg !2778
  %205 = add nsw i32 %204, -1, !dbg !2778
  store i32 %205, i32* %i, align 4, !dbg !2778
  br label %188, !dbg !2779

; <label>:206                                     ; preds = %188
  br label %251, !dbg !2780

; <label>:207                                     ; preds = %151
  %208 = load i32* %2, align 4, !dbg !2781
  %209 = icmp eq i32 %208, 1, !dbg !2781
  br i1 %209, label %210, label %211, !dbg !2781

; <label>:210                                     ; preds = %207
  br label %213, !dbg !2783

; <label>:211                                     ; preds = %207
  call void @__assert_fail(i8* getelementptr inbounds ([22 x i8]* @.str, i32 0, i32 0), i8* getelementptr inbounds ([14 x i8]* @.str1, i32 0, i32 0), i32 117, i8* getelementptr inbounds ([55 x i8]* @__PRETTY_FUNCTION__._ZN6soplex10SPxSteepPR7setTypeENS_6SoPlex4TypeE, i32 0, i32 0)) #11, !dbg !2785
  unreachable, !dbg !2785
                                                  ; No predecessors!
  br label %213, !dbg !2781

; <label>:213                                     ; preds = %212, %210
  %214 = getelementptr inbounds %"class.soplex::SPxSteepPR"* %4, i32 0, i32 2, !dbg !2787
  %215 = bitcast %"class.soplex::SPxSteepPR"* %4 to %"class.soplex::SPxPricer"*, !dbg !2788
  %216 = getelementptr inbounds %"class.soplex::SPxPricer"* %215, i32 0, i32 2, !dbg !2788
  %217 = load %"class.soplex::SoPlex"** %216, align 8, !dbg !2788
  %218 = call i32 @_ZNK6soplex6SoPlex3dimEv(%"class.soplex::SoPlex"* %217), !dbg !2788
  call void @_ZN6soplex7DVector5reDimEi(%"class.soplex::DVector"* %214, i32 %218), !dbg !2787
  %219 = bitcast %"class.soplex::SPxSteepPR"* %4 to %"class.soplex::SPxPricer"*, !dbg !2789
  %220 = getelementptr inbounds %"class.soplex::SPxPricer"* %219, i32 0, i32 2, !dbg !2789
  %221 = load %"class.soplex::SoPlex"** %220, align 8, !dbg !2789
  %222 = call i32 @_ZNK6soplex6SoPlex3dimEv(%"class.soplex::SoPlex"* %221), !dbg !2789
  %223 = sub nsw i32 %222, 1, !dbg !2789
  store i32 %223, i32* %i, align 4, !dbg !2791
  br label %224, !dbg !2791

; <label>:224                                     ; preds = %247, %213
  %225 = load i32* %i, align 4, !dbg !2792
  %226 = icmp sge i32 %225, 0, !dbg !2792
  br i1 %226, label %227, label %250, !dbg !2796

; <label>:227                                     ; preds = %224
  %228 = bitcast %"class.soplex::SPxSteepPR"* %4 to %"class.soplex::SPxPricer"*, !dbg !2797
  %229 = getelementptr inbounds %"class.soplex::SPxPricer"* %228, i32 0, i32 2, !dbg !2797
  %230 = load %"class.soplex::SoPlex"** %229, align 8, !dbg !2797
  %231 = call dereferenceable(208) %"class.soplex::SPxBasis"* @_ZN6soplex6SoPlex5basisEv(%"class.soplex::SoPlex"* %230), !dbg !2797
  %232 = load i32* %i, align 4, !dbg !2799
  %233 = call dereferenceable(8) %"class.soplex::SVector"* @_ZNK6soplex8SPxBasis7baseVecEi(%"class.soplex::SPxBasis"* %231, i32 %232), !dbg !2797
  %234 = call i32 @_ZNK6soplex7SVector4sizeEv(%"class.soplex::SVector"* %233), !dbg !2797
  %235 = sitofp i32 %234 to double, !dbg !2797
  %236 = bitcast %"class.soplex::SPxSteepPR"* %4 to %"class.soplex::SPxPricer"*, !dbg !2800
  %237 = getelementptr inbounds %"class.soplex::SPxPricer"* %236, i32 0, i32 2, !dbg !2800
  %238 = load %"class.soplex::SoPlex"** %237, align 8, !dbg !2800
  %239 = call i32 @_ZNK6soplex6SoPlex3dimEv(%"class.soplex::SoPlex"* %238), !dbg !2800
  %240 = sitofp i32 %239 to double, !dbg !2800
  %241 = fdiv double %235, %240, !dbg !2797
  %242 = fadd double 1.000000e+00, %241, !dbg !2801
  %243 = getelementptr inbounds %"class.soplex::SPxSteepPR"* %4, i32 0, i32 2, !dbg !2802
  %244 = bitcast %"class.soplex::DVector"* %243 to %"class.soplex::Vector"*, !dbg !2802
  %245 = load i32* %i, align 4, !dbg !2803
  %246 = call dereferenceable(8) double* @_ZN6soplex6VectorixEi(%"class.soplex::Vector"* %244, i32 %245), !dbg !2802
  store double %242, double* %246, !dbg !2802
  br label %247, !dbg !2804

; <label>:247                                     ; preds = %227
  %248 = load i32* %i, align 4, !dbg !2805
  %249 = add nsw i32 %248, -1, !dbg !2805
  store i32 %249, i32* %i, align 4, !dbg !2805
  br label %224, !dbg !2806

; <label>:250                                     ; preds = %224
  br label %251

; <label>:251                                     ; preds = %250, %206
  br label %252

; <label>:252                                     ; preds = %251, %150
  %253 = getelementptr inbounds %"class.soplex::SPxSteepPR"* %4, i32 0, i32 3, !dbg !2807
  %254 = bitcast %"class.soplex::DVector"* %253 to %"class.soplex::Vector"*, !dbg !2807
  call void @_ZN6soplex6Vector5clearEv(%"class.soplex::Vector"* %254), !dbg !2807
  %255 = getelementptr inbounds %"class.soplex::SPxSteepPR"* %4, i32 0, i32 4, !dbg !2808
  call void @_ZN6soplex8SSVector5clearEv(%"class.soplex::SSVector"* %255), !dbg !2808
  ret void, !dbg !2809
}

; Function Attrs: uwtable
define linkonce_odr double @_ZNK6soplex6SoPlex7epsilonEv(%"class.soplex::SoPlex"* %this) #4 align 2 {
  %1 = alloca %"class.soplex::SoPlex"*, align 8
  store %"class.soplex::SoPlex"* %this, %"class.soplex::SoPlex"** %1, align 8
  call void @llvm.dbg.declare(metadata %"class.soplex::SoPlex"** %1, metadata !2810, metadata !2573), !dbg !2811
  %2 = load %"class.soplex::SoPlex"** %1
  %3 = getelementptr inbounds %"class.soplex::SoPlex"* %2, i32 0, i32 27, !dbg !2812
  %4 = call dereferenceable(64) %"class.soplex::SSVector"* @_ZNK6soplex12UpdateVector5deltaEv(%"class.soplex::UpdateVector"* %3), !dbg !2812
  %5 = getelementptr inbounds %"class.soplex::SSVector"* %4, i32 0, i32 3, !dbg !2812
  %6 = load double* %5, align 8, !dbg !2812
  ret double %6, !dbg !2813
}

; Function Attrs: uwtable
define void @_ZN6soplex10SPxSteepPR10setupPrefsENS_6SoPlex4TypeE(%"class.soplex::SPxSteepPR"* %this, i32 %tp) #4 align 2 {
  %1 = alloca %"class.soplex::SPxSteepPR"*, align 8
  %2 = alloca i32, align 4
  %mult = alloca double, align 8
  store %"class.soplex::SPxSteepPR"* %this, %"class.soplex::SPxSteepPR"** %1, align 8
  call void @llvm.dbg.declare(metadata %"class.soplex::SPxSteepPR"** %1, metadata !2814, metadata !2573), !dbg !2815
  store i32 %tp, i32* %2, align 4
  call void @llvm.dbg.declare(metadata i32* %2, metadata !2816, metadata !2573), !dbg !2817
  %3 = load %"class.soplex::SPxSteepPR"** %1
  %4 = load i32* %2, align 4, !dbg !2818
  %5 = getelementptr inbounds %"class.soplex::SPxSteepPR"* %3, i32 0, i32 8, !dbg !2820
  %6 = load i32* %5, align 4, !dbg !2820
  %7 = icmp ne i32 %4, %6, !dbg !2818
  br i1 %7, label %8, label %31, !dbg !2821

; <label>:8                                       ; preds = %0
  call void @llvm.dbg.declare(metadata double* %mult, metadata !2822, metadata !2573), !dbg !2824
  %9 = bitcast %"class.soplex::SPxSteepPR"* %3 to %"class.soplex::SPxPricer"*, !dbg !2825
  %10 = getelementptr inbounds %"class.soplex::SPxPricer"* %9, i32 0, i32 2, !dbg !2825
  %11 = load %"class.soplex::SoPlex"** %10, align 8, !dbg !2825
  %12 = call i32 @_ZNK6soplex6SoPlex3dimEv(%"class.soplex::SoPlex"* %11), !dbg !2825
  %13 = add nsw i32 1, %12, !dbg !2826
  %14 = bitcast %"class.soplex::SPxSteepPR"* %3 to %"class.soplex::SPxPricer"*, !dbg !2827
  %15 = getelementptr inbounds %"class.soplex::SPxPricer"* %14, i32 0, i32 2, !dbg !2827
  %16 = load %"class.soplex::SoPlex"** %15, align 8, !dbg !2827
  %17 = call i32 @_ZNK6soplex6SoPlex5coDimEv(%"class.soplex::SoPlex"* %16), !dbg !2827
  %18 = add nsw i32 %13, %17, !dbg !2826
  %19 = sitofp i32 %18 to double, !dbg !2826
  %20 = fdiv double 1.000000e-08, %19, !dbg !2828
  store double %20, double* %mult, align 8, !dbg !2824
  %21 = load i32* %2, align 4, !dbg !2829
  %22 = icmp eq i32 %21, -1, !dbg !2829
  br i1 %22, label %23, label %26, !dbg !2831

; <label>:23                                      ; preds = %8
  %24 = load double* %mult, align 8, !dbg !2832
  %25 = fsub double -0.000000e+00, %24, !dbg !2833
  call void @_ZN6soplex10SPxSteepPR10setupPrefsEdddddiiii(%"class.soplex::SPxSteepPR"* %3, double %25, double -1.000000e-05, double -1.000000e-05, double 1.000000e+00, double 1.000000e+00, i32 0, i32 0, i32 -1, i32 -1), !dbg !2834
  br label %28, !dbg !2834

; <label>:26                                      ; preds = %8
  %27 = load double* %mult, align 8, !dbg !2835
  call void @_ZN6soplex10SPxSteepPR10setupPrefsEdddddiiii(%"class.soplex::SPxSteepPR"* %3, double %27, double 1.000000e-05, double 1.000000e-05, double 1.000000e+00, double 1.000000e+00, i32 0, i32 0, i32 -1, i32 -1), !dbg !2836
  br label %28

; <label>:28                                      ; preds = %26, %23
  %29 = load i32* %2, align 4, !dbg !2837
  %30 = getelementptr inbounds %"class.soplex::SPxSteepPR"* %3, i32 0, i32 8, !dbg !2838
  store i32 %29, i32* %30, align 4, !dbg !2838
  br label %31, !dbg !2839

; <label>:31                                      ; preds = %28, %0
  ret void, !dbg !2840
}

; Function Attrs: nounwind uwtable
define linkonce_odr dereferenceable(8) double* @_ZN6soplex6VectorixEi(%"class.soplex::Vector"* %this, i32 %n) #2 align 2 {
  %1 = alloca %"class.soplex::Vector"*, align 8
  %2 = alloca i32, align 4
  store %"class.soplex::Vector"* %this, %"class.soplex::Vector"** %1, align 8
  call void @llvm.dbg.declare(metadata %"class.soplex::Vector"** %1, metadata !2841, metadata !2573), !dbg !2842
  store i32 %n, i32* %2, align 4
  call void @llvm.dbg.declare(metadata i32* %2, metadata !2843, metadata !2573), !dbg !2845
  %3 = load %"class.soplex::Vector"** %1
  %4 = load i32* %2, align 4, !dbg !2846
  %5 = icmp sge i32 %4, 0, !dbg !2846
  br i1 %5, label %6, label %11, !dbg !2846

; <label>:6                                       ; preds = %0
  %7 = load i32* %2, align 4, !dbg !2847
  %8 = call i32 @_ZNK6soplex6Vector3dimEv(%"class.soplex::Vector"* %3), !dbg !2847
  %9 = icmp slt i32 %7, %8, !dbg !2847
  br i1 %9, label %10, label %11, !dbg !2847

; <label>:10                                      ; preds = %6
  br label %13, !dbg !2849

; <label>:11                                      ; preds = %6, %0
  call void @__assert_fail(i8* getelementptr inbounds ([20 x i8]* @.str28, i32 0, i32 0), i8* getelementptr inbounds ([11 x i8]* @.str29, i32 0, i32 0), i32 153, i8* getelementptr inbounds ([38 x i8]* @__PRETTY_FUNCTION__._ZN6soplex6VectorixEi, i32 0, i32 0)) #11, !dbg !2851
  unreachable, !dbg !2851
                                                  ; No predecessors!
  br label %13, !dbg !2846

; <label>:13                                      ; preds = %12, %10
  %14 = load i32* %2, align 4, !dbg !2854
  %15 = sext i32 %14 to i64, !dbg !2855
  %16 = getelementptr inbounds %"class.soplex::Vector"* %3, i32 0, i32 1, !dbg !2856
  %17 = load double** %16, align 8, !dbg !2856
  %18 = getelementptr inbounds double* %17, i64 %15, !dbg !2855
  ret double* %18, !dbg !2855
}

; Function Attrs: noreturn nounwind
declare void @__assert_fail(i8*, i8*, i32, i8*) #5

; Function Attrs: nounwind uwtable
define linkonce_odr dereferenceable(208) %"class.soplex::SPxBasis"* @_ZN6soplex6SoPlex5basisEv(%"class.soplex::SoPlex"* %this) #2 align 2 {
  %1 = alloca %"class.soplex::SoPlex"*, align 8
  store %"class.soplex::SoPlex"* %this, %"class.soplex::SoPlex"** %1, align 8
  call void @llvm.dbg.declare(metadata %"class.soplex::SoPlex"** %1, metadata !2857, metadata !2573), !dbg !2858
  %2 = load %"class.soplex::SoPlex"** %1
  %3 = bitcast %"class.soplex::SoPlex"* %2 to i8*, !dbg !2859
  %4 = getelementptr inbounds i8* %3, i64 352, !dbg !2859
  %5 = bitcast i8* %4 to %"class.soplex::SPxBasis"*, !dbg !2859
  ret %"class.soplex::SPxBasis"* %5, !dbg !2859
}

; Function Attrs: uwtable
define linkonce_odr dereferenceable(4) %"class.soplex::SPxId"* @_ZN6soplex8SPxBasis6baseIdEi(%"class.soplex::SPxBasis"* %this, i32 %i) #4 align 2 {
  %1 = alloca %"class.soplex::SPxBasis"*, align 8
  %2 = alloca i32, align 4
  store %"class.soplex::SPxBasis"* %this, %"class.soplex::SPxBasis"** %1, align 8
  call void @llvm.dbg.declare(metadata %"class.soplex::SPxBasis"** %1, metadata !2860, metadata !2573), !dbg !2862
  store i32 %i, i32* %2, align 4
  call void @llvm.dbg.declare(metadata i32* %2, metadata !2863, metadata !2573), !dbg !2865
  %3 = load %"class.soplex::SPxBasis"** %1
  %4 = getelementptr inbounds %"class.soplex::SPxBasis"* %3, i32 0, i32 2, !dbg !2866
  %5 = load i32* %2, align 4, !dbg !2867
  %6 = call dereferenceable(4) %"class.soplex::SPxId"* @_ZN6soplex9DataArrayINS_5SPxIdEEixEi(%"class.soplex::DataArray.0"* %4, i32 %5), !dbg !2866
  ret %"class.soplex::SPxId"* %6, !dbg !2868
}

; Function Attrs: inlinehint nounwind uwtable
define linkonce_odr void @_ZN6soplex5SPxIdC2ERKS0_(%"class.soplex::SPxId"* %this, %"class.soplex::SPxId"* dereferenceable(4)) unnamed_addr #6 align 2 {
  %2 = alloca %"class.soplex::SPxId"*, align 8
  %3 = alloca %"class.soplex::SPxId"*, align 8
  store %"class.soplex::SPxId"* %this, %"class.soplex::SPxId"** %2, align 8
  call void @llvm.dbg.declare(metadata %"class.soplex::SPxId"** %2, metadata !2869, metadata !2573), !dbg !2870
  store %"class.soplex::SPxId"* %0, %"class.soplex::SPxId"** %3, align 8
  call void @llvm.dbg.declare(metadata %"class.soplex::SPxId"** %3, metadata !2871, metadata !2573), !dbg !2870
  %4 = load %"class.soplex::SPxId"** %2
  %5 = bitcast %"class.soplex::SPxId"* %4 to %"class.soplex::DataKey"*, !dbg !2872
  %6 = load %"class.soplex::SPxId"** %3, align 8, !dbg !2872
  %7 = bitcast %"class.soplex::SPxId"* %6 to %"class.soplex::DataKey"*, !dbg !2872
  call void @_ZN6soplex7DataKeyC2ERKS0_(%"class.soplex::DataKey"* %5, %"class.soplex::DataKey"* dereferenceable(4) %7), !dbg !2872
  ret void, !dbg !2872
}

; Function Attrs: uwtable
define linkonce_odr i32 @_ZNK6soplex5SPxLP6numberERKNS_5SPxIdE(%"class.soplex::SPxLP"* %this, %"class.soplex::SPxId"* dereferenceable(4) %id) #4 align 2 {
  %1 = alloca %"class.soplex::SPxLP"*, align 8
  %2 = alloca %"class.soplex::SPxId"*, align 8
  store %"class.soplex::SPxLP"* %this, %"class.soplex::SPxLP"** %1, align 8
  call void @llvm.dbg.declare(metadata %"class.soplex::SPxLP"** %1, metadata !2873, metadata !2573), !dbg !2875
  store %"class.soplex::SPxId"* %id, %"class.soplex::SPxId"** %2, align 8
  call void @llvm.dbg.declare(metadata %"class.soplex::SPxId"** %2, metadata !2876, metadata !2573), !dbg !2878
  %3 = load %"class.soplex::SPxLP"** %1
  %4 = load %"class.soplex::SPxId"** %2, align 8, !dbg !2879
  %5 = call i32 @_ZNK6soplex5SPxId4typeEv(%"class.soplex::SPxId"* %4), !dbg !2879
  %6 = icmp eq i32 %5, 1, !dbg !2879
  br i1 %6, label %7, label %14, !dbg !2880

; <label>:7                                       ; preds = %0
  %8 = bitcast %"class.soplex::SPxLP"* %3 to i8*, !dbg !2881
  %9 = getelementptr inbounds i8* %8, i64 160, !dbg !2881
  %10 = bitcast i8* %9 to %"class.soplex::LPColSet"*, !dbg !2881
  %11 = load %"class.soplex::SPxId"** %2, align 8, !dbg !2882
  %12 = bitcast %"class.soplex::SPxId"* %11 to %"class.soplex::DataKey"*, !dbg !2882
  %13 = call i32 @_ZNK6soplex8LPColSet6numberERKNS_7DataKeyE(%"class.soplex::LPColSet"* %10, %"class.soplex::DataKey"* dereferenceable(4) %12), !dbg !2881
  br label %21, !dbg !2880

; <label>:14                                      ; preds = %0
  %15 = bitcast %"class.soplex::SPxLP"* %3 to i8*, !dbg !2883
  %16 = getelementptr inbounds i8* %15, i64 8, !dbg !2883
  %17 = bitcast i8* %16 to %"class.soplex::LPRowSet"*, !dbg !2883
  %18 = load %"class.soplex::SPxId"** %2, align 8, !dbg !2884
  %19 = bitcast %"class.soplex::SPxId"* %18 to %"class.soplex::DataKey"*, !dbg !2884
  %20 = call i32 @_ZNK6soplex8LPRowSet6numberERKNS_7DataKeyE(%"class.soplex::LPRowSet"* %17, %"class.soplex::DataKey"* dereferenceable(4) %19), !dbg !2883
  br label %21, !dbg !2880

; <label>:21                                      ; preds = %14, %7
  %22 = phi i32 [ %13, %7 ], [ %20, %14 ], !dbg !2880
  ret i32 %22, !dbg !2885
}

; Function Attrs: nounwind uwtable
define linkonce_odr i32 @_ZNK6soplex6SoPlex4isIdENS_5SPxIdE(%"class.soplex::SoPlex"* %this, %"class.soplex::SPxId"* %p_id) #2 align 2 {
  %1 = alloca %"class.soplex::SoPlex"*, align 8
  store %"class.soplex::SoPlex"* %this, %"class.soplex::SoPlex"** %1, align 8
  call void @llvm.dbg.declare(metadata %"class.soplex::SoPlex"** %1, metadata !2888, metadata !2573), !dbg !2889
  call void @llvm.dbg.declare(metadata %"class.soplex::SPxId"* %p_id, metadata !2890, metadata !2573), !dbg !2892
  %2 = load %"class.soplex::SoPlex"** %1
  %3 = bitcast %"class.soplex::SPxId"* %p_id to %"class.soplex::DataKey"*, !dbg !2893
  %4 = bitcast %"class.soplex::DataKey"* %3 to i32*, !dbg !2893
  %5 = load i32* %4, align 4, !dbg !2893
  %6 = shl i32 %5, 24, !dbg !2893
  %7 = ashr i32 %6, 24, !dbg !2893
  %8 = getelementptr inbounds %"class.soplex::SoPlex"* %2, i32 0, i32 4, !dbg !2894
  %9 = load i32* %8, align 4, !dbg !2894
  %10 = mul nsw i32 %7, %9, !dbg !2893
  %11 = icmp sgt i32 %10, 0, !dbg !2893
  %12 = zext i1 %11 to i32, !dbg !2893
  ret i32 %12, !dbg !2895
}

; Function Attrs: nounwind uwtable
define linkonce_odr dereferenceable(8) double* @_ZN6soplex9DataArrayIdEixEi(%"class.soplex::DataArray.3"* %this, i32 %n) #2 align 2 {
  %1 = alloca %"class.soplex::DataArray.3"*, align 8
  %2 = alloca i32, align 4
  store %"class.soplex::DataArray.3"* %this, %"class.soplex::DataArray.3"** %1, align 8
  call void @llvm.dbg.declare(metadata %"class.soplex::DataArray.3"** %1, metadata !2896, metadata !2573), !dbg !2897
  store i32 %n, i32* %2, align 4
  call void @llvm.dbg.declare(metadata i32* %2, metadata !2898, metadata !2573), !dbg !2899
  %3 = load %"class.soplex::DataArray.3"** %1
  %4 = load i32* %2, align 4, !dbg !2900
  %5 = icmp sge i32 %4, 0, !dbg !2900
  br i1 %5, label %6, label %7, !dbg !2900

; <label>:6                                       ; preds = %0
  br label %9, !dbg !2901

; <label>:7                                       ; preds = %0
  call void @__assert_fail(i8* getelementptr inbounds ([7 x i8]* @.str17, i32 0, i32 0), i8* getelementptr inbounds ([14 x i8]* @.str18, i32 0, i32 0), i32 89, i8* getelementptr inbounds ([59 x i8]* @__PRETTY_FUNCTION__._ZN6soplex9DataArrayIdEixEi, i32 0, i32 0)) #11, !dbg !2903
  unreachable, !dbg !2903
                                                  ; No predecessors!
  br label %9, !dbg !2900

; <label>:9                                       ; preds = %8, %6
  %10 = load i32* %2, align 4, !dbg !2905
  %11 = getelementptr inbounds %"class.soplex::DataArray.3"* %3, i32 0, i32 0, !dbg !2905
  %12 = load i32* %11, align 4, !dbg !2905
  %13 = icmp slt i32 %10, %12, !dbg !2905
  br i1 %13, label %14, label %15, !dbg !2905

; <label>:14                                      ; preds = %9
  br label %17, !dbg !2906

; <label>:15                                      ; preds = %9
  call void @__assert_fail(i8* getelementptr inbounds ([12 x i8]* @.str19, i32 0, i32 0), i8* getelementptr inbounds ([14 x i8]* @.str18, i32 0, i32 0), i32 90, i8* getelementptr inbounds ([59 x i8]* @__PRETTY_FUNCTION__._ZN6soplex9DataArrayIdEixEi, i32 0, i32 0)) #11, !dbg !2907
  unreachable, !dbg !2907
                                                  ; No predecessors!
  br label %17, !dbg !2905

; <label>:17                                      ; preds = %16, %14
  %18 = load i32* %2, align 4, !dbg !2908
  %19 = sext i32 %18 to i64, !dbg !2909
  %20 = getelementptr inbounds %"class.soplex::DataArray.3"* %3, i32 0, i32 2, !dbg !2910
  %21 = load double** %20, align 8, !dbg !2910
  %22 = getelementptr inbounds double* %21, i64 %19, !dbg !2909
  ret double* %22, !dbg !2909
}

; Function Attrs: uwtable
define linkonce_odr dereferenceable(8) %"class.soplex::SVector"* @_ZNK6soplex8SPxBasis7baseVecEi(%"class.soplex::SPxBasis"* %this, i32 %i) #4 align 2 {
  %1 = alloca %"class.soplex::SPxBasis"*, align 8
  %2 = alloca i32, align 4
  store %"class.soplex::SPxBasis"* %this, %"class.soplex::SPxBasis"** %1, align 8
  call void @llvm.dbg.declare(metadata %"class.soplex::SPxBasis"** %1, metadata !2911, metadata !2573), !dbg !2913
  store i32 %i, i32* %2, align 4
  call void @llvm.dbg.declare(metadata i32* %2, metadata !2914, metadata !2573), !dbg !2915
  %3 = load %"class.soplex::SPxBasis"** %1
  %4 = getelementptr inbounds %"class.soplex::SPxBasis"* %3, i32 0, i32 4, !dbg !2916
  %5 = load i8* %4, align 1, !dbg !2916
  %6 = trunc i8 %5 to i1, !dbg !2916
  br i1 %6, label %7, label %8, !dbg !2916

; <label>:7                                       ; preds = %0
  br label %10, !dbg !2917

; <label>:8                                       ; preds = %0
  call void @__assert_fail(i8* getelementptr inbounds ([14 x i8]* @.str42, i32 0, i32 0), i8* getelementptr inbounds ([13 x i8]* @.str43, i32 0, i32 0), i32 429, i8* getelementptr inbounds ([60 x i8]* @__PRETTY_FUNCTION__._ZNK6soplex8SPxBasis7baseVecEi, i32 0, i32 0)) #11, !dbg !2919
  unreachable, !dbg !2919
                                                  ; No predecessors!
  br label %10, !dbg !2916

; <label>:10                                      ; preds = %9, %7
  %11 = getelementptr inbounds %"class.soplex::SPxBasis"* %3, i32 0, i32 3, !dbg !2921
  %12 = load i32* %2, align 4, !dbg !2922
  %13 = call dereferenceable(8) %"class.soplex::SVector"** @_ZNK6soplex9DataArrayIPKNS_7SVectorEEixEi(%"class.soplex::DataArray.1"* %11, i32 %12), !dbg !2921
  %14 = load %"class.soplex::SVector"** %13, !dbg !2921
  ret %"class.soplex::SVector"* %14, !dbg !2923
}

; Function Attrs: nounwind uwtable
define linkonce_odr i32 @_ZNK6soplex7SVector4sizeEv(%"class.soplex::SVector"* %this) #2 align 2 {
  %1 = alloca i32, align 4
  %2 = alloca %"class.soplex::SVector"*, align 8
  store %"class.soplex::SVector"* %this, %"class.soplex::SVector"** %2, align 8
  call void @llvm.dbg.declare(metadata %"class.soplex::SVector"** %2, metadata !2924, metadata !2573), !dbg !2925
  %3 = load %"class.soplex::SVector"** %2
  %4 = getelementptr inbounds %"class.soplex::SVector"* %3, i32 0, i32 0, !dbg !2926
  %5 = load %"struct.soplex::SVector::Element"** %4, align 8, !dbg !2926
  %6 = icmp ne %"struct.soplex::SVector::Element"* %5, null, !dbg !2926
  br i1 %6, label %7, label %13, !dbg !2928

; <label>:7                                       ; preds = %0
  %8 = getelementptr inbounds %"class.soplex::SVector"* %3, i32 0, i32 0, !dbg !2929
  %9 = load %"struct.soplex::SVector::Element"** %8, align 8, !dbg !2929
  %10 = getelementptr inbounds %"struct.soplex::SVector::Element"* %9, i64 -1, !dbg !2929
  %11 = getelementptr inbounds %"struct.soplex::SVector::Element"* %10, i32 0, i32 1, !dbg !2929
  %12 = load i32* %11, align 4, !dbg !2929
  store i32 %12, i32* %1, !dbg !2930
  br label %14, !dbg !2930

; <label>:13                                      ; preds = %0
  store i32 0, i32* %1, !dbg !2931
  br label %14, !dbg !2931

; <label>:14                                      ; preds = %13, %7
  %15 = load i32* %1, !dbg !2932
  ret i32 %15, !dbg !2932
}

declare dereferenceable(272) %"class.std::basic_ostream"* @_ZStlsISt11char_traitsIcEERSt13basic_ostreamIcT_ES5_PKc(%"class.std::basic_ostream"* dereferenceable(272), i8*) #0

; Function Attrs: uwtable
define linkonce_odr dereferenceable(8) %"class.soplex::SVector"* @_ZNK6soplex6SoPlex6vectorEi(%"class.soplex::SoPlex"* %this, i32 %i) #4 align 2 {
  %1 = alloca %"class.soplex::SoPlex"*, align 8
  %2 = alloca i32, align 4
  store %"class.soplex::SoPlex"* %this, %"class.soplex::SoPlex"** %1, align 8
  call void @llvm.dbg.declare(metadata %"class.soplex::SoPlex"** %1, metadata !2933, metadata !2573), !dbg !2934
  store i32 %i, i32* %2, align 4
  call void @llvm.dbg.declare(metadata i32* %2, metadata !2935, metadata !2573), !dbg !2936
  %3 = load %"class.soplex::SoPlex"** %1
  %4 = getelementptr inbounds %"class.soplex::SoPlex"* %3, i32 0, i32 22, !dbg !2937
  %5 = load %"class.soplex::SVSet"** %4, align 8, !dbg !2937
  %6 = load i32* %2, align 4, !dbg !2938
  %7 = call dereferenceable(8) %"class.soplex::SVector"* @_ZNK6soplex5SVSetixEi(%"class.soplex::SVSet"* %5, i32 %6), !dbg !2937
  ret %"class.soplex::SVector"* %7, !dbg !2939
}

declare double @_ZNK6soplex7SVector7length2Ev(%"class.soplex::SVector"*) #0

; Function Attrs: uwtable
define void @_ZN6soplex10SPxSteepPR10setupPrefsEdddddiiii(%"class.soplex::SPxSteepPR"* %this, double %mult, double, double, double %shift, double %coshift, i32 %rs, i32 %cs, i32 %re, i32 %ce) #4 align 2 {
  %3 = alloca %"class.soplex::SPxSteepPR"*, align 8
  %4 = alloca double, align 8
  %5 = alloca double, align 8
  %6 = alloca double, align 8
  %7 = alloca double, align 8
  %8 = alloca double, align 8
  %9 = alloca i32, align 4
  %10 = alloca i32, align 4
  %11 = alloca i32, align 4
  %12 = alloca i32, align 4
  %p = alloca double*, align 8
  %cp = alloca double*, align 8
  %end = alloca double*, align 8
  %rshift = alloca double, align 8
  %cshift = alloca double, align 8
  %i = alloca i32, align 4
  store %"class.soplex::SPxSteepPR"* %this, %"class.soplex::SPxSteepPR"** %3, align 8
  call void @llvm.dbg.declare(metadata %"class.soplex::SPxSteepPR"** %3, metadata !2940, metadata !2573), !dbg !2941
  store double %mult, double* %4, align 8
  call void @llvm.dbg.declare(metadata double* %4, metadata !2942, metadata !2573), !dbg !2943
  store double %0, double* %5, align 8
  call void @llvm.dbg.declare(metadata double* %5, metadata !2944, metadata !2573), !dbg !2945
  store double %1, double* %6, align 8
  call void @llvm.dbg.declare(metadata double* %6, metadata !2946, metadata !2573), !dbg !2947
  store double %shift, double* %7, align 8
  call void @llvm.dbg.declare(metadata double* %7, metadata !2948, metadata !2573), !dbg !2949
  store double %coshift, double* %8, align 8
  call void @llvm.dbg.declare(metadata double* %8, metadata !2950, metadata !2573), !dbg !2951
  store i32 %rs, i32* %9, align 4
  call void @llvm.dbg.declare(metadata i32* %9, metadata !2952, metadata !2573), !dbg !2953
  store i32 %cs, i32* %10, align 4
  call void @llvm.dbg.declare(metadata i32* %10, metadata !2954, metadata !2573), !dbg !2955
  store i32 %re, i32* %11, align 4
  call void @llvm.dbg.declare(metadata i32* %11, metadata !2956, metadata !2573), !dbg !2957
  store i32 %ce, i32* %12, align 4
  call void @llvm.dbg.declare(metadata i32* %12, metadata !2958, metadata !2573), !dbg !2959
  %13 = load %"class.soplex::SPxSteepPR"** %3
  call void @llvm.dbg.declare(metadata double** %p, metadata !2960, metadata !2573), !dbg !2961
  call void @llvm.dbg.declare(metadata double** %cp, metadata !2962, metadata !2573), !dbg !2963
  call void @llvm.dbg.declare(metadata double** %end, metadata !2964, metadata !2573), !dbg !2965
  call void @llvm.dbg.declare(metadata double* %rshift, metadata !2966, metadata !2573), !dbg !2967
  call void @llvm.dbg.declare(metadata double* %cshift, metadata !2968, metadata !2573), !dbg !2969
  call void @llvm.dbg.declare(metadata i32* %i, metadata !2970, metadata !2573), !dbg !2971
  %14 = bitcast %"class.soplex::SPxSteepPR"* %13 to %"class.soplex::SPxPricer"*, !dbg !2972
  %15 = getelementptr inbounds %"class.soplex::SPxPricer"* %14, i32 0, i32 2, !dbg !2972
  %16 = load %"class.soplex::SoPlex"** %15, align 8, !dbg !2972
  %17 = call i32 @_ZNK6soplex6SoPlex3repEv(%"class.soplex::SoPlex"* %16), !dbg !2972
  %18 = icmp eq i32 %17, 1, !dbg !2972
  br i1 %18, label %19, label %26, !dbg !2974

; <label>:19                                      ; preds = %2
  %20 = getelementptr inbounds %"class.soplex::SPxSteepPR"* %13, i32 0, i32 10, !dbg !2975
  %21 = call double* @_ZN6soplex9DataArrayIdE7get_ptrEv(%"class.soplex::DataArray.3"* %20), !dbg !2975
  store double* %21, double** %cp, align 8, !dbg !2977
  %22 = getelementptr inbounds %"class.soplex::SPxSteepPR"* %13, i32 0, i32 9, !dbg !2978
  %23 = call double* @_ZN6soplex9DataArrayIdE7get_ptrEv(%"class.soplex::DataArray.3"* %22), !dbg !2978
  store double* %23, double** %p, align 8, !dbg !2979
  %24 = load double* %7, align 8, !dbg !2980
  store double %24, double* %cshift, align 8, !dbg !2981
  %25 = load double* %8, align 8, !dbg !2982
  store double %25, double* %rshift, align 8, !dbg !2983
  br label %33, !dbg !2984

; <label>:26                                      ; preds = %2
  %27 = getelementptr inbounds %"class.soplex::SPxSteepPR"* %13, i32 0, i32 10, !dbg !2985
  %28 = call double* @_ZN6soplex9DataArrayIdE7get_ptrEv(%"class.soplex::DataArray.3"* %27), !dbg !2985
  store double* %28, double** %p, align 8, !dbg !2987
  %29 = getelementptr inbounds %"class.soplex::SPxSteepPR"* %13, i32 0, i32 9, !dbg !2988
  %30 = call double* @_ZN6soplex9DataArrayIdE7get_ptrEv(%"class.soplex::DataArray.3"* %29), !dbg !2988
  store double* %30, double** %cp, align 8, !dbg !2989
  %31 = load double* %7, align 8, !dbg !2990
  store double %31, double* %rshift, align 8, !dbg !2991
  %32 = load double* %8, align 8, !dbg !2992
  store double %32, double* %cshift, align 8, !dbg !2993
  br label %33

; <label>:33                                      ; preds = %26, %19
  %34 = load i32* %11, align 4, !dbg !2994
  %35 = icmp slt i32 %34, 0, !dbg !2994
  br i1 %35, label %36, label %42, !dbg !2996

; <label>:36                                      ; preds = %33
  %37 = bitcast %"class.soplex::SPxSteepPR"* %13 to %"class.soplex::SPxPricer"*, !dbg !2997
  %38 = getelementptr inbounds %"class.soplex::SPxPricer"* %37, i32 0, i32 2, !dbg !2997
  %39 = load %"class.soplex::SoPlex"** %38, align 8, !dbg !2997
  %40 = bitcast %"class.soplex::SoPlex"* %39 to %"class.soplex::SPxLP"*, !dbg !2997
  %41 = call i32 @_ZNK6soplex5SPxLP5nRowsEv(%"class.soplex::SPxLP"* %40), !dbg !2997
  store i32 %41, i32* %11, align 4, !dbg !2998
  br label %42, !dbg !2998

; <label>:42                                      ; preds = %36, %33
  %43 = load i32* %11, align 4, !dbg !2999
  store i32 %43, i32* %i, align 4, !dbg !3001
  br label %44, !dbg !3001

; <label>:44                                      ; preds = %49, %42
  %45 = load i32* %i, align 4, !dbg !3002
  %46 = add nsw i32 %45, -1, !dbg !3002
  store i32 %46, i32* %i, align 4, !dbg !3002
  %47 = load i32* %9, align 4, !dbg !3006
  %48 = icmp sge i32 %46, %47, !dbg !3007
  br i1 %48, label %49, label %55, !dbg !3008

; <label>:49                                      ; preds = %44
  %50 = load double* %rshift, align 8, !dbg !3009
  %51 = load i32* %i, align 4, !dbg !3011
  %52 = sext i32 %51 to i64, !dbg !3012
  %53 = load double** %p, align 8, !dbg !3012
  %54 = getelementptr inbounds double* %53, i64 %52, !dbg !3012
  store double %50, double* %54, align 8, !dbg !3012
  br label %44, !dbg !3013

; <label>:55                                      ; preds = %44
  %56 = load i32* %12, align 4, !dbg !3014
  %57 = icmp slt i32 %56, 0, !dbg !3014
  br i1 %57, label %58, label %64, !dbg !3016

; <label>:58                                      ; preds = %55
  %59 = bitcast %"class.soplex::SPxSteepPR"* %13 to %"class.soplex::SPxPricer"*, !dbg !3017
  %60 = getelementptr inbounds %"class.soplex::SPxPricer"* %59, i32 0, i32 2, !dbg !3017
  %61 = load %"class.soplex::SoPlex"** %60, align 8, !dbg !3017
  %62 = bitcast %"class.soplex::SoPlex"* %61 to %"class.soplex::SPxLP"*, !dbg !3017
  %63 = call i32 @_ZNK6soplex5SPxLP5nColsEv(%"class.soplex::SPxLP"* %62), !dbg !3017
  store i32 %63, i32* %12, align 4, !dbg !3018
  br label %64, !dbg !3018

; <label>:64                                      ; preds = %58, %55
  %65 = load i32* %12, align 4, !dbg !3019
  store i32 %65, i32* %i, align 4, !dbg !3021
  br label %66, !dbg !3021

; <label>:66                                      ; preds = %71, %64
  %67 = load i32* %i, align 4, !dbg !3022
  %68 = add nsw i32 %67, -1, !dbg !3022
  store i32 %68, i32* %i, align 4, !dbg !3022
  %69 = load i32* %10, align 4, !dbg !3026
  %70 = icmp sge i32 %68, %69, !dbg !3027
  br i1 %70, label %71, label %77, !dbg !3028

; <label>:71                                      ; preds = %66
  %72 = load double* %cshift, align 8, !dbg !3029
  %73 = load i32* %i, align 4, !dbg !3031
  %74 = sext i32 %73 to i64, !dbg !3032
  %75 = load double** %cp, align 8, !dbg !3032
  %76 = getelementptr inbounds double* %75, i64 %74, !dbg !3032
  store double %72, double* %76, align 8, !dbg !3032
  br label %66, !dbg !3033

; <label>:77                                      ; preds = %66
  store i32 0, i32* %i, align 4, !dbg !3034
  %78 = getelementptr inbounds %"class.soplex::SPxSteepPR"* %13, i32 0, i32 9, !dbg !3035
  %79 = call double* @_ZN6soplex9DataArrayIdE7get_ptrEv(%"class.soplex::DataArray.3"* %78), !dbg !3035
  store double* %79, double** %cp, align 8, !dbg !3036
  %80 = load double** %cp, align 8, !dbg !3037
  %81 = getelementptr inbounds %"class.soplex::SPxSteepPR"* %13, i32 0, i32 9, !dbg !3038
  %82 = call i32 @_ZNK6soplex9DataArrayIdE4sizeEv(%"class.soplex::DataArray.3"* %81), !dbg !3038
  %83 = sext i32 %82 to i64, !dbg !3037
  %84 = getelementptr inbounds double* %80, i64 %83, !dbg !3037
  store double* %84, double** %end, align 8, !dbg !3039
  br label %85, !dbg !3040

; <label>:85                                      ; preds = %89, %77
  %86 = load double** %cp, align 8, !dbg !3041
  %87 = load double** %end, align 8, !dbg !3044
  %88 = icmp ult double* %86, %87, !dbg !3045
  br i1 %88, label %89, label %100, !dbg !3040

; <label>:89                                      ; preds = %85
  %90 = load double* %4, align 8, !dbg !3046
  %91 = load i32* %i, align 4, !dbg !3047
  %92 = add nsw i32 %91, 1, !dbg !3047
  store i32 %92, i32* %i, align 4, !dbg !3047
  %93 = sitofp i32 %91 to double, !dbg !3047
  %94 = fmul double %90, %93, !dbg !3046
  %95 = fsub double 1.000000e+00, %94, !dbg !3048
  %96 = load double** %cp, align 8, !dbg !3049
  %97 = getelementptr inbounds double* %96, i32 1, !dbg !3049
  store double* %97, double** %cp, align 8, !dbg !3049
  %98 = load double* %96, align 8, !dbg !3050
  %99 = fmul double %98, %95, !dbg !3050
  store double %99, double* %96, align 8, !dbg !3050
  br label %85, !dbg !3040

; <label>:100                                     ; preds = %85
  %101 = getelementptr inbounds %"class.soplex::SPxSteepPR"* %13, i32 0, i32 10, !dbg !3051
  %102 = call double* @_ZN6soplex9DataArrayIdE7get_ptrEv(%"class.soplex::DataArray.3"* %101), !dbg !3051
  store double* %102, double** %p, align 8, !dbg !3052
  %103 = load double** %p, align 8, !dbg !3053
  %104 = getelementptr inbounds %"class.soplex::SPxSteepPR"* %13, i32 0, i32 10, !dbg !3054
  %105 = call i32 @_ZNK6soplex9DataArrayIdE4sizeEv(%"class.soplex::DataArray.3"* %104), !dbg !3054
  %106 = sext i32 %105 to i64, !dbg !3053
  %107 = getelementptr inbounds double* %103, i64 %106, !dbg !3053
  store double* %107, double** %end, align 8, !dbg !3055
  %108 = getelementptr inbounds %"class.soplex::SPxSteepPR"* %13, i32 0, i32 10, !dbg !3056
  %109 = call i32 @_ZNK6soplex9DataArrayIdE4sizeEv(%"class.soplex::DataArray.3"* %108), !dbg !3056
  store i32 %109, i32* %i, align 4, !dbg !3057
  br label %110, !dbg !3058

; <label>:110                                     ; preds = %114, %100
  %111 = load double** %p, align 8, !dbg !3059
  %112 = load double** %end, align 8, !dbg !3060
  %113 = icmp ult double* %111, %112, !dbg !3061
  br i1 %113, label %114, label %125, !dbg !3058

; <label>:114                                     ; preds = %110
  %115 = load double* %4, align 8, !dbg !3062
  %116 = load i32* %i, align 4, !dbg !3063
  %117 = add nsw i32 %116, -1, !dbg !3063
  store i32 %117, i32* %i, align 4, !dbg !3063
  %118 = sitofp i32 %116 to double, !dbg !3063
  %119 = fmul double %115, %118, !dbg !3062
  %120 = fadd double 1.000000e+00, %119, !dbg !3064
  %121 = load double** %p, align 8, !dbg !3065
  %122 = getelementptr inbounds double* %121, i32 1, !dbg !3065
  store double* %122, double** %p, align 8, !dbg !3065
  %123 = load double* %121, align 8, !dbg !3066
  %124 = fmul double %123, %120, !dbg !3066
  store double %124, double* %121, align 8, !dbg !3066
  br label %110, !dbg !3058

; <label>:125                                     ; preds = %110
  ret void, !dbg !3067
}

; Function Attrs: nounwind uwtable
define linkonce_odr i32 @_ZNK6soplex6SoPlex3repEv(%"class.soplex::SoPlex"* %this) #2 align 2 {
  %1 = alloca %"class.soplex::SoPlex"*, align 8
  store %"class.soplex::SoPlex"* %this, %"class.soplex::SoPlex"** %1, align 8
  call void @llvm.dbg.declare(metadata %"class.soplex::SoPlex"** %1, metadata !3068, metadata !2573), !dbg !3069
  %2 = load %"class.soplex::SoPlex"** %1
  %3 = getelementptr inbounds %"class.soplex::SoPlex"* %2, i32 0, i32 4, !dbg !3070
  %4 = load i32* %3, align 4, !dbg !3070
  ret i32 %4, !dbg !3071
}

; Function Attrs: nounwind uwtable
define linkonce_odr double* @_ZN6soplex9DataArrayIdE7get_ptrEv(%"class.soplex::DataArray.3"* %this) #2 align 2 {
  %1 = alloca %"class.soplex::DataArray.3"*, align 8
  store %"class.soplex::DataArray.3"* %this, %"class.soplex::DataArray.3"** %1, align 8
  call void @llvm.dbg.declare(metadata %"class.soplex::DataArray.3"** %1, metadata !3072, metadata !2573), !dbg !3073
  %2 = load %"class.soplex::DataArray.3"** %1
  %3 = getelementptr inbounds %"class.soplex::DataArray.3"* %2, i32 0, i32 2, !dbg !3074
  %4 = load double** %3, align 8, !dbg !3074
  ret double* %4, !dbg !3075
}

; Function Attrs: uwtable
define linkonce_odr i32 @_ZNK6soplex5SPxLP5nRowsEv(%"class.soplex::SPxLP"* %this) #4 align 2 {
  %1 = alloca %"class.soplex::SPxLP"*, align 8
  store %"class.soplex::SPxLP"* %this, %"class.soplex::SPxLP"** %1, align 8
  call void @llvm.dbg.declare(metadata %"class.soplex::SPxLP"** %1, metadata !3076, metadata !2573), !dbg !3077
  %2 = load %"class.soplex::SPxLP"** %1
  %3 = bitcast %"class.soplex::SPxLP"* %2 to i8*, !dbg !3078
  %4 = getelementptr inbounds i8* %3, i64 8, !dbg !3078
  %5 = bitcast i8* %4 to %"class.soplex::LPRowSet"*, !dbg !3078
  %6 = call i32 @_ZNK6soplex8LPRowSet3numEv(%"class.soplex::LPRowSet"* %5), !dbg !3079
  ret i32 %6, !dbg !3080
}

; Function Attrs: uwtable
define linkonce_odr i32 @_ZNK6soplex5SPxLP5nColsEv(%"class.soplex::SPxLP"* %this) #4 align 2 {
  %1 = alloca %"class.soplex::SPxLP"*, align 8
  store %"class.soplex::SPxLP"* %this, %"class.soplex::SPxLP"** %1, align 8
  call void @llvm.dbg.declare(metadata %"class.soplex::SPxLP"** %1, metadata !3081, metadata !2573), !dbg !3082
  %2 = load %"class.soplex::SPxLP"** %1
  %3 = bitcast %"class.soplex::SPxLP"* %2 to i8*, !dbg !3083
  %4 = getelementptr inbounds i8* %3, i64 160, !dbg !3083
  %5 = bitcast i8* %4 to %"class.soplex::LPColSet"*, !dbg !3083
  %6 = call i32 @_ZNK6soplex8LPColSet3numEv(%"class.soplex::LPColSet"* %5), !dbg !3084
  ret i32 %6, !dbg !3085
}

; Function Attrs: nounwind uwtable
define linkonce_odr i32 @_ZNK6soplex9DataArrayIdE4sizeEv(%"class.soplex::DataArray.3"* %this) #2 align 2 {
  %1 = alloca %"class.soplex::DataArray.3"*, align 8
  store %"class.soplex::DataArray.3"* %this, %"class.soplex::DataArray.3"** %1, align 8
  call void @llvm.dbg.declare(metadata %"class.soplex::DataArray.3"** %1, metadata !3086, metadata !2573), !dbg !3088
  %2 = load %"class.soplex::DataArray.3"** %1
  %3 = getelementptr inbounds %"class.soplex::DataArray.3"* %2, i32 0, i32 0, !dbg !3089
  %4 = load i32* %3, align 4, !dbg !3089
  ret i32 %4, !dbg !3090
}

; Function Attrs: uwtable
define void @_ZN6soplex10SPxSteepPR6setRepENS_6SoPlex14RepresentationE(%"class.soplex::SPxSteepPR"* %this, i32) unnamed_addr #4 align 2 {
  %2 = alloca %"class.soplex::SPxSteepPR"*, align 8
  %3 = alloca i32, align 4
  %tmp = alloca %"class.soplex::DVector", align 8
  %4 = alloca i8*
  %5 = alloca i32
  store %"class.soplex::SPxSteepPR"* %this, %"class.soplex::SPxSteepPR"** %2, align 8
  call void @llvm.dbg.declare(metadata %"class.soplex::SPxSteepPR"** %2, metadata !3091, metadata !2573), !dbg !3092
  store i32 %0, i32* %3, align 4
  call void @llvm.dbg.declare(metadata i32* %3, metadata !3093, metadata !2573), !dbg !3094
  %6 = load %"class.soplex::SPxSteepPR"** %2
  %7 = getelementptr inbounds %"class.soplex::SPxSteepPR"* %6, i32 0, i32 3, !dbg !3095
  %8 = bitcast %"class.soplex::DVector"* %7 to %"class.soplex::Vector"*, !dbg !3095
  %9 = call i32 @_ZNK6soplex6Vector3dimEv(%"class.soplex::Vector"* %8), !dbg !3095
  %10 = bitcast %"class.soplex::SPxSteepPR"* %6 to %"class.soplex::SPxPricer"*, !dbg !3097
  %11 = getelementptr inbounds %"class.soplex::SPxPricer"* %10, i32 0, i32 2, !dbg !3097
  %12 = load %"class.soplex::SoPlex"** %11, align 8, !dbg !3097
  %13 = call i32 @_ZNK6soplex6SoPlex3dimEv(%"class.soplex::SoPlex"* %12), !dbg !3097
  %14 = icmp ne i32 %9, %13, !dbg !3095
  br i1 %14, label %15, label %39, !dbg !3098

; <label>:15                                      ; preds = %1
  call void @llvm.dbg.declare(metadata %"class.soplex::DVector"* %tmp, metadata !3099, metadata !2573), !dbg !3101
  %16 = getelementptr inbounds %"class.soplex::SPxSteepPR"* %6, i32 0, i32 1, !dbg !3101
  call void @_ZN6soplex7DVectorC1ERKS0_(%"class.soplex::DVector"* %tmp, %"class.soplex::DVector"* dereferenceable(32) %16), !dbg !3101
  %17 = getelementptr inbounds %"class.soplex::SPxSteepPR"* %6, i32 0, i32 1, !dbg !3102
  %18 = getelementptr inbounds %"class.soplex::SPxSteepPR"* %6, i32 0, i32 2, !dbg !3102
  %19 = invoke dereferenceable(32) %"class.soplex::DVector"* @_ZN6soplex7DVectoraSERKS0_(%"class.soplex::DVector"* %17, %"class.soplex::DVector"* dereferenceable(32) %18)
          to label %20 unwind label %34, !dbg !3102

; <label>:20                                      ; preds = %15
  %21 = getelementptr inbounds %"class.soplex::SPxSteepPR"* %6, i32 0, i32 2, !dbg !3103
  %22 = invoke dereferenceable(32) %"class.soplex::DVector"* @_ZN6soplex7DVectoraSERKS0_(%"class.soplex::DVector"* %21, %"class.soplex::DVector"* dereferenceable(32) %tmp)
          to label %23 unwind label %34, !dbg !3103

; <label>:23                                      ; preds = %20
  %24 = getelementptr inbounds %"class.soplex::SPxSteepPR"* %6, i32 0, i32 3, !dbg !3104
  %25 = bitcast %"class.soplex::DVector"* %24 to %"class.soplex::Vector"*, !dbg !3104
  invoke void @_ZN6soplex6Vector5clearEv(%"class.soplex::Vector"* %25)
          to label %26 unwind label %34, !dbg !3104

; <label>:26                                      ; preds = %23
  %27 = getelementptr inbounds %"class.soplex::SPxSteepPR"* %6, i32 0, i32 3, !dbg !3105
  %28 = bitcast %"class.soplex::SPxSteepPR"* %6 to %"class.soplex::SPxPricer"*, !dbg !3106
  %29 = getelementptr inbounds %"class.soplex::SPxPricer"* %28, i32 0, i32 2, !dbg !3106
  %30 = load %"class.soplex::SoPlex"** %29, align 8, !dbg !3106
  %31 = invoke i32 @_ZNK6soplex6SoPlex3dimEv(%"class.soplex::SoPlex"* %30)
          to label %32 unwind label %34, !dbg !3106

; <label>:32                                      ; preds = %26
  invoke void @_ZN6soplex7DVector5reDimEi(%"class.soplex::DVector"* %27, i32 %31)
          to label %33 unwind label %34, !dbg !3107

; <label>:33                                      ; preds = %32
  call void @_ZN6soplex7DVectorD1Ev(%"class.soplex::DVector"* %tmp), !dbg !3109
  br label %39, !dbg !3109

; <label>:34                                      ; preds = %32, %26, %23, %20, %15
  %35 = landingpad { i8*, i32 } personality i8* bitcast (i32 (...)* @__gxx_personality_v0 to i8*)
          cleanup, !dbg !3110
  %36 = extractvalue { i8*, i32 } %35, 0, !dbg !3110
  store i8* %36, i8** %4, !dbg !3110
  %37 = extractvalue { i8*, i32 } %35, 1, !dbg !3110
  store i32 %37, i32* %5, !dbg !3110
  invoke void @_ZN6soplex7DVectorD1Ev(%"class.soplex::DVector"* %tmp)
          to label %38 unwind label %45, !dbg !3111

; <label>:38                                      ; preds = %34
  br label %40, !dbg !3112

; <label>:39                                      ; preds = %33, %1
  ret void, !dbg !3114

; <label>:40                                      ; preds = %38
  %41 = load i8** %4, !dbg !3115
  %42 = load i32* %5, !dbg !3115
  %43 = insertvalue { i8*, i32 } undef, i8* %41, 0, !dbg !3115
  %44 = insertvalue { i8*, i32 } %43, i32 %42, 1, !dbg !3115
  resume { i8*, i32 } %44, !dbg !3115

; <label>:45                                      ; preds = %34
  %46 = landingpad { i8*, i32 } personality i8* bitcast (i32 (...)* @__gxx_personality_v0 to i8*)
          catch i8* null, !dbg !3117
  %47 = extractvalue { i8*, i32 } %46, 0, !dbg !3117
  call void @__clang_call_terminate(i8* %47) #11, !dbg !3117
  unreachable, !dbg !3117
}

; Function Attrs: nounwind uwtable
define linkonce_odr i32 @_ZNK6soplex6Vector3dimEv(%"class.soplex::Vector"* %this) #2 align 2 {
  %1 = alloca %"class.soplex::Vector"*, align 8
  store %"class.soplex::Vector"* %this, %"class.soplex::Vector"** %1, align 8
  call void @llvm.dbg.declare(metadata %"class.soplex::Vector"** %1, metadata !3119, metadata !2573), !dbg !3121
  %2 = load %"class.soplex::Vector"** %1
  %3 = getelementptr inbounds %"class.soplex::Vector"* %2, i32 0, i32 0, !dbg !3122
  %4 = load i32* %3, align 4, !dbg !3122
  ret i32 %4, !dbg !3123
}

declare void @_ZN6soplex7DVectorC1ERKS0_(%"class.soplex::DVector"*, %"class.soplex::DVector"* dereferenceable(32)) #0

; Function Attrs: uwtable
define linkonce_odr dereferenceable(32) %"class.soplex::DVector"* @_ZN6soplex7DVectoraSERKS0_(%"class.soplex::DVector"* %this, %"class.soplex::DVector"* dereferenceable(32) %vec) #4 align 2 {
  %1 = alloca %"class.soplex::DVector"*, align 8
  %2 = alloca %"class.soplex::DVector"*, align 8
  store %"class.soplex::DVector"* %this, %"class.soplex::DVector"** %1, align 8
  call void @llvm.dbg.declare(metadata %"class.soplex::DVector"** %1, metadata !3124, metadata !2573), !dbg !3126
  store %"class.soplex::DVector"* %vec, %"class.soplex::DVector"** %2, align 8
  call void @llvm.dbg.declare(metadata %"class.soplex::DVector"** %2, metadata !3127, metadata !2573), !dbg !3129
  %3 = load %"class.soplex::DVector"** %1
  %4 = load %"class.soplex::DVector"** %2, align 8, !dbg !3130
  %5 = icmp ne %"class.soplex::DVector"* %3, %4, !dbg !3132
  br i1 %5, label %6, label %22, !dbg !3133

; <label>:6                                       ; preds = %0
  %7 = load %"class.soplex::DVector"** %2, align 8, !dbg !3134
  %8 = bitcast %"class.soplex::DVector"* %7 to %"class.soplex::Vector"*, !dbg !3134
  %9 = call i32 @_ZNK6soplex6Vector3dimEv(%"class.soplex::Vector"* %8), !dbg !3134
  %10 = bitcast %"class.soplex::DVector"* %3 to %"class.soplex::Vector"*, !dbg !3137
  %11 = call i32 @_ZNK6soplex6Vector3dimEv(%"class.soplex::Vector"* %10), !dbg !3137
  %12 = icmp ne i32 %9, %11, !dbg !3134
  br i1 %12, label %13, label %17, !dbg !3138

; <label>:13                                      ; preds = %6
  %14 = load %"class.soplex::DVector"** %2, align 8, !dbg !3139
  %15 = bitcast %"class.soplex::DVector"* %14 to %"class.soplex::Vector"*, !dbg !3139
  %16 = call i32 @_ZNK6soplex6Vector3dimEv(%"class.soplex::Vector"* %15), !dbg !3139
  call void @_ZN6soplex7DVector5reDimEi(%"class.soplex::DVector"* %3, i32 %16), !dbg !3140
  br label %17, !dbg !3140

; <label>:17                                      ; preds = %13, %6
  %18 = bitcast %"class.soplex::DVector"* %3 to %"class.soplex::Vector"*, !dbg !3141
  %19 = load %"class.soplex::DVector"** %2, align 8, !dbg !3141
  %20 = bitcast %"class.soplex::DVector"* %19 to %"class.soplex::Vector"*, !dbg !3141
  %21 = call dereferenceable(16) %"class.soplex::Vector"* @_ZN6soplex6VectoraSERKS0_(%"class.soplex::Vector"* %18, %"class.soplex::Vector"* dereferenceable(16) %20), !dbg !3141
  br label %22, !dbg !3142

; <label>:22                                      ; preds = %17, %0
  ret %"class.soplex::DVector"* %3, !dbg !3143
}

declare i32 @__gxx_personality_v0(...)

declare void @_ZN6soplex7DVectorD1Ev(%"class.soplex::DVector"*) #0

; Function Attrs: noinline noreturn nounwind
define linkonce_odr hidden void @__clang_call_terminate(i8*) #7 {
  %2 = call i8* @__cxa_begin_catch(i8* %0) #1
  call void @_ZSt9terminatev() #11
  unreachable
}

declare i8* @__cxa_begin_catch(i8*)

declare void @_ZSt9terminatev()

; Function Attrs: uwtable
define void @_ZN6soplex10SPxSteepPR6left4XEiNS_5SPxIdEii(%"class.soplex::SPxSteepPR"* %this, i32 %n, %"class.soplex::SPxId"* %id, i32 %start, i32 %incr) #4 align 2 {
  %1 = alloca %"class.soplex::SPxSteepPR"*, align 8
  %2 = alloca i32, align 4
  %3 = alloca i32, align 4
  %4 = alloca i32, align 4
  %i = alloca i32, align 4
  %j = alloca i32, align 4
  %x = alloca double, align 8
  %delta = alloca double, align 8
  %coPenalty_ptr = alloca double*, align 8
  %workVec_ptr = alloca double*, align 8
  %rhoVec = alloca double*, align 8
  %rhov_1 = alloca double, align 8
  %beta_q = alloca double, align 8
  %rhoIdx = alloca %"class.soplex::IdxSet"*, align 8
  %len = alloca i32, align 4
  store %"class.soplex::SPxSteepPR"* %this, %"class.soplex::SPxSteepPR"** %1, align 8
  call void @llvm.dbg.declare(metadata %"class.soplex::SPxSteepPR"** %1, metadata !3144, metadata !2573), !dbg !3145
  store i32 %n, i32* %2, align 4
  call void @llvm.dbg.declare(metadata i32* %2, metadata !3146, metadata !2573), !dbg !3147
  call void @llvm.dbg.declare(metadata %"class.soplex::SPxId"* %id, metadata !3148, metadata !2573), !dbg !3149
  store i32 %start, i32* %3, align 4
  call void @llvm.dbg.declare(metadata i32* %3, metadata !3150, metadata !2573), !dbg !3151
  store i32 %incr, i32* %4, align 4
  call void @llvm.dbg.declare(metadata i32* %4, metadata !3152, metadata !2573), !dbg !3153
  %5 = load %"class.soplex::SPxSteepPR"** %1
  %6 = bitcast %"class.soplex::SPxSteepPR"* %5 to %"class.soplex::SPxPricer"*, !dbg !3154
  %7 = getelementptr inbounds %"class.soplex::SPxPricer"* %6, i32 0, i32 2, !dbg !3154
  %8 = load %"class.soplex::SoPlex"** %7, align 8, !dbg !3154
  %9 = call i32 @_ZNK6soplex6SoPlex4typeEv(%"class.soplex::SoPlex"* %8), !dbg !3154
  %10 = icmp eq i32 %9, 1, !dbg !3154
  br i1 %10, label %11, label %12, !dbg !3154

; <label>:11                                      ; preds = %0
  br label %14, !dbg !3155

; <label>:12                                      ; preds = %0
  call void @__assert_fail(i8* getelementptr inbounds ([35 x i8]* @.str3, i32 0, i32 0), i8* getelementptr inbounds ([14 x i8]* @.str1, i32 0, i32 0), i32 225, i8* getelementptr inbounds ([62 x i8]* @__PRETTY_FUNCTION__._ZN6soplex10SPxSteepPR6left4XEiNS_5SPxIdEii, i32 0, i32 0)) #11, !dbg !3157
  unreachable, !dbg !3157
                                                  ; No predecessors!
  br label %14, !dbg !3154

; <label>:14                                      ; preds = %13, %11
  %15 = call zeroext i1 @_ZNK6soplex5SPxId7isValidEv(%"class.soplex::SPxId"* %id), !dbg !3159
  br i1 %15, label %16, label %161, !dbg !3161

; <label>:16                                      ; preds = %14
  call void @llvm.dbg.declare(metadata i32* %i, metadata !3162, metadata !2573), !dbg !3164
  call void @llvm.dbg.declare(metadata i32* %j, metadata !3165, metadata !2573), !dbg !3166
  call void @llvm.dbg.declare(metadata double* %x, metadata !3167, metadata !2573), !dbg !3168
  call void @llvm.dbg.declare(metadata double* %delta, metadata !3169, metadata !2573), !dbg !3170
  %17 = bitcast %"class.soplex::SPxSteepPR"* %5 to %"class.soplex::SPxPricer"*, !dbg !3171
  %18 = getelementptr inbounds %"class.soplex::SPxPricer"* %17, i32 0, i32 2, !dbg !3171
  %19 = load %"class.soplex::SoPlex"** %18, align 8, !dbg !3171
  %20 = call dereferenceable(208) %"class.soplex::SPxBasis"* @_ZN6soplex6SoPlex5basisEv(%"class.soplex::SoPlex"* %19), !dbg !3171
  %21 = call i32 @_ZNK6soplex8SPxBasis9iterationEv(%"class.soplex::SPxBasis"* %20), !dbg !3171
  %22 = sitofp i32 %21 to double, !dbg !3171
  %23 = fdiv double 1.000000e+00, %22, !dbg !3172
  %24 = fadd double 1.000000e-01, %23, !dbg !3173
  store double %24, double* %delta, align 8, !dbg !3170
  call void @llvm.dbg.declare(metadata double** %coPenalty_ptr, metadata !3174, metadata !2573), !dbg !3175
  %25 = getelementptr inbounds %"class.soplex::SPxSteepPR"* %5, i32 0, i32 2, !dbg !3176
  %26 = bitcast %"class.soplex::DVector"* %25 to %"class.soplex::Vector"*, !dbg !3176
  %27 = call double* @_ZN6soplex6Vector7get_ptrEv(%"class.soplex::Vector"* %26), !dbg !3176
  store double* %27, double** %coPenalty_ptr, align 8, !dbg !3175
  call void @llvm.dbg.declare(metadata double** %workVec_ptr, metadata !3177, metadata !2573), !dbg !3178
  %28 = getelementptr inbounds %"class.soplex::SPxSteepPR"* %5, i32 0, i32 3, !dbg !3179
  %29 = bitcast %"class.soplex::DVector"* %28 to %"class.soplex::Vector"*, !dbg !3179
  %30 = call double* @_ZNK6soplex6Vector13get_const_ptrEv(%"class.soplex::Vector"* %29), !dbg !3179
  store double* %30, double** %workVec_ptr, align 8, !dbg !3178
  call void @llvm.dbg.declare(metadata double** %rhoVec, metadata !3180, metadata !2573), !dbg !3181
  %31 = bitcast %"class.soplex::SPxSteepPR"* %5 to %"class.soplex::SPxPricer"*, !dbg !3182
  %32 = getelementptr inbounds %"class.soplex::SPxPricer"* %31, i32 0, i32 2, !dbg !3182
  %33 = load %"class.soplex::SoPlex"** %32, align 8, !dbg !3182
  %34 = call dereferenceable(104) %"class.soplex::UpdateVector"* @_ZNK6soplex6SoPlex4fVecEv(%"class.soplex::SoPlex"* %33), !dbg !3182
  %35 = call dereferenceable(64) %"class.soplex::SSVector"* @_ZN6soplex12UpdateVector5deltaEv(%"class.soplex::UpdateVector"* %34), !dbg !3182
  %36 = call double* @_ZNK6soplex8SSVector6valuesEv(%"class.soplex::SSVector"* %35), !dbg !3182
  store double* %36, double** %rhoVec, align 8, !dbg !3181
  call void @llvm.dbg.declare(metadata double* %rhov_1, metadata !3183, metadata !2573), !dbg !3184
  %37 = load i32* %2, align 4, !dbg !3185
  %38 = sext i32 %37 to i64, !dbg !3186
  %39 = load double** %rhoVec, align 8, !dbg !3186
  %40 = getelementptr inbounds double* %39, i64 %38, !dbg !3186
  %41 = load double* %40, align 8, !dbg !3186
  %42 = fdiv double 1.000000e+00, %41, !dbg !3187
  store double %42, double* %rhov_1, align 8, !dbg !3184
  call void @llvm.dbg.declare(metadata double* %beta_q, metadata !3188, metadata !2573), !dbg !3189
  %43 = bitcast %"class.soplex::SPxSteepPR"* %5 to %"class.soplex::SPxPricer"*, !dbg !3190
  %44 = getelementptr inbounds %"class.soplex::SPxPricer"* %43, i32 0, i32 2, !dbg !3190
  %45 = load %"class.soplex::SoPlex"** %44, align 8, !dbg !3190
  %46 = call dereferenceable(104) %"class.soplex::UpdateVector"* @_ZNK6soplex6SoPlex6coPvecEv(%"class.soplex::SoPlex"* %45), !dbg !3190
  %47 = call dereferenceable(64) %"class.soplex::SSVector"* @_ZN6soplex12UpdateVector5deltaEv(%"class.soplex::UpdateVector"* %46), !dbg !3190
  %48 = call double @_ZNK6soplex8SSVector7length2Ev(%"class.soplex::SSVector"* %47), !dbg !3190
  %49 = load double* %rhov_1, align 8, !dbg !3191
  %50 = fmul double %48, %49, !dbg !3190
  %51 = load double* %rhov_1, align 8, !dbg !3192
  %52 = fmul double %50, %51, !dbg !3190
  store double %52, double* %beta_q, align 8, !dbg !3189
  %53 = load i32* %2, align 4, !dbg !3193
  %54 = sext i32 %53 to i64, !dbg !3193
  %55 = load double** %rhoVec, align 8, !dbg !3193
  %56 = getelementptr inbounds double* %55, i64 %54, !dbg !3193
  %57 = load double* %56, align 8, !dbg !3193
  %58 = bitcast %"class.soplex::SPxSteepPR"* %5 to %"class.soplex::SPxPricer"*, !dbg !3193
  %59 = getelementptr inbounds %"class.soplex::SPxPricer"* %58, i32 0, i32 3, !dbg !3193
  %60 = load double* %59, align 8, !dbg !3193
  %61 = fcmp oge double %57, %60, !dbg !3193
  br i1 %61, label %73, label %62, !dbg !3193

; <label>:62                                      ; preds = %16
  %63 = load i32* %2, align 4, !dbg !3194
  %64 = sext i32 %63 to i64, !dbg !3194
  %65 = load double** %rhoVec, align 8, !dbg !3194
  %66 = getelementptr inbounds double* %65, i64 %64, !dbg !3194
  %67 = load double* %66, align 8, !dbg !3194
  %68 = fsub double -0.000000e+00, %67, !dbg !3194
  %69 = bitcast %"class.soplex::SPxSteepPR"* %5 to %"class.soplex::SPxPricer"*, !dbg !3194
  %70 = getelementptr inbounds %"class.soplex::SPxPricer"* %69, i32 0, i32 3, !dbg !3194
  %71 = load double* %70, align 8, !dbg !3194
  %72 = fcmp oge double %68, %71, !dbg !3194
  br i1 %72, label %73, label %74, !dbg !3194

; <label>:73                                      ; preds = %62, %16
  br label %76, !dbg !3196

; <label>:74                                      ; preds = %62
  call void @__assert_fail(i8* getelementptr inbounds ([44 x i8]* @.str4, i32 0, i32 0), i8* getelementptr inbounds ([14 x i8]* @.str1, i32 0, i32 0), i32 240, i8* getelementptr inbounds ([62 x i8]* @__PRETTY_FUNCTION__._ZN6soplex10SPxSteepPR6left4XEiNS_5SPxIdEii, i32 0, i32 0)) #11, !dbg !3199
  unreachable, !dbg !3199
                                                  ; No predecessors!
  br label %76, !dbg !3193

; <label>:76                                      ; preds = %75, %73
  call void @llvm.dbg.declare(metadata %"class.soplex::IdxSet"** %rhoIdx, metadata !3201, metadata !2573), !dbg !3202
  %77 = bitcast %"class.soplex::SPxSteepPR"* %5 to %"class.soplex::SPxPricer"*, !dbg !3203
  %78 = getelementptr inbounds %"class.soplex::SPxPricer"* %77, i32 0, i32 2, !dbg !3203
  %79 = load %"class.soplex::SoPlex"** %78, align 8, !dbg !3203
  %80 = call dereferenceable(104) %"class.soplex::UpdateVector"* @_ZNK6soplex6SoPlex4fVecEv(%"class.soplex::SoPlex"* %79), !dbg !3203
  %81 = call dereferenceable(16) %"class.soplex::IdxSet"* @_ZNK6soplex12UpdateVector3idxEv(%"class.soplex::UpdateVector"* %80), !dbg !3203
  store %"class.soplex::IdxSet"* %81, %"class.soplex::IdxSet"** %rhoIdx, align 8, !dbg !3202
  call void @llvm.dbg.declare(metadata i32* %len, metadata !3204, metadata !2573), !dbg !3205
  %82 = bitcast %"class.soplex::SPxSteepPR"* %5 to %"class.soplex::SPxPricer"*, !dbg !3206
  %83 = getelementptr inbounds %"class.soplex::SPxPricer"* %82, i32 0, i32 2, !dbg !3206
  %84 = load %"class.soplex::SoPlex"** %83, align 8, !dbg !3206
  %85 = call dereferenceable(104) %"class.soplex::UpdateVector"* @_ZNK6soplex6SoPlex4fVecEv(%"class.soplex::SoPlex"* %84), !dbg !3206
  %86 = call dereferenceable(16) %"class.soplex::IdxSet"* @_ZNK6soplex12UpdateVector3idxEv(%"class.soplex::UpdateVector"* %85), !dbg !3206
  %87 = call i32 @_ZNK6soplex6IdxSet4sizeEv(%"class.soplex::IdxSet"* %86), !dbg !3206
  store i32 %87, i32* %len, align 4, !dbg !3205
  %88 = load i32* %len, align 4, !dbg !3207
  %89 = sub nsw i32 %88, 1, !dbg !3207
  %90 = load i32* %3, align 4, !dbg !3209
  %91 = sub nsw i32 %89, %90, !dbg !3207
  store i32 %91, i32* %i, align 4, !dbg !3210
  br label %92, !dbg !3210

; <label>:92                                      ; preds = %151, %76
  %93 = load i32* %i, align 4, !dbg !3211
  %94 = icmp sge i32 %93, 0, !dbg !3211
  br i1 %94, label %95, label %155, !dbg !3215

; <label>:95                                      ; preds = %92
  %96 = load %"class.soplex::IdxSet"** %rhoIdx, align 8, !dbg !3216
  %97 = load i32* %i, align 4, !dbg !3218
  %98 = call i32 @_ZNK6soplex6IdxSet5indexEi(%"class.soplex::IdxSet"* %96, i32 %97), !dbg !3216
  store i32 %98, i32* %j, align 4, !dbg !3219
  %99 = load i32* %j, align 4, !dbg !3220
  %100 = sext i32 %99 to i64, !dbg !3221
  %101 = load double** %rhoVec, align 8, !dbg !3221
  %102 = getelementptr inbounds double* %101, i64 %100, !dbg !3221
  %103 = load double* %102, align 8, !dbg !3221
  %104 = load double* %beta_q, align 8, !dbg !3222
  %105 = load i32* %j, align 4, !dbg !3223
  %106 = sext i32 %105 to i64, !dbg !3224
  %107 = load double** %rhoVec, align 8, !dbg !3224
  %108 = getelementptr inbounds double* %107, i64 %106, !dbg !3224
  %109 = load double* %108, align 8, !dbg !3224
  %110 = fmul double %104, %109, !dbg !3222
  %111 = load double* %rhov_1, align 8, !dbg !3225
  %112 = fmul double 2.000000e+00, %111, !dbg !3226
  %113 = load i32* %j, align 4, !dbg !3227
  %114 = sext i32 %113 to i64, !dbg !3228
  %115 = load double** %workVec_ptr, align 8, !dbg !3228
  %116 = getelementptr inbounds double* %115, i64 %114, !dbg !3228
  %117 = load double* %116, align 8, !dbg !3228
  %118 = fmul double %112, %117, !dbg !3226
  %119 = fsub double %110, %118, !dbg !3222
  %120 = fmul double %103, %119, !dbg !3221
  %121 = load i32* %j, align 4, !dbg !3229
  %122 = sext i32 %121 to i64, !dbg !3230
  %123 = load double** %coPenalty_ptr, align 8, !dbg !3230
  %124 = getelementptr inbounds double* %123, i64 %122, !dbg !3230
  %125 = load double* %124, align 8, !dbg !3230
  %126 = fadd double %125, %120, !dbg !3230
  store double %126, double* %124, align 8, !dbg !3230
  store double %126, double* %x, align 8, !dbg !3231
  %127 = load double* %x, align 8, !dbg !3232
  %128 = load double* %delta, align 8, !dbg !3234
  %129 = fcmp olt double %127, %128, !dbg !3232
  br i1 %129, label %130, label %136, !dbg !3235

; <label>:130                                     ; preds = %95
  %131 = load double* %delta, align 8, !dbg !3236
  %132 = load i32* %j, align 4, !dbg !3237
  %133 = sext i32 %132 to i64, !dbg !3238
  %134 = load double** %coPenalty_ptr, align 8, !dbg !3238
  %135 = getelementptr inbounds double* %134, i64 %133, !dbg !3238
  store double %131, double* %135, align 8, !dbg !3238
  br label %150, !dbg !3238

; <label>:136                                     ; preds = %95
  %137 = load double* %x, align 8, !dbg !3239
  %138 = load double* @_ZN6soplex8infinityE, align 8, !dbg !3241
  %139 = fcmp oge double %137, %138, !dbg !3239
  br i1 %139, label %140, label %149, !dbg !3242

; <label>:140                                     ; preds = %136
  %141 = bitcast %"class.soplex::SPxSteepPR"* %5 to %"class.soplex::SPxPricer"*, !dbg !3243
  %142 = getelementptr inbounds %"class.soplex::SPxPricer"* %141, i32 0, i32 3, !dbg !3243
  %143 = load double* %142, align 8, !dbg !3243
  %144 = fdiv double 1.000000e+00, %143, !dbg !3244
  %145 = load i32* %j, align 4, !dbg !3245
  %146 = sext i32 %145 to i64, !dbg !3246
  %147 = load double** %coPenalty_ptr, align 8, !dbg !3246
  %148 = getelementptr inbounds double* %147, i64 %146, !dbg !3246
  store double %144, double* %148, align 8, !dbg !3246
  br label %149, !dbg !3246

; <label>:149                                     ; preds = %140, %136
  br label %150

; <label>:150                                     ; preds = %149, %130
  br label %151, !dbg !3247

; <label>:151                                     ; preds = %150
  %152 = load i32* %4, align 4, !dbg !3248
  %153 = load i32* %i, align 4, !dbg !3249
  %154 = sub nsw i32 %153, %152, !dbg !3249
  store i32 %154, i32* %i, align 4, !dbg !3249
  br label %92, !dbg !3250

; <label>:155                                     ; preds = %92
  %156 = load double* %beta_q, align 8, !dbg !3251
  %157 = load i32* %2, align 4, !dbg !3252
  %158 = sext i32 %157 to i64, !dbg !3253
  %159 = load double** %coPenalty_ptr, align 8, !dbg !3253
  %160 = getelementptr inbounds double* %159, i64 %158, !dbg !3253
  store double %156, double* %160, align 8, !dbg !3253
  br label %161, !dbg !3254

; <label>:161                                     ; preds = %155, %14
  ret void, !dbg !3255
}

; Function Attrs: nounwind uwtable
define linkonce_odr i32 @_ZNK6soplex6SoPlex4typeEv(%"class.soplex::SoPlex"* %this) #2 align 2 {
  %1 = alloca %"class.soplex::SoPlex"*, align 8
  store %"class.soplex::SoPlex"* %this, %"class.soplex::SoPlex"** %1, align 8
  call void @llvm.dbg.declare(metadata %"class.soplex::SoPlex"** %1, metadata !3256, metadata !2573), !dbg !3257
  %2 = load %"class.soplex::SoPlex"** %1
  %3 = getelementptr inbounds %"class.soplex::SoPlex"* %2, i32 0, i32 2, !dbg !3258
  %4 = load i32* %3, align 4, !dbg !3258
  ret i32 %4, !dbg !3259
}

; Function Attrs: nounwind uwtable
define linkonce_odr zeroext i1 @_ZNK6soplex5SPxId7isValidEv(%"class.soplex::SPxId"* %this) #2 align 2 {
  %1 = alloca %"class.soplex::SPxId"*, align 8
  store %"class.soplex::SPxId"* %this, %"class.soplex::SPxId"** %1, align 8
  call void @llvm.dbg.declare(metadata %"class.soplex::SPxId"** %1, metadata !3260, metadata !2573), !dbg !3261
  %2 = load %"class.soplex::SPxId"** %1
  %3 = bitcast %"class.soplex::SPxId"* %2 to %"class.soplex::DataKey"*, !dbg !3262
  %4 = bitcast %"class.soplex::DataKey"* %3 to i32*, !dbg !3262
  %5 = load i32* %4, align 4, !dbg !3262
  %6 = shl i32 %5, 24, !dbg !3262
  %7 = ashr i32 %6, 24, !dbg !3262
  %8 = icmp ne i32 %7, 0, !dbg !3262
  ret i1 %8, !dbg !3263
}

; Function Attrs: nounwind uwtable
define linkonce_odr i32 @_ZNK6soplex8SPxBasis9iterationEv(%"class.soplex::SPxBasis"* %this) #2 align 2 {
  %1 = alloca %"class.soplex::SPxBasis"*, align 8
  store %"class.soplex::SPxBasis"* %this, %"class.soplex::SPxBasis"** %1, align 8
  call void @llvm.dbg.declare(metadata %"class.soplex::SPxBasis"** %1, metadata !3264, metadata !2573), !dbg !3265
  %2 = load %"class.soplex::SPxBasis"** %1
  %3 = getelementptr inbounds %"class.soplex::SPxBasis"* %2, i32 0, i32 9, !dbg !3266
  %4 = load i32* %3, align 4, !dbg !3266
  ret i32 %4, !dbg !3267
}

; Function Attrs: nounwind uwtable
define linkonce_odr double* @_ZN6soplex6Vector7get_ptrEv(%"class.soplex::Vector"* %this) #2 align 2 {
  %1 = alloca %"class.soplex::Vector"*, align 8
  store %"class.soplex::Vector"* %this, %"class.soplex::Vector"** %1, align 8
  call void @llvm.dbg.declare(metadata %"class.soplex::Vector"** %1, metadata !3268, metadata !2573), !dbg !3269
  %2 = load %"class.soplex::Vector"** %1
  %3 = getelementptr inbounds %"class.soplex::Vector"* %2, i32 0, i32 1, !dbg !3270
  %4 = load double** %3, align 8, !dbg !3270
  ret double* %4, !dbg !3271
}

; Function Attrs: nounwind uwtable
define linkonce_odr double* @_ZNK6soplex6Vector13get_const_ptrEv(%"class.soplex::Vector"* %this) #2 align 2 {
  %1 = alloca %"class.soplex::Vector"*, align 8
  store %"class.soplex::Vector"* %this, %"class.soplex::Vector"** %1, align 8
  call void @llvm.dbg.declare(metadata %"class.soplex::Vector"** %1, metadata !3272, metadata !2573), !dbg !3273
  %2 = load %"class.soplex::Vector"** %1
  %3 = getelementptr inbounds %"class.soplex::Vector"* %2, i32 0, i32 1, !dbg !3274
  %4 = load double** %3, align 8, !dbg !3274
  ret double* %4, !dbg !3275
}

; Function Attrs: nounwind uwtable
define linkonce_odr dereferenceable(104) %"class.soplex::UpdateVector"* @_ZNK6soplex6SoPlex4fVecEv(%"class.soplex::SoPlex"* %this) #2 align 2 {
  %1 = alloca %"class.soplex::SoPlex"*, align 8
  store %"class.soplex::SoPlex"* %this, %"class.soplex::SoPlex"** %1, align 8
  call void @llvm.dbg.declare(metadata %"class.soplex::SoPlex"** %1, metadata !3276, metadata !2573), !dbg !3277
  %2 = load %"class.soplex::SoPlex"** %1
  %3 = getelementptr inbounds %"class.soplex::SoPlex"* %2, i32 0, i32 38, !dbg !3278
  %4 = load %"class.soplex::UpdateVector"** %3, align 8, !dbg !3278
  ret %"class.soplex::UpdateVector"* %4, !dbg !3279
}

; Function Attrs: nounwind uwtable
define linkonce_odr dereferenceable(64) %"class.soplex::SSVector"* @_ZN6soplex12UpdateVector5deltaEv(%"class.soplex::UpdateVector"* %this) #2 align 2 {
  %1 = alloca %"class.soplex::UpdateVector"*, align 8
  store %"class.soplex::UpdateVector"* %this, %"class.soplex::UpdateVector"** %1, align 8
  call void @llvm.dbg.declare(metadata %"class.soplex::UpdateVector"** %1, metadata !3280, metadata !2573), !dbg !3282
  %2 = load %"class.soplex::UpdateVector"** %1
  %3 = getelementptr inbounds %"class.soplex::UpdateVector"* %2, i32 0, i32 2, !dbg !3283
  ret %"class.soplex::SSVector"* %3, !dbg !3283
}

; Function Attrs: nounwind uwtable
define linkonce_odr double* @_ZNK6soplex8SSVector6valuesEv(%"class.soplex::SSVector"* %this) #2 align 2 {
  %1 = alloca %"class.soplex::SSVector"*, align 8
  store %"class.soplex::SSVector"* %this, %"class.soplex::SSVector"** %1, align 8
  call void @llvm.dbg.declare(metadata %"class.soplex::SSVector"** %1, metadata !3284, metadata !2573), !dbg !3286
  %2 = load %"class.soplex::SSVector"** %1
  %3 = bitcast %"class.soplex::SSVector"* %2 to %"class.soplex::Vector"*, !dbg !3287
  %4 = getelementptr inbounds %"class.soplex::Vector"* %3, i32 0, i32 1, !dbg !3287
  %5 = load double** %4, align 8, !dbg !3287
  ret double* %5, !dbg !3288
}

; Function Attrs: nounwind uwtable
define linkonce_odr dereferenceable(104) %"class.soplex::UpdateVector"* @_ZNK6soplex6SoPlex6coPvecEv(%"class.soplex::SoPlex"* %this) #2 align 2 {
  %1 = alloca %"class.soplex::SoPlex"*, align 8
  store %"class.soplex::SoPlex"* %this, %"class.soplex::SoPlex"** %1, align 8
  call void @llvm.dbg.declare(metadata %"class.soplex::SoPlex"** %1, metadata !3289, metadata !2573), !dbg !3290
  %2 = load %"class.soplex::SoPlex"** %1
  %3 = getelementptr inbounds %"class.soplex::SoPlex"* %2, i32 0, i32 40, !dbg !3291
  %4 = load %"class.soplex::UpdateVector"** %3, align 8, !dbg !3291
  ret %"class.soplex::UpdateVector"* %4, !dbg !3292
}

declare double @_ZNK6soplex8SSVector7length2Ev(%"class.soplex::SSVector"*) #0

; Function Attrs: uwtable
define linkonce_odr dereferenceable(16) %"class.soplex::IdxSet"* @_ZNK6soplex12UpdateVector3idxEv(%"class.soplex::UpdateVector"* %this) #4 align 2 {
  %1 = alloca %"class.soplex::UpdateVector"*, align 8
  store %"class.soplex::UpdateVector"* %this, %"class.soplex::UpdateVector"** %1, align 8
  call void @llvm.dbg.declare(metadata %"class.soplex::UpdateVector"** %1, metadata !3293, metadata !2573), !dbg !3295
  %2 = load %"class.soplex::UpdateVector"** %1
  %3 = getelementptr inbounds %"class.soplex::UpdateVector"* %2, i32 0, i32 2, !dbg !3296
  %4 = call dereferenceable(16) %"class.soplex::IdxSet"* @_ZNK6soplex8SSVector7indicesEv(%"class.soplex::SSVector"* %3), !dbg !3296
  ret %"class.soplex::IdxSet"* %4, !dbg !3297
}

; Function Attrs: nounwind uwtable
define linkonce_odr i32 @_ZNK6soplex6IdxSet4sizeEv(%"class.soplex::IdxSet"* %this) #2 align 2 {
  %1 = alloca %"class.soplex::IdxSet"*, align 8
  store %"class.soplex::IdxSet"* %this, %"class.soplex::IdxSet"** %1, align 8
  call void @llvm.dbg.declare(metadata %"class.soplex::IdxSet"** %1, metadata !3298, metadata !2573), !dbg !3300
  %2 = load %"class.soplex::IdxSet"** %1
  %3 = getelementptr inbounds %"class.soplex::IdxSet"* %2, i32 0, i32 0, !dbg !3301
  %4 = load i32* %3, align 4, !dbg !3301
  ret i32 %4, !dbg !3302
}

; Function Attrs: uwtable
define linkonce_odr i32 @_ZNK6soplex6IdxSet5indexEi(%"class.soplex::IdxSet"* %this, i32 %n) #4 align 2 {
  %1 = alloca %"class.soplex::IdxSet"*, align 8
  %2 = alloca i32, align 4
  store %"class.soplex::IdxSet"* %this, %"class.soplex::IdxSet"** %1, align 8
  call void @llvm.dbg.declare(metadata %"class.soplex::IdxSet"** %1, metadata !3303, metadata !2573), !dbg !3304
  store i32 %n, i32* %2, align 4
  call void @llvm.dbg.declare(metadata i32* %2, metadata !3305, metadata !2573), !dbg !3307
  %3 = load %"class.soplex::IdxSet"** %1
  %4 = load i32* %2, align 4, !dbg !3308
  %5 = icmp sge i32 %4, 0, !dbg !3308
  br i1 %5, label %6, label %11, !dbg !3308

; <label>:6                                       ; preds = %0
  %7 = load i32* %2, align 4, !dbg !3309
  %8 = call i32 @_ZNK6soplex6IdxSet4sizeEv(%"class.soplex::IdxSet"* %3), !dbg !3309
  %9 = icmp slt i32 %7, %8, !dbg !3309
  br i1 %9, label %10, label %11, !dbg !3309

; <label>:10                                      ; preds = %6
  br label %13, !dbg !3311

; <label>:11                                      ; preds = %6, %0
  call void @__assert_fail(i8* getelementptr inbounds ([21 x i8]* @.str35, i32 0, i32 0), i8* getelementptr inbounds ([11 x i8]* @.str30, i32 0, i32 0), i32 69, i8* getelementptr inbounds ([37 x i8]* @__PRETTY_FUNCTION__._ZNK6soplex6IdxSet5indexEi, i32 0, i32 0)) #11, !dbg !3313
  unreachable, !dbg !3313
                                                  ; No predecessors!
  br label %13, !dbg !3308

; <label>:13                                      ; preds = %12, %10
  %14 = load i32* %2, align 4, !dbg !3316
  %15 = sext i32 %14 to i64, !dbg !3317
  %16 = getelementptr inbounds %"class.soplex::IdxSet"* %3, i32 0, i32 2, !dbg !3317
  %17 = load i32** %16, align 8, !dbg !3317
  %18 = getelementptr inbounds i32* %17, i64 %15, !dbg !3317
  %19 = load i32* %18, align 4, !dbg !3317
  ret i32 %19, !dbg !3318
}

; Function Attrs: uwtable
define void @_ZN6soplex10SPxSteepPR5left4EiNS_5SPxIdE(%"class.soplex::SPxSteepPR"* %this, i32 %n, %"class.soplex::SPxId"* %id) unnamed_addr #4 align 2 {
  %1 = alloca %"class.soplex::SPxSteepPR"*, align 8
  %2 = alloca i32, align 4
  %3 = alloca %"class.soplex::SPxId", align 4
  %4 = alloca %"class.soplex::SPxId", align 4
  %5 = alloca %"class.soplex::SPxId", align 4
  store %"class.soplex::SPxSteepPR"* %this, %"class.soplex::SPxSteepPR"** %1, align 8
  call void @llvm.dbg.declare(metadata %"class.soplex::SPxSteepPR"** %1, metadata !3319, metadata !2573), !dbg !3320
  store i32 %n, i32* %2, align 4
  call void @llvm.dbg.declare(metadata i32* %2, metadata !3321, metadata !2573), !dbg !3322
  call void @llvm.dbg.declare(metadata %"class.soplex::SPxId"* %id, metadata !3323, metadata !2573), !dbg !3324
  %6 = load %"class.soplex::SPxSteepPR"** %1
  %7 = bitcast %"class.soplex::SPxSteepPR"* %6 to %"class.soplex::SPxPricer"*, !dbg !3325
  %8 = getelementptr inbounds %"class.soplex::SPxPricer"* %7, i32 0, i32 2, !dbg !3325
  %9 = load %"class.soplex::SoPlex"** %8, align 8, !dbg !3325
  call void @_ZN6soplex5SPxIdC2ERKS0_(%"class.soplex::SPxId"* %3, %"class.soplex::SPxId"* dereferenceable(4) %id), !dbg !3325
  %10 = call i32 @_ZNK6soplex6SoPlex4isIdENS_5SPxIdE(%"class.soplex::SoPlex"* %9, %"class.soplex::SPxId"* %3), !dbg !3325
  %11 = icmp ne i32 %10, 0, !dbg !3325
  br i1 %11, label %12, label %24, !dbg !3327

; <label>:12                                      ; preds = %0
  %13 = getelementptr inbounds %"class.soplex::SPxSteepPR"* %6, i32 0, i32 10, !dbg !3328
  %14 = bitcast %"class.soplex::SPxSteepPR"* %6 to %"class.soplex::SPxPricer"*, !dbg !3329
  %15 = getelementptr inbounds %"class.soplex::SPxPricer"* %14, i32 0, i32 2, !dbg !3329
  %16 = load %"class.soplex::SoPlex"** %15, align 8, !dbg !3329
  %17 = bitcast %"class.soplex::SoPlex"* %16 to %"class.soplex::SPxLP"*, !dbg !3329
  %18 = call i32 @_ZNK6soplex5SPxLP6numberERKNS_5SPxIdE(%"class.soplex::SPxLP"* %17, %"class.soplex::SPxId"* dereferenceable(4) %id), !dbg !3329
  %19 = call dereferenceable(8) double* @_ZN6soplex9DataArrayIdEixEi(%"class.soplex::DataArray.3"* %13, i32 %18), !dbg !3328
  %20 = load double* %19, !dbg !3328
  %21 = getelementptr inbounds %"class.soplex::SPxSteepPR"* %6, i32 0, i32 11, !dbg !3330
  %22 = load i32* %2, align 4, !dbg !3331
  %23 = call dereferenceable(8) double* @_ZN6soplex9DataArrayIdEixEi(%"class.soplex::DataArray.3"* %21, i32 %22), !dbg !3330
  store double %20, double* %23, !dbg !3330
  br label %43, !dbg !3330

; <label>:24                                      ; preds = %0
  %25 = bitcast %"class.soplex::SPxSteepPR"* %6 to %"class.soplex::SPxPricer"*, !dbg !3332
  %26 = getelementptr inbounds %"class.soplex::SPxPricer"* %25, i32 0, i32 2, !dbg !3332
  %27 = load %"class.soplex::SoPlex"** %26, align 8, !dbg !3332
  call void @_ZN6soplex5SPxIdC2ERKS0_(%"class.soplex::SPxId"* %4, %"class.soplex::SPxId"* dereferenceable(4) %id), !dbg !3332
  %28 = call i32 @_ZNK6soplex6SoPlex6isCoIdENS_5SPxIdE(%"class.soplex::SoPlex"* %27, %"class.soplex::SPxId"* %4), !dbg !3332
  %29 = icmp ne i32 %28, 0, !dbg !3332
  br i1 %29, label %30, label %42, !dbg !3334

; <label>:30                                      ; preds = %24
  %31 = getelementptr inbounds %"class.soplex::SPxSteepPR"* %6, i32 0, i32 9, !dbg !3335
  %32 = bitcast %"class.soplex::SPxSteepPR"* %6 to %"class.soplex::SPxPricer"*, !dbg !3336
  %33 = getelementptr inbounds %"class.soplex::SPxPricer"* %32, i32 0, i32 2, !dbg !3336
  %34 = load %"class.soplex::SoPlex"** %33, align 8, !dbg !3336
  %35 = bitcast %"class.soplex::SoPlex"* %34 to %"class.soplex::SPxLP"*, !dbg !3336
  %36 = call i32 @_ZNK6soplex5SPxLP6numberERKNS_5SPxIdE(%"class.soplex::SPxLP"* %35, %"class.soplex::SPxId"* dereferenceable(4) %id), !dbg !3336
  %37 = call dereferenceable(8) double* @_ZN6soplex9DataArrayIdEixEi(%"class.soplex::DataArray.3"* %31, i32 %36), !dbg !3335
  %38 = load double* %37, !dbg !3335
  %39 = getelementptr inbounds %"class.soplex::SPxSteepPR"* %6, i32 0, i32 11, !dbg !3337
  %40 = load i32* %2, align 4, !dbg !3338
  %41 = call dereferenceable(8) double* @_ZN6soplex9DataArrayIdEixEi(%"class.soplex::DataArray.3"* %39, i32 %40), !dbg !3337
  store double %38, double* %41, !dbg !3337
  br label %42, !dbg !3337

; <label>:42                                      ; preds = %30, %24
  br label %43

; <label>:43                                      ; preds = %42, %12
  %44 = load i32* %2, align 4, !dbg !3339
  call void @_ZN6soplex5SPxIdC2ERKS0_(%"class.soplex::SPxId"* %5, %"class.soplex::SPxId"* dereferenceable(4) %id), !dbg !3340
  call void @_ZN6soplex10SPxSteepPR6left4XEiNS_5SPxIdEii(%"class.soplex::SPxSteepPR"* %6, i32 %44, %"class.soplex::SPxId"* %5, i32 0, i32 1), !dbg !3340
  ret void, !dbg !3341
}

; Function Attrs: nounwind uwtable
define linkonce_odr i32 @_ZNK6soplex6SoPlex6isCoIdENS_5SPxIdE(%"class.soplex::SoPlex"* %this, %"class.soplex::SPxId"* %p_id) #2 align 2 {
  %1 = alloca %"class.soplex::SoPlex"*, align 8
  store %"class.soplex::SoPlex"* %this, %"class.soplex::SoPlex"** %1, align 8
  call void @llvm.dbg.declare(metadata %"class.soplex::SoPlex"** %1, metadata !3342, metadata !2573), !dbg !3343
  call void @llvm.dbg.declare(metadata %"class.soplex::SPxId"* %p_id, metadata !3344, metadata !2573), !dbg !3345
  %2 = load %"class.soplex::SoPlex"** %1
  %3 = bitcast %"class.soplex::SPxId"* %p_id to %"class.soplex::DataKey"*, !dbg !3346
  %4 = bitcast %"class.soplex::DataKey"* %3 to i32*, !dbg !3346
  %5 = load i32* %4, align 4, !dbg !3346
  %6 = shl i32 %5, 24, !dbg !3346
  %7 = ashr i32 %6, 24, !dbg !3346
  %8 = getelementptr inbounds %"class.soplex::SoPlex"* %2, i32 0, i32 4, !dbg !3347
  %9 = load i32* %8, align 4, !dbg !3347
  %10 = mul nsw i32 %7, %9, !dbg !3346
  %11 = icmp slt i32 %10, 0, !dbg !3346
  %12 = zext i1 %11 to i32, !dbg !3346
  ret i32 %12, !dbg !3348
}

; Function Attrs: uwtable
define i32 @_ZN6soplex10SPxSteepPR12selectLeaveXERdii(%"class.soplex::SPxSteepPR"* %this, double* dereferenceable(8) %best, i32 %start, i32 %incr) #4 align 2 {
  %1 = alloca %"class.soplex::SPxSteepPR"*, align 8
  %2 = alloca double*, align 8
  %3 = alloca i32, align 4
  %4 = alloca i32, align 4
  %coPenalty_ptr = alloca double*, align 8
  %fTest = alloca double*, align 8
  %p = alloca double*, align 8
  %x = alloca double, align 8
  %selIdx = alloca i32, align 4
  %i = alloca i32, align 4
  store %"class.soplex::SPxSteepPR"* %this, %"class.soplex::SPxSteepPR"** %1, align 8
  call void @llvm.dbg.declare(metadata %"class.soplex::SPxSteepPR"** %1, metadata !3349, metadata !2573), !dbg !3350
  store double* %best, double** %2, align 8
  call void @llvm.dbg.declare(metadata double** %2, metadata !3351, metadata !2573), !dbg !3352
  store i32 %start, i32* %3, align 4
  call void @llvm.dbg.declare(metadata i32* %3, metadata !3353, metadata !2573), !dbg !3354
  store i32 %incr, i32* %4, align 4
  call void @llvm.dbg.declare(metadata i32* %4, metadata !3355, metadata !2573), !dbg !3356
  %5 = load %"class.soplex::SPxSteepPR"** %1
  call void @llvm.dbg.declare(metadata double** %coPenalty_ptr, metadata !3357, metadata !2573), !dbg !3358
  %6 = getelementptr inbounds %"class.soplex::SPxSteepPR"* %5, i32 0, i32 2, !dbg !3359
  %7 = bitcast %"class.soplex::DVector"* %6 to %"class.soplex::Vector"*, !dbg !3359
  %8 = call double* @_ZNK6soplex6Vector13get_const_ptrEv(%"class.soplex::Vector"* %7), !dbg !3359
  store double* %8, double** %coPenalty_ptr, align 8, !dbg !3358
  call void @llvm.dbg.declare(metadata double** %fTest, metadata !3360, metadata !2573), !dbg !3361
  %9 = bitcast %"class.soplex::SPxSteepPR"* %5 to %"class.soplex::SPxPricer"*, !dbg !3362
  %10 = getelementptr inbounds %"class.soplex::SPxPricer"* %9, i32 0, i32 2, !dbg !3362
  %11 = load %"class.soplex::SoPlex"** %10, align 8, !dbg !3362
  %12 = call dereferenceable(16) %"class.soplex::Vector"* @_ZNK6soplex6SoPlex5fTestEv(%"class.soplex::SoPlex"* %11), !dbg !3362
  %13 = call double* @_ZNK6soplex6Vector13get_const_ptrEv(%"class.soplex::Vector"* %12), !dbg !3362
  store double* %13, double** %fTest, align 8, !dbg !3361
  call void @llvm.dbg.declare(metadata double** %p, metadata !3363, metadata !2573), !dbg !3364
  %14 = getelementptr inbounds %"class.soplex::SPxSteepPR"* %5, i32 0, i32 11, !dbg !3365
  %15 = call double* @_ZNK6soplex9DataArrayIdE13get_const_ptrEv(%"class.soplex::DataArray.3"* %14), !dbg !3365
  store double* %15, double** %p, align 8, !dbg !3364
  call void @llvm.dbg.declare(metadata double* %x, metadata !3366, metadata !2573), !dbg !3367
  call void @llvm.dbg.declare(metadata i32* %selIdx, metadata !3368, metadata !2573), !dbg !3369
  %16 = load double* @_ZN6soplex8infinityE, align 8, !dbg !3370
  %17 = fsub double -0.000000e+00, %16, !dbg !3371
  %18 = load double** %2, align 8, !dbg !3372
  store double %17, double* %18, align 8, !dbg !3372
  store i32 -1, i32* %selIdx, align 4, !dbg !3373
  call void @llvm.dbg.declare(metadata i32* %i, metadata !3374, metadata !2573), !dbg !3376
  %19 = bitcast %"class.soplex::SPxSteepPR"* %5 to %"class.soplex::SPxPricer"*, !dbg !3377
  %20 = getelementptr inbounds %"class.soplex::SPxPricer"* %19, i32 0, i32 2, !dbg !3377
  %21 = load %"class.soplex::SoPlex"** %20, align 8, !dbg !3377
  %22 = call i32 @_ZNK6soplex6SoPlex3dimEv(%"class.soplex::SoPlex"* %21), !dbg !3377
  %23 = sub nsw i32 %22, 1, !dbg !3377
  %24 = load i32* %3, align 4, !dbg !3378
  %25 = sub nsw i32 %23, %24, !dbg !3377
  store i32 %25, i32* %i, align 4, !dbg !3376
  br label %26, !dbg !3379

; <label>:26                                      ; preds = %113, %0
  %27 = load i32* %i, align 4, !dbg !3380
  %28 = icmp sge i32 %27, 0, !dbg !3380
  br i1 %28, label %29, label %117, !dbg !3384

; <label>:29                                      ; preds = %26
  %30 = load i32* %i, align 4, !dbg !3385
  %31 = sext i32 %30 to i64, !dbg !3387
  %32 = load double** %fTest, align 8, !dbg !3387
  %33 = getelementptr inbounds double* %32, i64 %31, !dbg !3387
  %34 = load double* %33, align 8, !dbg !3387
  store double %34, double* %x, align 8, !dbg !3388
  %35 = load double* %x, align 8, !dbg !3389
  %36 = bitcast %"class.soplex::SPxSteepPR"* %5 to %"class.soplex::SPxPricer"*, !dbg !3391
  %37 = getelementptr inbounds %"class.soplex::SPxPricer"* %36, i32 0, i32 3, !dbg !3391
  %38 = load double* %37, align 8, !dbg !3391
  %39 = fsub double -0.000000e+00, %38, !dbg !3392
  %40 = fcmp olt double %35, %39, !dbg !3389
  br i1 %40, label %41, label %112, !dbg !3393

; <label>:41                                      ; preds = %29
  %42 = load i32* %i, align 4, !dbg !3394
  %43 = sext i32 %42 to i64, !dbg !3397
  %44 = load double** %coPenalty_ptr, align 8, !dbg !3397
  %45 = getelementptr inbounds double* %44, i64 %43, !dbg !3397
  %46 = load double* %45, align 8, !dbg !3397
  %47 = bitcast %"class.soplex::SPxSteepPR"* %5 to %"class.soplex::SPxPricer"*, !dbg !3398
  %48 = getelementptr inbounds %"class.soplex::SPxPricer"* %47, i32 0, i32 3, !dbg !3398
  %49 = load double* %48, align 8, !dbg !3398
  %50 = fcmp olt double %46, %49, !dbg !3397
  br i1 %50, label %51, label %86, !dbg !3399

; <label>:51                                      ; preds = %41
  %52 = call dereferenceable(272) %"class.std::basic_ostream"* @_ZStlsISt11char_traitsIcEERSt13basic_ostreamIcT_ES5_PKc(%"class.std::basic_ostream"* dereferenceable(272) @_ZSt4cerr, i8* getelementptr inbounds ([47 x i8]* @.str5, i32 0, i32 0)), !dbg !3400
  %53 = call dereferenceable(272) %"class.std::basic_ostream"* @_ZNSolsEPFRSoS_E(%"class.std::basic_ostream"* %52, %"class.std::basic_ostream"* (%"class.std::basic_ostream"*)* @_ZSt4endlIcSt11char_traitsIcEERSt13basic_ostreamIT_T0_ES6_), !dbg !3400
  %54 = call dereferenceable(272) %"class.std::basic_ostream"* @_ZStlsISt11char_traitsIcEERSt13basic_ostreamIcT_ES5_PKc(%"class.std::basic_ostream"* dereferenceable(272) @_ZSt4cerr, i8* getelementptr inbounds ([3 x i8]* @.str6, i32 0, i32 0)), !dbg !3402
  %55 = load i32* %i, align 4, !dbg !3403
  %56 = call dereferenceable(272) %"class.std::basic_ostream"* @_ZNSolsEi(%"class.std::basic_ostream"* %54, i32 %55), !dbg !3402
  %57 = call dereferenceable(272) %"class.std::basic_ostream"* @_ZStlsISt11char_traitsIcEERSt13basic_ostreamIcT_ES5_PKc(%"class.std::basic_ostream"* dereferenceable(272) %56, i8* getelementptr inbounds ([4 x i8]* @.str7, i32 0, i32 0)), !dbg !3404
  %58 = load double* %x, align 8, !dbg !3405
  %59 = call dereferenceable(272) %"class.std::basic_ostream"* @_ZNSolsEd(%"class.std::basic_ostream"* %57, double %58), !dbg !3404
  %60 = call dereferenceable(272) %"class.std::basic_ostream"* @_ZStlsISt11char_traitsIcEERSt13basic_ostreamIcT_ES5_PKc(%"class.std::basic_ostream"* dereferenceable(272) %59, i8* getelementptr inbounds ([19 x i8]* @.str8, i32 0, i32 0)), !dbg !3406
  %61 = load i32* %i, align 4, !dbg !3407
  %62 = sext i32 %61 to i64, !dbg !3408
  %63 = load double** %coPenalty_ptr, align 8, !dbg !3408
  %64 = getelementptr inbounds double* %63, i64 %62, !dbg !3408
  %65 = load double* %64, align 8, !dbg !3408
  %66 = call dereferenceable(272) %"class.std::basic_ostream"* @_ZNSolsEd(%"class.std::basic_ostream"* %60, double %65), !dbg !3406
  %67 = call dereferenceable(272) %"class.std::basic_ostream"* @_ZStlsISt11char_traitsIcEERSt13basic_ostreamIcT_ES5_PKc(%"class.std::basic_ostream"* dereferenceable(272) %66, i8* getelementptr inbounds ([9 x i8]* @.str9, i32 0, i32 0)), !dbg !3409
  %68 = bitcast %"class.soplex::SPxSteepPR"* %5 to %"class.soplex::SPxPricer"*, !dbg !3410
  %69 = getelementptr inbounds %"class.soplex::SPxPricer"* %68, i32 0, i32 3, !dbg !3410
  %70 = load double* %69, align 8, !dbg !3410
  %71 = call dereferenceable(272) %"class.std::basic_ostream"* @_ZNSolsEd(%"class.std::basic_ostream"* %67, double %70), !dbg !3409
  %72 = call dereferenceable(272) %"class.std::basic_ostream"* @_ZNSolsEPFRSoS_E(%"class.std::basic_ostream"* %71, %"class.std::basic_ostream"* (%"class.std::basic_ostream"*)* @_ZSt4endlIcSt11char_traitsIcEERSt13basic_ostreamIT_T0_ES6_), !dbg !3409
  %73 = load double* %x, align 8, !dbg !3411
  %74 = load double* %x, align 8, !dbg !3412
  %75 = fmul double %73, %74, !dbg !3411
  %76 = bitcast %"class.soplex::SPxSteepPR"* %5 to %"class.soplex::SPxPricer"*, !dbg !3413
  %77 = getelementptr inbounds %"class.soplex::SPxPricer"* %76, i32 0, i32 3, !dbg !3413
  %78 = load double* %77, align 8, !dbg !3413
  %79 = fdiv double %75, %78, !dbg !3411
  %80 = load i32* %i, align 4, !dbg !3414
  %81 = sext i32 %80 to i64, !dbg !3415
  %82 = load double** %p, align 8, !dbg !3415
  %83 = getelementptr inbounds double* %82, i64 %81, !dbg !3415
  %84 = load double* %83, align 8, !dbg !3415
  %85 = fmul double %79, %84, !dbg !3411
  store double %85, double* %x, align 8, !dbg !3416
  br label %102, !dbg !3417

; <label>:86                                      ; preds = %41
  %87 = load double* %x, align 8, !dbg !3418
  %88 = load double* %x, align 8, !dbg !3419
  %89 = fmul double %87, %88, !dbg !3418
  %90 = load i32* %i, align 4, !dbg !3420
  %91 = sext i32 %90 to i64, !dbg !3421
  %92 = load double** %coPenalty_ptr, align 8, !dbg !3421
  %93 = getelementptr inbounds double* %92, i64 %91, !dbg !3421
  %94 = load double* %93, align 8, !dbg !3421
  %95 = fdiv double %89, %94, !dbg !3418
  %96 = load i32* %i, align 4, !dbg !3422
  %97 = sext i32 %96 to i64, !dbg !3423
  %98 = load double** %p, align 8, !dbg !3423
  %99 = getelementptr inbounds double* %98, i64 %97, !dbg !3423
  %100 = load double* %99, align 8, !dbg !3423
  %101 = fmul double %95, %100, !dbg !3418
  store double %101, double* %x, align 8, !dbg !3424
  br label %102

; <label>:102                                     ; preds = %86, %51
  %103 = load double* %x, align 8, !dbg !3425
  %104 = load double** %2, align 8, !dbg !3427
  %105 = load double* %104, align 8, !dbg !3427
  %106 = fcmp ogt double %103, %105, !dbg !3425
  br i1 %106, label %107, label %111, !dbg !3428

; <label>:107                                     ; preds = %102
  %108 = load double* %x, align 8, !dbg !3429
  %109 = load double** %2, align 8, !dbg !3431
  store double %108, double* %109, align 8, !dbg !3431
  %110 = load i32* %i, align 4, !dbg !3432
  store i32 %110, i32* %selIdx, align 4, !dbg !3433
  br label %111, !dbg !3434

; <label>:111                                     ; preds = %107, %102
  br label %112, !dbg !3435

; <label>:112                                     ; preds = %111, %29
  br label %113, !dbg !3436

; <label>:113                                     ; preds = %112
  %114 = load i32* %4, align 4, !dbg !3437
  %115 = load i32* %i, align 4, !dbg !3438
  %116 = sub nsw i32 %115, %114, !dbg !3438
  store i32 %116, i32* %i, align 4, !dbg !3438
  br label %26, !dbg !3439

; <label>:117                                     ; preds = %26
  %118 = load i32* %selIdx, align 4, !dbg !3440
  ret i32 %118, !dbg !3441
}

; Function Attrs: uwtable
define linkonce_odr dereferenceable(16) %"class.soplex::Vector"* @_ZNK6soplex6SoPlex5fTestEv(%"class.soplex::SoPlex"* %this) #4 align 2 {
  %1 = alloca %"class.soplex::SoPlex"*, align 8
  store %"class.soplex::SoPlex"* %this, %"class.soplex::SoPlex"** %1, align 8
  call void @llvm.dbg.declare(metadata %"class.soplex::SoPlex"** %1, metadata !3442, metadata !2573), !dbg !3443
  %2 = load %"class.soplex::SoPlex"** %1
  %3 = call i32 @_ZNK6soplex6SoPlex4typeEv(%"class.soplex::SoPlex"* %2), !dbg !3444
  %4 = icmp eq i32 %3, 1, !dbg !3444
  br i1 %4, label %5, label %6, !dbg !3444

; <label>:5                                       ; preds = %0
  br label %8, !dbg !3445

; <label>:6                                       ; preds = %0
  call void @__assert_fail(i8* getelementptr inbounds ([16 x i8]* @.str41, i32 0, i32 0), i8* getelementptr inbounds ([11 x i8]* @.str32, i32 0, i32 0), i32 952, i8* getelementptr inbounds ([52 x i8]* @__PRETTY_FUNCTION__._ZNK6soplex6SoPlex5fTestEv, i32 0, i32 0)) #11, !dbg !3447
  unreachable, !dbg !3447
                                                  ; No predecessors!
  br label %8, !dbg !3444

; <label>:8                                       ; preds = %7, %5
  %9 = getelementptr inbounds %"class.soplex::SoPlex"* %2, i32 0, i32 48, !dbg !3449
  %10 = bitcast %"class.soplex::DVector"* %9 to %"class.soplex::Vector"*, !dbg !3449
  ret %"class.soplex::Vector"* %10, !dbg !3449
}

; Function Attrs: nounwind uwtable
define linkonce_odr double* @_ZNK6soplex9DataArrayIdE13get_const_ptrEv(%"class.soplex::DataArray.3"* %this) #2 align 2 {
  %1 = alloca %"class.soplex::DataArray.3"*, align 8
  store %"class.soplex::DataArray.3"* %this, %"class.soplex::DataArray.3"** %1, align 8
  call void @llvm.dbg.declare(metadata %"class.soplex::DataArray.3"** %1, metadata !3450, metadata !2573), !dbg !3451
  %2 = load %"class.soplex::DataArray.3"** %1
  %3 = getelementptr inbounds %"class.soplex::DataArray.3"* %2, i32 0, i32 2, !dbg !3452
  %4 = load double** %3, align 8, !dbg !3452
  ret double* %4, !dbg !3453
}

declare dereferenceable(272) %"class.std::basic_ostream"* @_ZNSolsEPFRSoS_E(%"class.std::basic_ostream"*, %"class.std::basic_ostream"* (%"class.std::basic_ostream"*)*) #0

declare dereferenceable(272) %"class.std::basic_ostream"* @_ZSt4endlIcSt11char_traitsIcEERSt13basic_ostreamIT_T0_ES6_(%"class.std::basic_ostream"* dereferenceable(272)) #0

declare dereferenceable(272) %"class.std::basic_ostream"* @_ZNSolsEi(%"class.std::basic_ostream"*, i32) #0

declare dereferenceable(272) %"class.std::basic_ostream"* @_ZNSolsEd(%"class.std::basic_ostream"*, double) #0

; Function Attrs: uwtable
define i32 @_ZN6soplex10SPxSteepPR11selectLeaveEv(%"class.soplex::SPxSteepPR"* %this) unnamed_addr #4 align 2 {
  %1 = alloca %"class.soplex::SPxSteepPR"*, align 8
  %best = alloca double, align 8
  store %"class.soplex::SPxSteepPR"* %this, %"class.soplex::SPxSteepPR"** %1, align 8
  call void @llvm.dbg.declare(metadata %"class.soplex::SPxSteepPR"** %1, metadata !3454, metadata !2573), !dbg !3455
  %2 = load %"class.soplex::SPxSteepPR"** %1
  %3 = bitcast %"class.soplex::SPxSteepPR"* %2 to i1 (%"class.soplex::SPxSteepPR"*)***, !dbg !3456
  %4 = load i1 (%"class.soplex::SPxSteepPR"*)*** %3, !dbg !3456
  %5 = getelementptr inbounds i1 (%"class.soplex::SPxSteepPR"*)** %4, i64 18, !dbg !3456
  %6 = load i1 (%"class.soplex::SPxSteepPR"*)** %5, !dbg !3456
  %7 = call zeroext i1 %6(%"class.soplex::SPxSteepPR"* %2), !dbg !3456
  br i1 %7, label %8, label %9, !dbg !3456

; <label>:8                                       ; preds = %0
  br label %11, !dbg !3457

; <label>:9                                       ; preds = %0
  call void @__assert_fail(i8* getelementptr inbounds ([15 x i8]* @.str10, i32 0, i32 0), i8* getelementptr inbounds ([14 x i8]* @.str1, i32 0, i32 0), i32 330, i8* getelementptr inbounds ([46 x i8]* @__PRETTY_FUNCTION__._ZN6soplex10SPxSteepPR11selectLeaveEv, i32 0, i32 0)) #11, !dbg !3459
  unreachable, !dbg !3459
                                                  ; No predecessors!
  br label %11, !dbg !3456

; <label>:11                                      ; preds = %10, %8
  call void @llvm.dbg.declare(metadata double* %best, metadata !3461, metadata !2573), !dbg !3462
  %12 = call i32 @_ZN6soplex10SPxSteepPR12selectLeaveXERdii(%"class.soplex::SPxSteepPR"* %2, double* dereferenceable(8) %best, i32 0, i32 1), !dbg !3463
  %13 = getelementptr inbounds %"class.soplex::SPxSteepPR"* %2, i32 0, i32 5, !dbg !3464
  store i32 %12, i32* %13, align 4, !dbg !3464
  %14 = getelementptr inbounds %"class.soplex::SPxSteepPR"* %2, i32 0, i32 5, !dbg !3465
  %15 = load i32* %14, align 4, !dbg !3465
  %16 = icmp sge i32 %15, 0, !dbg !3465
  br i1 %16, label %17, label %49, !dbg !3467

; <label>:17                                      ; preds = %11
  %18 = bitcast %"class.soplex::SPxSteepPR"* %2 to %"class.soplex::SPxPricer"*, !dbg !3468
  %19 = getelementptr inbounds %"class.soplex::SPxPricer"* %18, i32 0, i32 2, !dbg !3468
  %20 = load %"class.soplex::SoPlex"** %19, align 8, !dbg !3468
  %21 = call dereferenceable(208) %"class.soplex::SPxBasis"* @_ZN6soplex6SoPlex5basisEv(%"class.soplex::SoPlex"* %20), !dbg !3468
  %22 = bitcast %"class.soplex::SPxSteepPR"* %2 to %"class.soplex::SPxPricer"*, !dbg !3470
  %23 = getelementptr inbounds %"class.soplex::SPxPricer"* %22, i32 0, i32 2, !dbg !3470
  %24 = load %"class.soplex::SoPlex"** %23, align 8, !dbg !3470
  %25 = call dereferenceable(104) %"class.soplex::UpdateVector"* @_ZNK6soplex6SoPlex6coPvecEv(%"class.soplex::SoPlex"* %24), !dbg !3470
  %26 = call dereferenceable(64) %"class.soplex::SSVector"* @_ZN6soplex12UpdateVector5deltaEv(%"class.soplex::UpdateVector"* %25), !dbg !3470
  %27 = bitcast %"class.soplex::SPxSteepPR"* %2 to %"class.soplex::SPxPricer"*, !dbg !3471
  %28 = getelementptr inbounds %"class.soplex::SPxPricer"* %27, i32 0, i32 2, !dbg !3471
  %29 = load %"class.soplex::SoPlex"** %28, align 8, !dbg !3471
  %30 = getelementptr inbounds %"class.soplex::SPxSteepPR"* %2, i32 0, i32 5, !dbg !3472
  %31 = load i32* %30, align 4, !dbg !3472
  %32 = call dereferenceable(8) %"class.soplex::SVector"* @_ZNK6soplex6SoPlex10unitVectorEi(%"class.soplex::SoPlex"* %29, i32 %31), !dbg !3471
  call void @_ZN6soplex8SPxBasis7coSolveERNS_8SSVectorERKNS_7SVectorE(%"class.soplex::SPxBasis"* %21, %"class.soplex::SSVector"* dereferenceable(64) %26, %"class.soplex::SVector"* dereferenceable(8) %32), !dbg !3468
  %33 = getelementptr inbounds %"class.soplex::SPxSteepPR"* %2, i32 0, i32 13, !dbg !3473
  %34 = load double* %33, align 8, !dbg !3473
  %35 = getelementptr inbounds %"class.soplex::SPxSteepPR"* %2, i32 0, i32 4, !dbg !3474
  %36 = getelementptr inbounds %"class.soplex::SSVector"* %35, i32 0, i32 3, !dbg !3474
  store double %34, double* %36, align 8, !dbg !3474
  %37 = getelementptr inbounds %"class.soplex::SPxSteepPR"* %2, i32 0, i32 4, !dbg !3475
  %38 = bitcast %"class.soplex::SPxSteepPR"* %2 to %"class.soplex::SPxPricer"*, !dbg !3476
  %39 = getelementptr inbounds %"class.soplex::SPxPricer"* %38, i32 0, i32 2, !dbg !3476
  %40 = load %"class.soplex::SoPlex"** %39, align 8, !dbg !3476
  %41 = call dereferenceable(104) %"class.soplex::UpdateVector"* @_ZNK6soplex6SoPlex6coPvecEv(%"class.soplex::SoPlex"* %40), !dbg !3476
  %42 = call dereferenceable(64) %"class.soplex::SSVector"* @_ZN6soplex12UpdateVector5deltaEv(%"class.soplex::UpdateVector"* %41), !dbg !3476
  call void @_ZN6soplex8SSVector16setup_and_assignERS0_(%"class.soplex::SSVector"* %37, %"class.soplex::SSVector"* dereferenceable(64) %42), !dbg !3475
  %43 = bitcast %"class.soplex::SPxSteepPR"* %2 to %"class.soplex::SPxPricer"*, !dbg !3477
  %44 = getelementptr inbounds %"class.soplex::SPxPricer"* %43, i32 0, i32 2, !dbg !3477
  %45 = load %"class.soplex::SoPlex"** %44, align 8, !dbg !3477
  %46 = getelementptr inbounds %"class.soplex::SPxSteepPR"* %2, i32 0, i32 3, !dbg !3478
  %47 = bitcast %"class.soplex::DVector"* %46 to %"class.soplex::Vector"*, !dbg !3478
  %48 = getelementptr inbounds %"class.soplex::SPxSteepPR"* %2, i32 0, i32 4, !dbg !3479
  call void @_ZN6soplex6SoPlex11setup4solveEPNS_6VectorEPNS_8SSVectorE(%"class.soplex::SoPlex"* %45, %"class.soplex::Vector"* %47, %"class.soplex::SSVector"* %48), !dbg !3477
  br label %49, !dbg !3480

; <label>:49                                      ; preds = %17, %11
  %50 = getelementptr inbounds %"class.soplex::SPxSteepPR"* %2, i32 0, i32 5, !dbg !3481
  %51 = load i32* %50, align 4, !dbg !3481
  ret i32 %51, !dbg !3482
}

; Function Attrs: uwtable
define linkonce_odr void @_ZN6soplex8SPxBasis7coSolveERNS_8SSVectorERKNS_7SVectorE(%"class.soplex::SPxBasis"* %this, %"class.soplex::SSVector"* dereferenceable(64) %x, %"class.soplex::SVector"* dereferenceable(8) %rhs) #4 align 2 {
  %1 = alloca %"class.soplex::SPxBasis"*, align 8
  %2 = alloca %"class.soplex::SSVector"*, align 8
  %3 = alloca %"class.soplex::SVector"*, align 8
  store %"class.soplex::SPxBasis"* %this, %"class.soplex::SPxBasis"** %1, align 8
  call void @llvm.dbg.declare(metadata %"class.soplex::SPxBasis"** %1, metadata !3483, metadata !2573), !dbg !3484
  store %"class.soplex::SSVector"* %x, %"class.soplex::SSVector"** %2, align 8
  call void @llvm.dbg.declare(metadata %"class.soplex::SSVector"** %2, metadata !3485, metadata !2573), !dbg !3486
  store %"class.soplex::SVector"* %rhs, %"class.soplex::SVector"** %3, align 8
  call void @llvm.dbg.declare(metadata %"class.soplex::SVector"** %3, metadata !3487, metadata !2573), !dbg !3488
  %4 = load %"class.soplex::SPxBasis"** %1
  %5 = getelementptr inbounds %"class.soplex::SPxBasis"* %4, i32 0, i32 6, !dbg !3489
  %6 = load i8* %5, align 1, !dbg !3489
  %7 = trunc i8 %6 to i1, !dbg !3489
  br i1 %7, label %13, label %8, !dbg !3491

; <label>:8                                       ; preds = %0
  %9 = bitcast %"class.soplex::SPxBasis"* %4 to void (%"class.soplex::SPxBasis"*)***, !dbg !3492
  %10 = load void (%"class.soplex::SPxBasis"*)*** %9, !dbg !3492
  %11 = getelementptr inbounds void (%"class.soplex::SPxBasis"*)** %10, i64 10, !dbg !3492
  %12 = load void (%"class.soplex::SPxBasis"*)** %11, !dbg !3492
  call void %12(%"class.soplex::SPxBasis"* %4), !dbg !3492
  br label %13, !dbg !3492

; <label>:13                                      ; preds = %8, %0
  %14 = getelementptr inbounds %"class.soplex::SPxBasis"* %4, i32 0, i32 5, !dbg !3494
  %15 = load %"class.soplex::SLinSolver"** %14, align 8, !dbg !3494
  %16 = bitcast %"class.soplex::SLinSolver"* %15 to void (%"class.soplex::SLinSolver"*, %"class.soplex::SSVector"*, %"class.soplex::SVector"*)***, !dbg !3494
  %17 = load void (%"class.soplex::SLinSolver"*, %"class.soplex::SSVector"*, %"class.soplex::SVector"*)*** %16, !dbg !3494
  %18 = getelementptr inbounds void (%"class.soplex::SLinSolver"*, %"class.soplex::SSVector"*, %"class.soplex::SVector"*)** %17, i64 24, !dbg !3494
  %19 = load void (%"class.soplex::SLinSolver"*, %"class.soplex::SSVector"*, %"class.soplex::SVector"*)** %18, !dbg !3494
  %20 = load %"class.soplex::SSVector"** %2, align 8, !dbg !3494
  %21 = load %"class.soplex::SVector"** %3, align 8, !dbg !3494
  call void %19(%"class.soplex::SLinSolver"* %15, %"class.soplex::SSVector"* dereferenceable(64) %20, %"class.soplex::SVector"* dereferenceable(8) %21), !dbg !3494
  ret void, !dbg !3495
}

; Function Attrs: uwtable
define linkonce_odr dereferenceable(8) %"class.soplex::SVector"* @_ZNK6soplex6SoPlex10unitVectorEi(%"class.soplex::SoPlex"* %this, i32 %i) #4 align 2 {
  %1 = alloca %"class.soplex::SoPlex"*, align 8
  %2 = alloca i32, align 4
  store %"class.soplex::SoPlex"* %this, %"class.soplex::SoPlex"** %1, align 8
  call void @llvm.dbg.declare(metadata %"class.soplex::SoPlex"** %1, metadata !3496, metadata !2573), !dbg !3497
  store i32 %i, i32* %2, align 4
  call void @llvm.dbg.declare(metadata i32* %2, metadata !3498, metadata !2573), !dbg !3499
  %3 = load %"class.soplex::SoPlex"** %1
  %4 = getelementptr inbounds %"class.soplex::SoPlex"* %3, i32 0, i32 21, !dbg !3500
  %5 = load i32* %2, align 4, !dbg !3501
  %6 = call dereferenceable(40) %"class.soplex::UnitVector"* @_ZNK6soplex5ArrayINS_10UnitVectorEEixEi(%"class.soplex::Array"* %4, i32 %5), !dbg !3500
  %7 = bitcast %"class.soplex::UnitVector"* %6 to %"class.soplex::SVector"*, !dbg !3502
  ret %"class.soplex::SVector"* %7, !dbg !3502
}

declare void @_ZN6soplex8SSVector16setup_and_assignERS0_(%"class.soplex::SSVector"*, %"class.soplex::SSVector"* dereferenceable(64)) #0

; Function Attrs: uwtable
define linkonce_odr void @_ZN6soplex6SoPlex11setup4solveEPNS_6VectorEPNS_8SSVectorE(%"class.soplex::SoPlex"* %this, %"class.soplex::Vector"* %p_y, %"class.soplex::SSVector"* %p_rhs) #4 align 2 {
  %1 = alloca %"class.soplex::SoPlex"*, align 8
  %2 = alloca %"class.soplex::Vector"*, align 8
  %3 = alloca %"class.soplex::SSVector"*, align 8
  store %"class.soplex::SoPlex"* %this, %"class.soplex::SoPlex"** %1, align 8
  call void @llvm.dbg.declare(metadata %"class.soplex::SoPlex"** %1, metadata !3503, metadata !2573), !dbg !3504
  store %"class.soplex::Vector"* %p_y, %"class.soplex::Vector"** %2, align 8
  call void @llvm.dbg.declare(metadata %"class.soplex::Vector"** %2, metadata !3505, metadata !2573), !dbg !3506
  store %"class.soplex::SSVector"* %p_rhs, %"class.soplex::SSVector"** %3, align 8
  call void @llvm.dbg.declare(metadata %"class.soplex::SSVector"** %3, metadata !3507, metadata !2573), !dbg !3508
  %4 = load %"class.soplex::SoPlex"** %1
  %5 = call i32 @_ZNK6soplex6SoPlex4typeEv(%"class.soplex::SoPlex"* %4), !dbg !3509
  %6 = icmp eq i32 %5, 1, !dbg !3509
  br i1 %6, label %7, label %8, !dbg !3509

; <label>:7                                       ; preds = %0
  br label %10, !dbg !3510

; <label>:8                                       ; preds = %0
  call void @__assert_fail(i8* getelementptr inbounds ([16 x i8]* @.str41, i32 0, i32 0), i8* getelementptr inbounds ([11 x i8]* @.str32, i32 0, i32 0), i32 1261, i8* getelementptr inbounds ([71 x i8]* @__PRETTY_FUNCTION__._ZN6soplex6SoPlex11setup4solveEPNS_6VectorEPNS_8SSVectorE, i32 0, i32 0)) #11, !dbg !3512
  unreachable, !dbg !3512
                                                  ; No predecessors!
  br label %10, !dbg !3509

; <label>:10                                      ; preds = %9, %7
  %11 = load %"class.soplex::Vector"** %2, align 8, !dbg !3514
  %12 = getelementptr inbounds %"class.soplex::SoPlex"* %4, i32 0, i32 16, !dbg !3515
  store %"class.soplex::Vector"* %11, %"class.soplex::Vector"** %12, align 8, !dbg !3515
  %13 = load %"class.soplex::SSVector"** %3, align 8, !dbg !3516
  %14 = getelementptr inbounds %"class.soplex::SoPlex"* %4, i32 0, i32 17, !dbg !3517
  store %"class.soplex::SSVector"* %13, %"class.soplex::SSVector"** %14, align 8, !dbg !3517
  ret void, !dbg !3518
}

; Function Attrs: uwtable
define void @_ZN6soplex10SPxSteepPR9entered4XENS_5SPxIdEiiiii(%"class.soplex::SPxSteepPR"* %this, %"class.soplex::SPxId"*, i32 %n, i32 %start2, i32 %incr2, i32 %start1, i32 %incr1) #4 align 2 {
  %2 = alloca %"class.soplex::SPxSteepPR"*, align 8
  %3 = alloca i32, align 4
  %4 = alloca i32, align 4
  %5 = alloca i32, align 4
  %6 = alloca i32, align 4
  %7 = alloca i32, align 4
  %delta = alloca double, align 8
  %coPenalty_ptr = alloca double*, align 8
  %penalty_ptr = alloca double*, align 8
  %workVec_ptr = alloca double*, align 8
  %pVec = alloca double*, align 8
  %pIdx = alloca %"class.soplex::IdxSet"*, align 8
  %coPvec = alloca double*, align 8
  %coPidx = alloca %"class.soplex::IdxSet"*, align 8
  %xi_p = alloca double, align 8
  %i = alloca i32, align 4
  %j = alloca i32, align 4
  %xi_ip = alloca double, align 8
  %x = alloca double, align 8
  store %"class.soplex::SPxSteepPR"* %this, %"class.soplex::SPxSteepPR"** %2, align 8
  call void @llvm.dbg.declare(metadata %"class.soplex::SPxSteepPR"** %2, metadata !3519, metadata !2573), !dbg !3520
  call void @llvm.dbg.declare(metadata %"class.soplex::SPxId"* %0, metadata !3521, metadata !2573), !dbg !3522
  store i32 %n, i32* %3, align 4
  call void @llvm.dbg.declare(metadata i32* %3, metadata !3523, metadata !2573), !dbg !3524
  store i32 %start2, i32* %4, align 4
  call void @llvm.dbg.declare(metadata i32* %4, metadata !3525, metadata !2573), !dbg !3526
  store i32 %incr2, i32* %5, align 4
  call void @llvm.dbg.declare(metadata i32* %5, metadata !3527, metadata !2573), !dbg !3528
  store i32 %start1, i32* %6, align 4
  call void @llvm.dbg.declare(metadata i32* %6, metadata !3529, metadata !2573), !dbg !3530
  store i32 %incr1, i32* %7, align 4
  call void @llvm.dbg.declare(metadata i32* %7, metadata !3531, metadata !2573), !dbg !3532
  %8 = load %"class.soplex::SPxSteepPR"** %2
  %9 = bitcast %"class.soplex::SPxSteepPR"* %8 to %"class.soplex::SPxPricer"*, !dbg !3533
  %10 = getelementptr inbounds %"class.soplex::SPxPricer"* %9, i32 0, i32 2, !dbg !3533
  %11 = load %"class.soplex::SoPlex"** %10, align 8, !dbg !3533
  %12 = call i32 @_ZNK6soplex6SoPlex4typeEv(%"class.soplex::SoPlex"* %11), !dbg !3533
  %13 = icmp eq i32 %12, -1, !dbg !3533
  br i1 %13, label %14, label %15, !dbg !3533

; <label>:14                                      ; preds = %1
  br label %17, !dbg !3534

; <label>:15                                      ; preds = %1
  call void @__assert_fail(i8* getelementptr inbounds ([35 x i8]* @.str11, i32 0, i32 0), i8* getelementptr inbounds ([14 x i8]* @.str1, i32 0, i32 0), i32 364, i8* getelementptr inbounds ([75 x i8]* @__PRETTY_FUNCTION__._ZN6soplex10SPxSteepPR9entered4XENS_5SPxIdEiiiii, i32 0, i32 0)) #11, !dbg !3536
  unreachable, !dbg !3536
                                                  ; No predecessors!
  br label %17, !dbg !3533

; <label>:17                                      ; preds = %16, %14
  %18 = load i32* %3, align 4, !dbg !3538
  %19 = icmp sge i32 %18, 0, !dbg !3538
  br i1 %19, label %20, label %244, !dbg !3540

; <label>:20                                      ; preds = %17
  %21 = load i32* %3, align 4, !dbg !3541
  %22 = bitcast %"class.soplex::SPxSteepPR"* %8 to %"class.soplex::SPxPricer"*, !dbg !3543
  %23 = getelementptr inbounds %"class.soplex::SPxPricer"* %22, i32 0, i32 2, !dbg !3543
  %24 = load %"class.soplex::SoPlex"** %23, align 8, !dbg !3543
  %25 = call i32 @_ZNK6soplex6SoPlex3dimEv(%"class.soplex::SoPlex"* %24), !dbg !3543
  %26 = icmp slt i32 %21, %25, !dbg !3544
  br i1 %26, label %27, label %244, !dbg !3540

; <label>:27                                      ; preds = %20
  call void @llvm.dbg.declare(metadata double* %delta, metadata !3545, metadata !2573), !dbg !3547
  %28 = bitcast %"class.soplex::SPxSteepPR"* %8 to %"class.soplex::SPxPricer"*, !dbg !3548
  %29 = getelementptr inbounds %"class.soplex::SPxPricer"* %28, i32 0, i32 2, !dbg !3548
  %30 = load %"class.soplex::SoPlex"** %29, align 8, !dbg !3548
  %31 = call dereferenceable(208) %"class.soplex::SPxBasis"* @_ZN6soplex6SoPlex5basisEv(%"class.soplex::SoPlex"* %30), !dbg !3548
  %32 = call i32 @_ZNK6soplex8SPxBasis9iterationEv(%"class.soplex::SPxBasis"* %31), !dbg !3548
  %33 = sitofp i32 %32 to double, !dbg !3548
  %34 = fdiv double 1.000000e+00, %33, !dbg !3549
  %35 = fadd double 2.000000e+00, %34, !dbg !3550
  store double %35, double* %delta, align 8, !dbg !3547
  call void @llvm.dbg.declare(metadata double** %coPenalty_ptr, metadata !3551, metadata !2573), !dbg !3552
  %36 = getelementptr inbounds %"class.soplex::SPxSteepPR"* %8, i32 0, i32 2, !dbg !3553
  %37 = bitcast %"class.soplex::DVector"* %36 to %"class.soplex::Vector"*, !dbg !3553
  %38 = call double* @_ZN6soplex6Vector7get_ptrEv(%"class.soplex::Vector"* %37), !dbg !3553
  store double* %38, double** %coPenalty_ptr, align 8, !dbg !3552
  call void @llvm.dbg.declare(metadata double** %penalty_ptr, metadata !3554, metadata !2573), !dbg !3555
  %39 = getelementptr inbounds %"class.soplex::SPxSteepPR"* %8, i32 0, i32 1, !dbg !3556
  %40 = bitcast %"class.soplex::DVector"* %39 to %"class.soplex::Vector"*, !dbg !3556
  %41 = call double* @_ZN6soplex6Vector7get_ptrEv(%"class.soplex::Vector"* %40), !dbg !3556
  store double* %41, double** %penalty_ptr, align 8, !dbg !3555
  call void @llvm.dbg.declare(metadata double** %workVec_ptr, metadata !3557, metadata !2573), !dbg !3558
  %42 = getelementptr inbounds %"class.soplex::SPxSteepPR"* %8, i32 0, i32 3, !dbg !3559
  %43 = bitcast %"class.soplex::DVector"* %42 to %"class.soplex::Vector"*, !dbg !3559
  %44 = call double* @_ZNK6soplex6Vector13get_const_ptrEv(%"class.soplex::Vector"* %43), !dbg !3559
  store double* %44, double** %workVec_ptr, align 8, !dbg !3558
  call void @llvm.dbg.declare(metadata double** %pVec, metadata !3560, metadata !2573), !dbg !3561
  %45 = bitcast %"class.soplex::SPxSteepPR"* %8 to %"class.soplex::SPxPricer"*, !dbg !3562
  %46 = getelementptr inbounds %"class.soplex::SPxPricer"* %45, i32 0, i32 2, !dbg !3562
  %47 = load %"class.soplex::SoPlex"** %46, align 8, !dbg !3562
  %48 = call dereferenceable(104) %"class.soplex::UpdateVector"* @_ZNK6soplex6SoPlex4pVecEv(%"class.soplex::SoPlex"* %47), !dbg !3562
  %49 = call dereferenceable(64) %"class.soplex::SSVector"* @_ZN6soplex12UpdateVector5deltaEv(%"class.soplex::UpdateVector"* %48), !dbg !3562
  %50 = call double* @_ZNK6soplex8SSVector6valuesEv(%"class.soplex::SSVector"* %49), !dbg !3562
  store double* %50, double** %pVec, align 8, !dbg !3561
  call void @llvm.dbg.declare(metadata %"class.soplex::IdxSet"** %pIdx, metadata !3563, metadata !2573), !dbg !3564
  %51 = bitcast %"class.soplex::SPxSteepPR"* %8 to %"class.soplex::SPxPricer"*, !dbg !3565
  %52 = getelementptr inbounds %"class.soplex::SPxPricer"* %51, i32 0, i32 2, !dbg !3565
  %53 = load %"class.soplex::SoPlex"** %52, align 8, !dbg !3565
  %54 = call dereferenceable(104) %"class.soplex::UpdateVector"* @_ZNK6soplex6SoPlex4pVecEv(%"class.soplex::SoPlex"* %53), !dbg !3565
  %55 = call dereferenceable(16) %"class.soplex::IdxSet"* @_ZNK6soplex12UpdateVector3idxEv(%"class.soplex::UpdateVector"* %54), !dbg !3565
  store %"class.soplex::IdxSet"* %55, %"class.soplex::IdxSet"** %pIdx, align 8, !dbg !3564
  call void @llvm.dbg.declare(metadata double** %coPvec, metadata !3566, metadata !2573), !dbg !3567
  %56 = bitcast %"class.soplex::SPxSteepPR"* %8 to %"class.soplex::SPxPricer"*, !dbg !3568
  %57 = getelementptr inbounds %"class.soplex::SPxPricer"* %56, i32 0, i32 2, !dbg !3568
  %58 = load %"class.soplex::SoPlex"** %57, align 8, !dbg !3568
  %59 = call dereferenceable(104) %"class.soplex::UpdateVector"* @_ZNK6soplex6SoPlex6coPvecEv(%"class.soplex::SoPlex"* %58), !dbg !3568
  %60 = call dereferenceable(64) %"class.soplex::SSVector"* @_ZN6soplex12UpdateVector5deltaEv(%"class.soplex::UpdateVector"* %59), !dbg !3568
  %61 = call double* @_ZNK6soplex8SSVector6valuesEv(%"class.soplex::SSVector"* %60), !dbg !3568
  store double* %61, double** %coPvec, align 8, !dbg !3567
  call void @llvm.dbg.declare(metadata %"class.soplex::IdxSet"** %coPidx, metadata !3569, metadata !2573), !dbg !3570
  %62 = bitcast %"class.soplex::SPxSteepPR"* %8 to %"class.soplex::SPxPricer"*, !dbg !3571
  %63 = getelementptr inbounds %"class.soplex::SPxPricer"* %62, i32 0, i32 2, !dbg !3571
  %64 = load %"class.soplex::SoPlex"** %63, align 8, !dbg !3571
  %65 = call dereferenceable(104) %"class.soplex::UpdateVector"* @_ZNK6soplex6SoPlex6coPvecEv(%"class.soplex::SoPlex"* %64), !dbg !3571
  %66 = call dereferenceable(16) %"class.soplex::IdxSet"* @_ZNK6soplex12UpdateVector3idxEv(%"class.soplex::UpdateVector"* %65), !dbg !3571
  store %"class.soplex::IdxSet"* %66, %"class.soplex::IdxSet"** %coPidx, align 8, !dbg !3570
  call void @llvm.dbg.declare(metadata double* %xi_p, metadata !3572, metadata !2573), !dbg !3573
  %67 = bitcast %"class.soplex::SPxSteepPR"* %8 to %"class.soplex::SPxPricer"*, !dbg !3574
  %68 = getelementptr inbounds %"class.soplex::SPxPricer"* %67, i32 0, i32 2, !dbg !3574
  %69 = load %"class.soplex::SoPlex"** %68, align 8, !dbg !3574
  %70 = call dereferenceable(104) %"class.soplex::UpdateVector"* @_ZNK6soplex6SoPlex4fVecEv(%"class.soplex::SoPlex"* %69), !dbg !3574
  %71 = call dereferenceable(64) %"class.soplex::SSVector"* @_ZN6soplex12UpdateVector5deltaEv(%"class.soplex::UpdateVector"* %70), !dbg !3574
  %72 = load i32* %3, align 4, !dbg !3575
  %73 = call double @_ZNK6soplex8SSVectorixEi(%"class.soplex::SSVector"* %71, i32 %72), !dbg !3574
  %74 = fdiv double 1.000000e+00, %73, !dbg !3576
  store double %74, double* %xi_p, align 8, !dbg !3573
  call void @llvm.dbg.declare(metadata i32* %i, metadata !3577, metadata !2573), !dbg !3578
  call void @llvm.dbg.declare(metadata i32* %j, metadata !3579, metadata !2573), !dbg !3580
  call void @llvm.dbg.declare(metadata double* %xi_ip, metadata !3581, metadata !2573), !dbg !3582
  call void @llvm.dbg.declare(metadata double* %x, metadata !3583, metadata !2573), !dbg !3584
  %75 = bitcast %"class.soplex::SPxSteepPR"* %8 to %"class.soplex::SPxPricer"*, !dbg !3585
  %76 = getelementptr inbounds %"class.soplex::SPxPricer"* %75, i32 0, i32 2, !dbg !3585
  %77 = load %"class.soplex::SoPlex"** %76, align 8, !dbg !3585
  %78 = call dereferenceable(104) %"class.soplex::UpdateVector"* @_ZNK6soplex6SoPlex4fVecEv(%"class.soplex::SoPlex"* %77), !dbg !3585
  %79 = call dereferenceable(64) %"class.soplex::SSVector"* @_ZN6soplex12UpdateVector5deltaEv(%"class.soplex::UpdateVector"* %78), !dbg !3585
  %80 = load i32* %3, align 4, !dbg !3585
  %81 = call double @_ZNK6soplex8SSVectorixEi(%"class.soplex::SSVector"* %79, i32 %80), !dbg !3585
  %82 = bitcast %"class.soplex::SPxSteepPR"* %8 to %"class.soplex::SPxPricer"*, !dbg !3585
  %83 = getelementptr inbounds %"class.soplex::SPxPricer"* %82, i32 0, i32 2, !dbg !3585
  %84 = load %"class.soplex::SoPlex"** %83, align 8, !dbg !3585
  %85 = call double @_ZNK6soplex6SoPlex7epsilonEv(%"class.soplex::SoPlex"* %84), !dbg !3585
  %86 = fcmp ogt double %81, %85, !dbg !3585
  br i1 %86, label %101, label %87, !dbg !3585

; <label>:87                                      ; preds = %27
  %88 = bitcast %"class.soplex::SPxSteepPR"* %8 to %"class.soplex::SPxPricer"*, !dbg !3586
  %89 = getelementptr inbounds %"class.soplex::SPxPricer"* %88, i32 0, i32 2, !dbg !3586
  %90 = load %"class.soplex::SoPlex"** %89, align 8, !dbg !3586
  %91 = call dereferenceable(104) %"class.soplex::UpdateVector"* @_ZNK6soplex6SoPlex4fVecEv(%"class.soplex::SoPlex"* %90), !dbg !3586
  %92 = call dereferenceable(64) %"class.soplex::SSVector"* @_ZN6soplex12UpdateVector5deltaEv(%"class.soplex::UpdateVector"* %91), !dbg !3586
  %93 = load i32* %3, align 4, !dbg !3586
  %94 = call double @_ZNK6soplex8SSVectorixEi(%"class.soplex::SSVector"* %92, i32 %93), !dbg !3586
  %95 = bitcast %"class.soplex::SPxSteepPR"* %8 to %"class.soplex::SPxPricer"*, !dbg !3586
  %96 = getelementptr inbounds %"class.soplex::SPxPricer"* %95, i32 0, i32 2, !dbg !3586
  %97 = load %"class.soplex::SoPlex"** %96, align 8, !dbg !3586
  %98 = call double @_ZNK6soplex6SoPlex7epsilonEv(%"class.soplex::SoPlex"* %97), !dbg !3586
  %99 = fsub double -0.000000e+00, %98, !dbg !3586
  %100 = fcmp olt double %94, %99, !dbg !3586
  br i1 %100, label %101, label %102, !dbg !3586

; <label>:101                                     ; preds = %87, %27
  br label %104, !dbg !3588

; <label>:102                                     ; preds = %87
  call void @__assert_fail(i8* getelementptr inbounds ([108 x i8]* @.str12, i32 0, i32 0), i8* getelementptr inbounds ([14 x i8]* @.str1, i32 0, i32 0), i32 381, i8* getelementptr inbounds ([75 x i8]* @__PRETTY_FUNCTION__._ZN6soplex10SPxSteepPR9entered4XENS_5SPxIdEiiiii, i32 0, i32 0)) #11, !dbg !3591
  unreachable, !dbg !3591
                                                  ; No predecessors!
  br label %104, !dbg !3585

; <label>:104                                     ; preds = %103, %101
  %105 = load %"class.soplex::IdxSet"** %coPidx, align 8, !dbg !3593
  %106 = call i32 @_ZNK6soplex6IdxSet4sizeEv(%"class.soplex::IdxSet"* %105), !dbg !3593
  %107 = sub nsw i32 %106, 1, !dbg !3593
  %108 = load i32* %6, align 4, !dbg !3595
  %109 = sub nsw i32 %107, %108, !dbg !3593
  store i32 %109, i32* %j, align 4, !dbg !3596
  br label %110, !dbg !3596

; <label>:110                                     ; preds = %168, %104
  %111 = load i32* %j, align 4, !dbg !3597
  %112 = icmp sge i32 %111, 0, !dbg !3597
  br i1 %112, label %113, label %172, !dbg !3601

; <label>:113                                     ; preds = %110
  %114 = load %"class.soplex::IdxSet"** %coPidx, align 8, !dbg !3602
  %115 = load i32* %j, align 4, !dbg !3604
  %116 = call i32 @_ZNK6soplex6IdxSet5indexEi(%"class.soplex::IdxSet"* %114, i32 %115), !dbg !3602
  store i32 %116, i32* %i, align 4, !dbg !3605
  %117 = load double* %xi_p, align 8, !dbg !3606
  %118 = load i32* %i, align 4, !dbg !3607
  %119 = sext i32 %118 to i64, !dbg !3608
  %120 = load double** %coPvec, align 8, !dbg !3608
  %121 = getelementptr inbounds double* %120, i64 %119, !dbg !3608
  %122 = load double* %121, align 8, !dbg !3608
  %123 = fmul double %117, %122, !dbg !3606
  store double %123, double* %xi_ip, align 8, !dbg !3609
  %124 = load double* %xi_ip, align 8, !dbg !3610
  %125 = load double* %xi_ip, align 8, !dbg !3611
  %126 = getelementptr inbounds %"class.soplex::SPxSteepPR"* %8, i32 0, i32 7, !dbg !3612
  %127 = load double* %126, align 8, !dbg !3612
  %128 = fmul double %125, %127, !dbg !3611
  %129 = load i32* %i, align 4, !dbg !3613
  %130 = sext i32 %129 to i64, !dbg !3614
  %131 = load double** %workVec_ptr, align 8, !dbg !3614
  %132 = getelementptr inbounds double* %131, i64 %130, !dbg !3614
  %133 = load double* %132, align 8, !dbg !3614
  %134 = fmul double 2.000000e+00, %133, !dbg !3615
  %135 = fsub double %128, %134, !dbg !3611
  %136 = fmul double %124, %135, !dbg !3610
  %137 = load i32* %i, align 4, !dbg !3616
  %138 = sext i32 %137 to i64, !dbg !3617
  %139 = load double** %coPenalty_ptr, align 8, !dbg !3617
  %140 = getelementptr inbounds double* %139, i64 %138, !dbg !3617
  %141 = load double* %140, align 8, !dbg !3617
  %142 = fadd double %141, %136, !dbg !3617
  store double %142, double* %140, align 8, !dbg !3617
  store double %142, double* %x, align 8, !dbg !3618
  %143 = load double* %x, align 8, !dbg !3619
  %144 = load double* %delta, align 8, !dbg !3621
  %145 = fcmp olt double %143, %144, !dbg !3619
  br i1 %145, label %146, label %152, !dbg !3622

; <label>:146                                     ; preds = %113
  %147 = load double* %delta, align 8, !dbg !3623
  %148 = load i32* %i, align 4, !dbg !3624
  %149 = sext i32 %148 to i64, !dbg !3625
  %150 = load double** %coPenalty_ptr, align 8, !dbg !3625
  %151 = getelementptr inbounds double* %150, i64 %149, !dbg !3625
  store double %147, double* %151, align 8, !dbg !3625
  br label %167, !dbg !3625

; <label>:152                                     ; preds = %113
  %153 = load double* %x, align 8, !dbg !3626
  %154 = load double* @_ZN6soplex8infinityE, align 8, !dbg !3628
  %155 = fcmp ogt double %153, %154, !dbg !3626
  br i1 %155, label %156, label %166, !dbg !3629

; <label>:156                                     ; preds = %152
  %157 = bitcast %"class.soplex::SPxSteepPR"* %8 to %"class.soplex::SPxPricer"*, !dbg !3630
  %158 = getelementptr inbounds %"class.soplex::SPxPricer"* %157, i32 0, i32 2, !dbg !3630
  %159 = load %"class.soplex::SoPlex"** %158, align 8, !dbg !3630
  %160 = call double @_ZNK6soplex6SoPlex7epsilonEv(%"class.soplex::SoPlex"* %159), !dbg !3630
  %161 = fdiv double 1.000000e+00, %160, !dbg !3631
  %162 = load i32* %i, align 4, !dbg !3632
  %163 = sext i32 %162 to i64, !dbg !3633
  %164 = load double** %coPenalty_ptr, align 8, !dbg !3633
  %165 = getelementptr inbounds double* %164, i64 %163, !dbg !3633
  store double %161, double* %165, align 8, !dbg !3633
  br label %166, !dbg !3633

; <label>:166                                     ; preds = %156, %152
  br label %167

; <label>:167                                     ; preds = %166, %146
  br label %168, !dbg !3634

; <label>:168                                     ; preds = %167
  %169 = load i32* %7, align 4, !dbg !3635
  %170 = load i32* %j, align 4, !dbg !3636
  %171 = sub nsw i32 %170, %169, !dbg !3636
  store i32 %171, i32* %j, align 4, !dbg !3636
  br label %110, !dbg !3637

; <label>:172                                     ; preds = %110
  %173 = load %"class.soplex::IdxSet"** %pIdx, align 8, !dbg !3638
  %174 = call i32 @_ZNK6soplex6IdxSet4sizeEv(%"class.soplex::IdxSet"* %173), !dbg !3638
  %175 = sub nsw i32 %174, 1, !dbg !3638
  %176 = load i32* %4, align 4, !dbg !3640
  %177 = sub nsw i32 %175, %176, !dbg !3638
  store i32 %177, i32* %j, align 4, !dbg !3641
  br label %178, !dbg !3641

; <label>:178                                     ; preds = %239, %172
  %179 = load i32* %j, align 4, !dbg !3642
  %180 = icmp sge i32 %179, 0, !dbg !3642
  br i1 %180, label %181, label %243, !dbg !3646

; <label>:181                                     ; preds = %178
  %182 = load %"class.soplex::IdxSet"** %pIdx, align 8, !dbg !3647
  %183 = load i32* %j, align 4, !dbg !3649
  %184 = call i32 @_ZNK6soplex6IdxSet5indexEi(%"class.soplex::IdxSet"* %182, i32 %183), !dbg !3647
  store i32 %184, i32* %i, align 4, !dbg !3650
  %185 = load double* %xi_p, align 8, !dbg !3651
  %186 = load i32* %i, align 4, !dbg !3652
  %187 = sext i32 %186 to i64, !dbg !3653
  %188 = load double** %pVec, align 8, !dbg !3653
  %189 = getelementptr inbounds double* %188, i64 %187, !dbg !3653
  %190 = load double* %189, align 8, !dbg !3653
  %191 = fmul double %185, %190, !dbg !3651
  store double %191, double* %xi_ip, align 8, !dbg !3654
  %192 = load double* %xi_ip, align 8, !dbg !3655
  %193 = load double* %xi_ip, align 8, !dbg !3656
  %194 = getelementptr inbounds %"class.soplex::SPxSteepPR"* %8, i32 0, i32 7, !dbg !3657
  %195 = load double* %194, align 8, !dbg !3657
  %196 = fmul double %193, %195, !dbg !3656
  %197 = bitcast %"class.soplex::SPxSteepPR"* %8 to %"class.soplex::SPxPricer"*, !dbg !3658
  %198 = getelementptr inbounds %"class.soplex::SPxPricer"* %197, i32 0, i32 2, !dbg !3658
  %199 = load %"class.soplex::SoPlex"** %198, align 8, !dbg !3658
  %200 = load i32* %i, align 4, !dbg !3659
  %201 = call dereferenceable(8) %"class.soplex::SVector"* @_ZNK6soplex6SoPlex6vectorEi(%"class.soplex::SoPlex"* %199, i32 %200), !dbg !3658
  %202 = getelementptr inbounds %"class.soplex::SPxSteepPR"* %8, i32 0, i32 3, !dbg !3658
  %203 = bitcast %"class.soplex::DVector"* %202 to %"class.soplex::Vector"*, !dbg !3658
  %204 = call double @_ZNK6soplex7SVectormlERKNS_6VectorE(%"class.soplex::SVector"* %201, %"class.soplex::Vector"* dereferenceable(16) %203), !dbg !3658
  %205 = fmul double 2.000000e+00, %204, !dbg !3660
  %206 = fsub double %196, %205, !dbg !3656
  %207 = fmul double %192, %206, !dbg !3655
  %208 = load i32* %i, align 4, !dbg !3661
  %209 = sext i32 %208 to i64, !dbg !3662
  %210 = load double** %penalty_ptr, align 8, !dbg !3662
  %211 = getelementptr inbounds double* %210, i64 %209, !dbg !3662
  %212 = load double* %211, align 8, !dbg !3662
  %213 = fadd double %212, %207, !dbg !3662
  store double %213, double* %211, align 8, !dbg !3662
  store double %213, double* %x, align 8, !dbg !3663
  %214 = load double* %x, align 8, !dbg !3664
  %215 = load double* %delta, align 8, !dbg !3666
  %216 = fcmp olt double %214, %215, !dbg !3664
  br i1 %216, label %217, label %223, !dbg !3667

; <label>:217                                     ; preds = %181
  %218 = load double* %delta, align 8, !dbg !3668
  %219 = load i32* %i, align 4, !dbg !3669
  %220 = sext i32 %219 to i64, !dbg !3670
  %221 = load double** %penalty_ptr, align 8, !dbg !3670
  %222 = getelementptr inbounds double* %221, i64 %220, !dbg !3670
  store double %218, double* %222, align 8, !dbg !3670
  br label %238, !dbg !3670

; <label>:223                                     ; preds = %181
  %224 = load double* %x, align 8, !dbg !3671
  %225 = load double* @_ZN6soplex8infinityE, align 8, !dbg !3673
  %226 = fcmp ogt double %224, %225, !dbg !3671
  br i1 %226, label %227, label %237, !dbg !3674

; <label>:227                                     ; preds = %223
  %228 = bitcast %"class.soplex::SPxSteepPR"* %8 to %"class.soplex::SPxPricer"*, !dbg !3675
  %229 = getelementptr inbounds %"class.soplex::SPxPricer"* %228, i32 0, i32 2, !dbg !3675
  %230 = load %"class.soplex::SoPlex"** %229, align 8, !dbg !3675
  %231 = call double @_ZNK6soplex6SoPlex7epsilonEv(%"class.soplex::SoPlex"* %230), !dbg !3675
  %232 = fdiv double 1.000000e+00, %231, !dbg !3676
  %233 = load i32* %i, align 4, !dbg !3677
  %234 = sext i32 %233 to i64, !dbg !3678
  %235 = load double** %penalty_ptr, align 8, !dbg !3678
  %236 = getelementptr inbounds double* %235, i64 %234, !dbg !3678
  store double %232, double* %236, align 8, !dbg !3678
  br label %237, !dbg !3678

; <label>:237                                     ; preds = %227, %223
  br label %238

; <label>:238                                     ; preds = %237, %217
  br label %239, !dbg !3679

; <label>:239                                     ; preds = %238
  %240 = load i32* %5, align 4, !dbg !3680
  %241 = load i32* %j, align 4, !dbg !3681
  %242 = sub nsw i32 %241, %240, !dbg !3681
  store i32 %242, i32* %j, align 4, !dbg !3681
  br label %178, !dbg !3682

; <label>:243                                     ; preds = %178
  br label %244, !dbg !3683

; <label>:244                                     ; preds = %243, %20, %17
  ret void, !dbg !3684
}

; Function Attrs: nounwind uwtable
define linkonce_odr dereferenceable(104) %"class.soplex::UpdateVector"* @_ZNK6soplex6SoPlex4pVecEv(%"class.soplex::SoPlex"* %this) #2 align 2 {
  %1 = alloca %"class.soplex::SoPlex"*, align 8
  store %"class.soplex::SoPlex"* %this, %"class.soplex::SoPlex"** %1, align 8
  call void @llvm.dbg.declare(metadata %"class.soplex::SoPlex"** %1, metadata !3685, metadata !2573), !dbg !3686
  %2 = load %"class.soplex::SoPlex"** %1
  %3 = getelementptr inbounds %"class.soplex::SoPlex"* %2, i32 0, i32 41, !dbg !3687
  %4 = load %"class.soplex::UpdateVector"** %3, align 8, !dbg !3687
  ret %"class.soplex::UpdateVector"* %4, !dbg !3688
}

; Function Attrs: nounwind uwtable
define linkonce_odr double @_ZNK6soplex8SSVectorixEi(%"class.soplex::SSVector"* %this, i32 %i) #2 align 2 {
  %1 = alloca %"class.soplex::SSVector"*, align 8
  %2 = alloca i32, align 4
  store %"class.soplex::SSVector"* %this, %"class.soplex::SSVector"** %1, align 8
  call void @llvm.dbg.declare(metadata %"class.soplex::SSVector"** %1, metadata !3689, metadata !2573), !dbg !3690
  store i32 %i, i32* %2, align 4
  call void @llvm.dbg.declare(metadata i32* %2, metadata !3691, metadata !2573), !dbg !3693
  %3 = load %"class.soplex::SSVector"** %1
  %4 = load i32* %2, align 4, !dbg !3694
  %5 = sext i32 %4 to i64, !dbg !3695
  %6 = bitcast %"class.soplex::SSVector"* %3 to %"class.soplex::Vector"*, !dbg !3695
  %7 = getelementptr inbounds %"class.soplex::Vector"* %6, i32 0, i32 1, !dbg !3695
  %8 = load double** %7, align 8, !dbg !3695
  %9 = getelementptr inbounds double* %8, i64 %5, !dbg !3695
  %10 = load double* %9, align 8, !dbg !3695
  ret double %10, !dbg !3696
}

; Function Attrs: uwtable
define linkonce_odr double @_ZNK6soplex7SVectormlERKNS_6VectorE(%"class.soplex::SVector"* %this, %"class.soplex::Vector"* dereferenceable(16) %w) #4 align 2 {
  %1 = alloca %"class.soplex::SVector"*, align 8
  %2 = alloca %"class.soplex::Vector"*, align 8
  %x = alloca double, align 8
  %n = alloca i32, align 4
  %e = alloca %"struct.soplex::SVector::Element"*, align 8
  store %"class.soplex::SVector"* %this, %"class.soplex::SVector"** %1, align 8
  call void @llvm.dbg.declare(metadata %"class.soplex::SVector"** %1, metadata !3697, metadata !2573), !dbg !3698
  store %"class.soplex::Vector"* %w, %"class.soplex::Vector"** %2, align 8
  call void @llvm.dbg.declare(metadata %"class.soplex::Vector"** %2, metadata !3699, metadata !2573), !dbg !3701
  %3 = load %"class.soplex::SVector"** %1
  call void @llvm.dbg.declare(metadata double* %x, metadata !3702, metadata !2573), !dbg !3703
  store double 0.000000e+00, double* %x, align 8, !dbg !3703
  call void @llvm.dbg.declare(metadata i32* %n, metadata !3704, metadata !2573), !dbg !3705
  %4 = call i32 @_ZNK6soplex7SVector4sizeEv(%"class.soplex::SVector"* %3), !dbg !3706
  store i32 %4, i32* %n, align 4, !dbg !3705
  call void @llvm.dbg.declare(metadata %"struct.soplex::SVector::Element"** %e, metadata !3707, metadata !2573), !dbg !3708
  %5 = getelementptr inbounds %"class.soplex::SVector"* %3, i32 0, i32 0, !dbg !3709
  %6 = load %"struct.soplex::SVector::Element"** %5, align 8, !dbg !3709
  store %"struct.soplex::SVector::Element"* %6, %"struct.soplex::SVector::Element"** %e, align 8, !dbg !3708
  br label %7, !dbg !3710

; <label>:7                                       ; preds = %11, %0
  %8 = load i32* %n, align 4, !dbg !3711
  %9 = add nsw i32 %8, -1, !dbg !3711
  store i32 %9, i32* %n, align 4, !dbg !3711
  %10 = icmp ne i32 %8, 0, !dbg !3711
  br i1 %10, label %11, label %25, !dbg !3710

; <label>:11                                      ; preds = %7
  %12 = load %"struct.soplex::SVector::Element"** %e, align 8, !dbg !3714
  %13 = getelementptr inbounds %"struct.soplex::SVector::Element"* %12, i32 0, i32 0, !dbg !3714
  %14 = load double* %13, align 8, !dbg !3714
  %15 = load %"class.soplex::Vector"** %2, align 8, !dbg !3716
  %16 = load %"struct.soplex::SVector::Element"** %e, align 8, !dbg !3717
  %17 = getelementptr inbounds %"struct.soplex::SVector::Element"* %16, i32 0, i32 1, !dbg !3717
  %18 = load i32* %17, align 4, !dbg !3717
  %19 = call double @_ZNK6soplex6VectorixEi(%"class.soplex::Vector"* %15, i32 %18), !dbg !3716
  %20 = fmul double %14, %19, !dbg !3714
  %21 = load double* %x, align 8, !dbg !3718
  %22 = fadd double %21, %20, !dbg !3718
  store double %22, double* %x, align 8, !dbg !3718
  %23 = load %"struct.soplex::SVector::Element"** %e, align 8, !dbg !3719
  %24 = getelementptr inbounds %"struct.soplex::SVector::Element"* %23, i32 1, !dbg !3719
  store %"struct.soplex::SVector::Element"* %24, %"struct.soplex::SVector::Element"** %e, align 8, !dbg !3719
  br label %7, !dbg !3710

; <label>:25                                      ; preds = %7
  %26 = load double* %x, align 8, !dbg !3720
  ret double %26, !dbg !3721
}

; Function Attrs: uwtable
define void @_ZN6soplex10SPxSteepPR8entered4ENS_5SPxIdEi(%"class.soplex::SPxSteepPR"* %this, %"class.soplex::SPxId"* %id, i32 %n) unnamed_addr #4 align 2 {
  %1 = alloca %"class.soplex::SPxSteepPR"*, align 8
  %2 = alloca i32, align 4
  %3 = alloca %"class.soplex::SPxId", align 4
  store %"class.soplex::SPxSteepPR"* %this, %"class.soplex::SPxSteepPR"** %1, align 8
  call void @llvm.dbg.declare(metadata %"class.soplex::SPxSteepPR"** %1, metadata !3722, metadata !2573), !dbg !3723
  call void @llvm.dbg.declare(metadata %"class.soplex::SPxId"* %id, metadata !3724, metadata !2573), !dbg !3725
  store i32 %n, i32* %2, align 4
  call void @llvm.dbg.declare(metadata i32* %2, metadata !3726, metadata !2573), !dbg !3727
  %4 = load %"class.soplex::SPxSteepPR"** %1
  call void @_ZN6soplex5SPxIdC2ERKS0_(%"class.soplex::SPxId"* %3, %"class.soplex::SPxId"* dereferenceable(4) %id), !dbg !3728
  %5 = load i32* %2, align 4, !dbg !3729
  call void @_ZN6soplex10SPxSteepPR9entered4XENS_5SPxIdEiiiii(%"class.soplex::SPxSteepPR"* %4, %"class.soplex::SPxId"* %3, i32 %5, i32 0, i32 1, i32 0, i32 1), !dbg !3728
  ret void, !dbg !3730
}

; Function Attrs: uwtable
define void @_ZN6soplex10SPxSteepPR12selectEnterXERdiiii(%"class.soplex::SPxId"* noalias sret %agg.result, %"class.soplex::SPxSteepPR"* %this, double* dereferenceable(8) %best, i32 %start1, i32 %incr1, i32 %start2, i32 %incr2) #4 align 2 {
  %1 = alloca %"class.soplex::SPxSteepPR"*, align 8
  %2 = alloca double*, align 8
  %3 = alloca i32, align 4
  %4 = alloca i32, align 4
  %5 = alloca i32, align 4
  %6 = alloca i32, align 4
  %p = alloca double*, align 8
  %cp = alloca double*, align 8
  %test = alloca double*, align 8
  %coTest = alloca double*, align 8
  %penalty_ptr = alloca double*, align 8
  %coPenalty_ptr = alloca double*, align 8
  %x = alloca double, align 8
  %i = alloca i32, align 4
  %end = alloca i32, align 4
  %7 = alloca %"class.soplex::SPxId", align 4
  %8 = alloca %"class.soplex::SPxId", align 4
  store %"class.soplex::SPxSteepPR"* %this, %"class.soplex::SPxSteepPR"** %1, align 8
  call void @llvm.dbg.declare(metadata %"class.soplex::SPxSteepPR"** %1, metadata !3731, metadata !2573), !dbg !3732
  store double* %best, double** %2, align 8
  call void @llvm.dbg.declare(metadata double** %2, metadata !3733, metadata !2573), !dbg !3734
  store i32 %start1, i32* %3, align 4
  call void @llvm.dbg.declare(metadata i32* %3, metadata !3735, metadata !2573), !dbg !3736
  store i32 %incr1, i32* %4, align 4
  call void @llvm.dbg.declare(metadata i32* %4, metadata !3737, metadata !2573), !dbg !3738
  store i32 %start2, i32* %5, align 4
  call void @llvm.dbg.declare(metadata i32* %5, metadata !3739, metadata !2573), !dbg !3740
  store i32 %incr2, i32* %6, align 4
  call void @llvm.dbg.declare(metadata i32* %6, metadata !3741, metadata !2573), !dbg !3742
  %9 = load %"class.soplex::SPxSteepPR"** %1
  call void @llvm.dbg.declare(metadata double** %p, metadata !3743, metadata !2573), !dbg !3744
  %10 = getelementptr inbounds %"class.soplex::SPxSteepPR"* %9, i32 0, i32 10, !dbg !3745
  %11 = call double* @_ZNK6soplex9DataArrayIdE13get_const_ptrEv(%"class.soplex::DataArray.3"* %10), !dbg !3745
  store double* %11, double** %p, align 8, !dbg !3744
  call void @llvm.dbg.declare(metadata double** %cp, metadata !3746, metadata !2573), !dbg !3747
  %12 = getelementptr inbounds %"class.soplex::SPxSteepPR"* %9, i32 0, i32 9, !dbg !3748
  %13 = call double* @_ZNK6soplex9DataArrayIdE13get_const_ptrEv(%"class.soplex::DataArray.3"* %12), !dbg !3748
  store double* %13, double** %cp, align 8, !dbg !3747
  call void @llvm.dbg.declare(metadata double** %test, metadata !3749, metadata !2573), !dbg !3750
  %14 = bitcast %"class.soplex::SPxSteepPR"* %9 to %"class.soplex::SPxPricer"*, !dbg !3751
  %15 = getelementptr inbounds %"class.soplex::SPxPricer"* %14, i32 0, i32 2, !dbg !3751
  %16 = load %"class.soplex::SoPlex"** %15, align 8, !dbg !3751
  %17 = call dereferenceable(16) %"class.soplex::Vector"* @_ZNK6soplex6SoPlex4testEv(%"class.soplex::SoPlex"* %16), !dbg !3751
  %18 = call double* @_ZNK6soplex6Vector13get_const_ptrEv(%"class.soplex::Vector"* %17), !dbg !3751
  store double* %18, double** %test, align 8, !dbg !3750
  call void @llvm.dbg.declare(metadata double** %coTest, metadata !3752, metadata !2573), !dbg !3753
  %19 = bitcast %"class.soplex::SPxSteepPR"* %9 to %"class.soplex::SPxPricer"*, !dbg !3754
  %20 = getelementptr inbounds %"class.soplex::SPxPricer"* %19, i32 0, i32 2, !dbg !3754
  %21 = load %"class.soplex::SoPlex"** %20, align 8, !dbg !3754
  %22 = call dereferenceable(16) %"class.soplex::Vector"* @_ZNK6soplex6SoPlex6coTestEv(%"class.soplex::SoPlex"* %21), !dbg !3754
  %23 = call double* @_ZNK6soplex6Vector13get_const_ptrEv(%"class.soplex::Vector"* %22), !dbg !3754
  store double* %23, double** %coTest, align 8, !dbg !3753
  call void @llvm.dbg.declare(metadata double** %penalty_ptr, metadata !3755, metadata !2573), !dbg !3756
  %24 = getelementptr inbounds %"class.soplex::SPxSteepPR"* %9, i32 0, i32 1, !dbg !3757
  %25 = bitcast %"class.soplex::DVector"* %24 to %"class.soplex::Vector"*, !dbg !3757
  %26 = call double* @_ZNK6soplex6Vector13get_const_ptrEv(%"class.soplex::Vector"* %25), !dbg !3757
  store double* %26, double** %penalty_ptr, align 8, !dbg !3756
  call void @llvm.dbg.declare(metadata double** %coPenalty_ptr, metadata !3758, metadata !2573), !dbg !3759
  %27 = getelementptr inbounds %"class.soplex::SPxSteepPR"* %9, i32 0, i32 2, !dbg !3760
  %28 = bitcast %"class.soplex::DVector"* %27 to %"class.soplex::Vector"*, !dbg !3760
  %29 = call double* @_ZNK6soplex6Vector13get_const_ptrEv(%"class.soplex::Vector"* %28), !dbg !3760
  store double* %29, double** %coPenalty_ptr, align 8, !dbg !3759
  call void @llvm.dbg.declare(metadata double* %x, metadata !3761, metadata !2573), !dbg !3762
  call void @llvm.dbg.declare(metadata i32* %i, metadata !3763, metadata !2573), !dbg !3764
  call void @llvm.dbg.declare(metadata i32* %end, metadata !3765, metadata !2573), !dbg !3766
  call void @llvm.dbg.declare(metadata %"class.soplex::SPxId"* %agg.result, metadata !3767, metadata !2573), !dbg !3768
  call void @_ZN6soplex5SPxIdC2Ev(%"class.soplex::SPxId"* %agg.result), !dbg !3768
  %30 = load double* @_ZN6soplex8infinityE, align 8, !dbg !3769
  %31 = fsub double -0.000000e+00, %30, !dbg !3770
  %32 = load double** %2, align 8, !dbg !3771
  store double %31, double* %32, align 8, !dbg !3771
  %33 = bitcast %"class.soplex::SPxSteepPR"* %9 to %"class.soplex::SPxPricer"*, !dbg !3772
  %34 = getelementptr inbounds %"class.soplex::SPxPricer"* %33, i32 0, i32 2, !dbg !3772
  %35 = load %"class.soplex::SoPlex"** %34, align 8, !dbg !3772
  %36 = call i32 @_ZNK6soplex6SoPlex5coDimEv(%"class.soplex::SoPlex"* %35), !dbg !3772
  store i32 %36, i32* %end, align 4, !dbg !3774
  %37 = load i32* %5, align 4, !dbg !3775
  store i32 %37, i32* %i, align 4, !dbg !3774
  br label %38, !dbg !3774

; <label>:38                                      ; preds = %85, %0
  %39 = load i32* %i, align 4, !dbg !3776
  %40 = load i32* %end, align 4, !dbg !3780
  %41 = icmp slt i32 %39, %40, !dbg !3781
  br i1 %41, label %42, label %89, !dbg !3782

; <label>:42                                      ; preds = %38
  %43 = load i32* %i, align 4, !dbg !3783
  %44 = sext i32 %43 to i64, !dbg !3785
  %45 = load double** %test, align 8, !dbg !3785
  %46 = getelementptr inbounds double* %45, i64 %44, !dbg !3785
  %47 = load double* %46, align 8, !dbg !3785
  store double %47, double* %x, align 8, !dbg !3786
  %48 = load double* %x, align 8, !dbg !3787
  %49 = bitcast %"class.soplex::SPxSteepPR"* %9 to %"class.soplex::SPxPricer"*, !dbg !3789
  %50 = getelementptr inbounds %"class.soplex::SPxPricer"* %49, i32 0, i32 3, !dbg !3789
  %51 = load double* %50, align 8, !dbg !3789
  %52 = fsub double -0.000000e+00, %51, !dbg !3790
  %53 = fcmp olt double %48, %52, !dbg !3787
  br i1 %53, label %54, label %84, !dbg !3791

; <label>:54                                      ; preds = %42
  %55 = load double* %x, align 8, !dbg !3792
  %56 = load i32* %i, align 4, !dbg !3794
  %57 = sext i32 %56 to i64, !dbg !3795
  %58 = load double** %penalty_ptr, align 8, !dbg !3795
  %59 = getelementptr inbounds double* %58, i64 %57, !dbg !3795
  %60 = load double* %59, align 8, !dbg !3795
  %61 = fdiv double %55, %60, !dbg !3792
  %62 = load double* %x, align 8, !dbg !3796
  %63 = fmul double %62, %61, !dbg !3796
  store double %63, double* %x, align 8, !dbg !3796
  %64 = load i32* %i, align 4, !dbg !3797
  %65 = sext i32 %64 to i64, !dbg !3798
  %66 = load double** %p, align 8, !dbg !3798
  %67 = getelementptr inbounds double* %66, i64 %65, !dbg !3798
  %68 = load double* %67, align 8, !dbg !3798
  %69 = load double* %x, align 8, !dbg !3799
  %70 = fmul double %69, %68, !dbg !3799
  store double %70, double* %x, align 8, !dbg !3799
  %71 = load double* %x, align 8, !dbg !3800
  %72 = load double** %2, align 8, !dbg !3802
  %73 = load double* %72, align 8, !dbg !3802
  %74 = fcmp ogt double %71, %73, !dbg !3800
  br i1 %74, label %75, label %83, !dbg !3803

; <label>:75                                      ; preds = %54
  %76 = load double* %x, align 8, !dbg !3804
  %77 = load double** %2, align 8, !dbg !3806
  store double %76, double* %77, align 8, !dbg !3806
  %78 = bitcast %"class.soplex::SPxSteepPR"* %9 to %"class.soplex::SPxPricer"*, !dbg !3807
  %79 = getelementptr inbounds %"class.soplex::SPxPricer"* %78, i32 0, i32 2, !dbg !3807
  %80 = load %"class.soplex::SoPlex"** %79, align 8, !dbg !3807
  %81 = load i32* %i, align 4, !dbg !3808
  call void @_ZNK6soplex6SoPlex2idEi(%"class.soplex::SPxId"* sret %7, %"class.soplex::SoPlex"* %80, i32 %81), !dbg !3807
  %82 = call dereferenceable(4) %"class.soplex::SPxId"* @_ZN6soplex5SPxIdaSERKS0_(%"class.soplex::SPxId"* %agg.result, %"class.soplex::SPxId"* dereferenceable(4) %7), !dbg !3809
  br label %83, !dbg !3810

; <label>:83                                      ; preds = %75, %54
  br label %84, !dbg !3811

; <label>:84                                      ; preds = %83, %42
  br label %85, !dbg !3812

; <label>:85                                      ; preds = %84
  %86 = load i32* %6, align 4, !dbg !3813
  %87 = load i32* %i, align 4, !dbg !3814
  %88 = add nsw i32 %87, %86, !dbg !3814
  store i32 %88, i32* %i, align 4, !dbg !3814
  br label %38, !dbg !3815

; <label>:89                                      ; preds = %38
  %90 = load i32* %end, align 4, !dbg !3816
  store i32 %90, i32* %6, align 4, !dbg !3817
  %91 = bitcast %"class.soplex::SPxSteepPR"* %9 to %"class.soplex::SPxPricer"*, !dbg !3818
  %92 = getelementptr inbounds %"class.soplex::SPxPricer"* %91, i32 0, i32 2, !dbg !3818
  %93 = load %"class.soplex::SoPlex"** %92, align 8, !dbg !3818
  %94 = call i32 @_ZNK6soplex6SoPlex3dimEv(%"class.soplex::SoPlex"* %93), !dbg !3818
  store i32 %94, i32* %end, align 4, !dbg !3820
  %95 = load i32* %3, align 4, !dbg !3821
  store i32 %95, i32* %i, align 4, !dbg !3820
  br label %96, !dbg !3820

; <label>:96                                      ; preds = %143, %89
  %97 = load i32* %i, align 4, !dbg !3822
  %98 = load i32* %end, align 4, !dbg !3826
  %99 = icmp slt i32 %97, %98, !dbg !3827
  br i1 %99, label %100, label %147, !dbg !3828

; <label>:100                                     ; preds = %96
  %101 = load i32* %i, align 4, !dbg !3829
  %102 = sext i32 %101 to i64, !dbg !3831
  %103 = load double** %coTest, align 8, !dbg !3831
  %104 = getelementptr inbounds double* %103, i64 %102, !dbg !3831
  %105 = load double* %104, align 8, !dbg !3831
  store double %105, double* %x, align 8, !dbg !3832
  %106 = load double* %x, align 8, !dbg !3833
  %107 = bitcast %"class.soplex::SPxSteepPR"* %9 to %"class.soplex::SPxPricer"*, !dbg !3835
  %108 = getelementptr inbounds %"class.soplex::SPxPricer"* %107, i32 0, i32 3, !dbg !3835
  %109 = load double* %108, align 8, !dbg !3835
  %110 = fsub double -0.000000e+00, %109, !dbg !3836
  %111 = fcmp olt double %106, %110, !dbg !3833
  br i1 %111, label %112, label %142, !dbg !3837

; <label>:112                                     ; preds = %100
  %113 = load double* %x, align 8, !dbg !3838
  %114 = load i32* %i, align 4, !dbg !3840
  %115 = sext i32 %114 to i64, !dbg !3841
  %116 = load double** %coPenalty_ptr, align 8, !dbg !3841
  %117 = getelementptr inbounds double* %116, i64 %115, !dbg !3841
  %118 = load double* %117, align 8, !dbg !3841
  %119 = fdiv double %113, %118, !dbg !3838
  %120 = load double* %x, align 8, !dbg !3842
  %121 = fmul double %120, %119, !dbg !3842
  store double %121, double* %x, align 8, !dbg !3842
  %122 = load i32* %i, align 4, !dbg !3843
  %123 = sext i32 %122 to i64, !dbg !3844
  %124 = load double** %cp, align 8, !dbg !3844
  %125 = getelementptr inbounds double* %124, i64 %123, !dbg !3844
  %126 = load double* %125, align 8, !dbg !3844
  %127 = load double* %x, align 8, !dbg !3845
  %128 = fmul double %127, %126, !dbg !3845
  store double %128, double* %x, align 8, !dbg !3845
  %129 = load double* %x, align 8, !dbg !3846
  %130 = load double** %2, align 8, !dbg !3848
  %131 = load double* %130, align 8, !dbg !3848
  %132 = fcmp ogt double %129, %131, !dbg !3846
  br i1 %132, label %133, label %141, !dbg !3849

; <label>:133                                     ; preds = %112
  %134 = load double* %x, align 8, !dbg !3850
  %135 = load double** %2, align 8, !dbg !3852
  store double %134, double* %135, align 8, !dbg !3852
  %136 = bitcast %"class.soplex::SPxSteepPR"* %9 to %"class.soplex::SPxPricer"*, !dbg !3853
  %137 = getelementptr inbounds %"class.soplex::SPxPricer"* %136, i32 0, i32 2, !dbg !3853
  %138 = load %"class.soplex::SoPlex"** %137, align 8, !dbg !3853
  %139 = load i32* %i, align 4, !dbg !3854
  call void @_ZNK6soplex6SoPlex4coIdEi(%"class.soplex::SPxId"* sret %8, %"class.soplex::SoPlex"* %138, i32 %139), !dbg !3853
  %140 = call dereferenceable(4) %"class.soplex::SPxId"* @_ZN6soplex5SPxIdaSERKS0_(%"class.soplex::SPxId"* %agg.result, %"class.soplex::SPxId"* dereferenceable(4) %8), !dbg !3855
  br label %141, !dbg !3856

; <label>:141                                     ; preds = %133, %112
  br label %142, !dbg !3857

; <label>:142                                     ; preds = %141, %100
  br label %143, !dbg !3858

; <label>:143                                     ; preds = %142
  %144 = load i32* %4, align 4, !dbg !3859
  %145 = load i32* %i, align 4, !dbg !3860
  %146 = add nsw i32 %145, %144, !dbg !3860
  store i32 %146, i32* %i, align 4, !dbg !3860
  br label %96, !dbg !3861

; <label>:147                                     ; preds = %96
  %148 = bitcast %"class.soplex::SPxSteepPR"* %9 to i1 (%"class.soplex::SPxSteepPR"*)***, !dbg !3862
  %149 = load i1 (%"class.soplex::SPxSteepPR"*)*** %148, !dbg !3862
  %150 = getelementptr inbounds i1 (%"class.soplex::SPxSteepPR"*)** %149, i64 18, !dbg !3862
  %151 = load i1 (%"class.soplex::SPxSteepPR"*)** %150, !dbg !3862
  %152 = call zeroext i1 %151(%"class.soplex::SPxSteepPR"* %9), !dbg !3862
  br i1 %152, label %153, label %154, !dbg !3862

; <label>:153                                     ; preds = %147
  br label %156, !dbg !3863

; <label>:154                                     ; preds = %147
  call void @__assert_fail(i8* getelementptr inbounds ([15 x i8]* @.str10, i32 0, i32 0), i8* getelementptr inbounds ([14 x i8]* @.str1, i32 0, i32 0), i32 482, i8* getelementptr inbounds ([75 x i8]* @__PRETTY_FUNCTION__._ZN6soplex10SPxSteepPR12selectEnterXERdiiii, i32 0, i32 0)) #11, !dbg !3865
  unreachable, !dbg !3865
                                                  ; No predecessors!
  br label %156, !dbg !3862

; <label>:156                                     ; preds = %155, %153
  ret void, !dbg !3867
}

; Function Attrs: uwtable
define linkonce_odr dereferenceable(16) %"class.soplex::Vector"* @_ZNK6soplex6SoPlex4testEv(%"class.soplex::SoPlex"* %this) #4 align 2 {
  %1 = alloca %"class.soplex::SoPlex"*, align 8
  store %"class.soplex::SoPlex"* %this, %"class.soplex::SoPlex"** %1, align 8
  call void @llvm.dbg.declare(metadata %"class.soplex::SoPlex"** %1, metadata !3868, metadata !2573), !dbg !3869
  %2 = load %"class.soplex::SoPlex"** %1
  %3 = call i32 @_ZNK6soplex6SoPlex4typeEv(%"class.soplex::SoPlex"* %2), !dbg !3870
  %4 = icmp eq i32 %3, -1, !dbg !3870
  br i1 %4, label %5, label %6, !dbg !3870

; <label>:5                                       ; preds = %0
  br label %8, !dbg !3871

; <label>:6                                       ; preds = %0
  call void @__assert_fail(i8* getelementptr inbounds ([16 x i8]* @.str31, i32 0, i32 0), i8* getelementptr inbounds ([11 x i8]* @.str32, i32 0, i32 0), i32 1098, i8* getelementptr inbounds ([51 x i8]* @__PRETTY_FUNCTION__._ZNK6soplex6SoPlex4testEv, i32 0, i32 0)) #11, !dbg !3873
  unreachable, !dbg !3873
                                                  ; No predecessors!
  br label %8, !dbg !3870

; <label>:8                                       ; preds = %7, %5
  %9 = getelementptr inbounds %"class.soplex::SoPlex"* %2, i32 0, i32 49, !dbg !3875
  %10 = bitcast %"class.soplex::DVector"* %9 to %"class.soplex::Vector"*, !dbg !3875
  ret %"class.soplex::Vector"* %10, !dbg !3875
}

; Function Attrs: uwtable
define linkonce_odr dereferenceable(16) %"class.soplex::Vector"* @_ZNK6soplex6SoPlex6coTestEv(%"class.soplex::SoPlex"* %this) #4 align 2 {
  %1 = alloca %"class.soplex::SoPlex"*, align 8
  store %"class.soplex::SoPlex"* %this, %"class.soplex::SoPlex"** %1, align 8
  call void @llvm.dbg.declare(metadata %"class.soplex::SoPlex"** %1, metadata !3876, metadata !2573), !dbg !3877
  %2 = load %"class.soplex::SoPlex"** %1
  %3 = call i32 @_ZNK6soplex6SoPlex4typeEv(%"class.soplex::SoPlex"* %2), !dbg !3878
  %4 = icmp eq i32 %3, -1, !dbg !3878
  br i1 %4, label %5, label %6, !dbg !3878

; <label>:5                                       ; preds = %0
  br label %8, !dbg !3879

; <label>:6                                       ; preds = %0
  call void @__assert_fail(i8* getelementptr inbounds ([16 x i8]* @.str31, i32 0, i32 0), i8* getelementptr inbounds ([11 x i8]* @.str32, i32 0, i32 0), i32 1032, i8* getelementptr inbounds ([53 x i8]* @__PRETTY_FUNCTION__._ZNK6soplex6SoPlex6coTestEv, i32 0, i32 0)) #11, !dbg !3881
  unreachable, !dbg !3881
                                                  ; No predecessors!
  br label %8, !dbg !3878

; <label>:8                                       ; preds = %7, %5
  %9 = getelementptr inbounds %"class.soplex::SoPlex"* %2, i32 0, i32 48, !dbg !3883
  %10 = bitcast %"class.soplex::DVector"* %9 to %"class.soplex::Vector"*, !dbg !3883
  ret %"class.soplex::Vector"* %10, !dbg !3883
}

; Function Attrs: nounwind uwtable
define linkonce_odr void @_ZN6soplex5SPxIdC2Ev(%"class.soplex::SPxId"* %this) unnamed_addr #2 align 2 {
  %1 = alloca %"class.soplex::SPxId"*, align 8
  store %"class.soplex::SPxId"* %this, %"class.soplex::SPxId"** %1, align 8
  call void @llvm.dbg.declare(metadata %"class.soplex::SPxId"** %1, metadata !3884, metadata !2573), !dbg !3885
  %2 = load %"class.soplex::SPxId"** %1
  %3 = bitcast %"class.soplex::SPxId"* %2 to %"class.soplex::DataKey"*, !dbg !3886
  call void @_ZN6soplex7DataKeyC2Eii(%"class.soplex::DataKey"* %3, i32 0, i32 -1), !dbg !3886
  ret void, !dbg !3887
}

; Function Attrs: uwtable
define linkonce_odr dereferenceable(4) %"class.soplex::SPxId"* @_ZN6soplex5SPxIdaSERKS0_(%"class.soplex::SPxId"* %this, %"class.soplex::SPxId"* dereferenceable(4) %id) #4 align 2 {
  %1 = alloca %"class.soplex::SPxId"*, align 8
  %2 = alloca %"class.soplex::SPxId"*, align 8
  store %"class.soplex::SPxId"* %this, %"class.soplex::SPxId"** %1, align 8
  call void @llvm.dbg.declare(metadata %"class.soplex::SPxId"** %1, metadata !3888, metadata !2573), !dbg !3889
  store %"class.soplex::SPxId"* %id, %"class.soplex::SPxId"** %2, align 8
  call void @llvm.dbg.declare(metadata %"class.soplex::SPxId"** %2, metadata !3890, metadata !2573), !dbg !3892
  %3 = load %"class.soplex::SPxId"** %1
  %4 = load %"class.soplex::SPxId"** %2, align 8, !dbg !3893
  %5 = icmp ne %"class.soplex::SPxId"* %3, %4, !dbg !3895
  br i1 %5, label %6, label %11, !dbg !3896

; <label>:6                                       ; preds = %0
  %7 = bitcast %"class.soplex::SPxId"* %3 to %"class.soplex::DataKey"*, !dbg !3897
  %8 = load %"class.soplex::SPxId"** %2, align 8, !dbg !3898
  %9 = bitcast %"class.soplex::SPxId"* %8 to %"class.soplex::DataKey"*, !dbg !3898
  %10 = call dereferenceable(4) %"class.soplex::DataKey"* @_ZN6soplex7DataKeyaSERKS0_(%"class.soplex::DataKey"* %7, %"class.soplex::DataKey"* dereferenceable(4) %9), !dbg !3897
  br label %11, !dbg !3898

; <label>:11                                      ; preds = %6, %0
  ret %"class.soplex::SPxId"* %3, !dbg !3899
}

; Function Attrs: uwtable
define linkonce_odr void @_ZNK6soplex6SoPlex2idEi(%"class.soplex::SPxId"* noalias sret %agg.result, %"class.soplex::SoPlex"* %this, i32 %i) #4 align 2 {
  %1 = alloca %"class.soplex::SoPlex"*, align 8
  %2 = alloca i32, align 4
  %rid = alloca %"class.soplex::SPxRowId", align 4
  %cid = alloca %"class.soplex::SPxColId", align 4
  store %"class.soplex::SoPlex"* %this, %"class.soplex::SoPlex"** %1, align 8
  call void @llvm.dbg.declare(metadata %"class.soplex::SoPlex"** %1, metadata !3900, metadata !2573), !dbg !3901
  store i32 %i, i32* %2, align 4
  call void @llvm.dbg.declare(metadata i32* %2, metadata !3902, metadata !2573), !dbg !3903
  %3 = load %"class.soplex::SoPlex"** %1
  %4 = call i32 @_ZNK6soplex6SoPlex3repEv(%"class.soplex::SoPlex"* %3), !dbg !3904
  %5 = icmp eq i32 %4, -1, !dbg !3904
  br i1 %5, label %6, label %9, !dbg !3906

; <label>:6                                       ; preds = %0
  call void @llvm.dbg.declare(metadata %"class.soplex::SPxRowId"* %rid, metadata !3907, metadata !2573), !dbg !3909
  %7 = bitcast %"class.soplex::SoPlex"* %3 to %"class.soplex::SPxLP"*, !dbg !3910
  %8 = load i32* %2, align 4, !dbg !3911
  call void @_ZNK6soplex5SPxLP3rIdEi(%"class.soplex::SPxRowId"* sret %rid, %"class.soplex::SPxLP"* %7, i32 %8), !dbg !3910
  call void @_ZN6soplex5SPxIdC2ERKNS_8SPxRowIdE(%"class.soplex::SPxId"* %agg.result, %"class.soplex::SPxRowId"* dereferenceable(4) %rid), !dbg !3912
  br label %12, !dbg !3912

; <label>:9                                       ; preds = %0
  call void @llvm.dbg.declare(metadata %"class.soplex::SPxColId"* %cid, metadata !3913, metadata !2573), !dbg !3915
  %10 = bitcast %"class.soplex::SoPlex"* %3 to %"class.soplex::SPxLP"*, !dbg !3916
  %11 = load i32* %2, align 4, !dbg !3917
  call void @_ZNK6soplex5SPxLP3cIdEi(%"class.soplex::SPxColId"* sret %cid, %"class.soplex::SPxLP"* %10, i32 %11), !dbg !3916
  call void @_ZN6soplex5SPxIdC2ERKNS_8SPxColIdE(%"class.soplex::SPxId"* %agg.result, %"class.soplex::SPxColId"* dereferenceable(4) %cid), !dbg !3918
  br label %12, !dbg !3918

; <label>:12                                      ; preds = %9, %6
  ret void, !dbg !3919
}

; Function Attrs: uwtable
define linkonce_odr void @_ZNK6soplex6SoPlex4coIdEi(%"class.soplex::SPxId"* noalias sret %agg.result, %"class.soplex::SoPlex"* %this, i32 %i) #4 align 2 {
  %1 = alloca %"class.soplex::SoPlex"*, align 8
  %2 = alloca i32, align 4
  %cid = alloca %"class.soplex::SPxColId", align 4
  %rid = alloca %"class.soplex::SPxRowId", align 4
  store %"class.soplex::SoPlex"* %this, %"class.soplex::SoPlex"** %1, align 8
  call void @llvm.dbg.declare(metadata %"class.soplex::SoPlex"** %1, metadata !3920, metadata !2573), !dbg !3921
  store i32 %i, i32* %2, align 4
  call void @llvm.dbg.declare(metadata i32* %2, metadata !3922, metadata !2573), !dbg !3923
  %3 = load %"class.soplex::SoPlex"** %1
  %4 = call i32 @_ZNK6soplex6SoPlex3repEv(%"class.soplex::SoPlex"* %3), !dbg !3924
  %5 = icmp eq i32 %4, -1, !dbg !3924
  br i1 %5, label %6, label %9, !dbg !3926

; <label>:6                                       ; preds = %0
  call void @llvm.dbg.declare(metadata %"class.soplex::SPxColId"* %cid, metadata !3927, metadata !2573), !dbg !3929
  %7 = bitcast %"class.soplex::SoPlex"* %3 to %"class.soplex::SPxLP"*, !dbg !3930
  %8 = load i32* %2, align 4, !dbg !3931
  call void @_ZNK6soplex5SPxLP3cIdEi(%"class.soplex::SPxColId"* sret %cid, %"class.soplex::SPxLP"* %7, i32 %8), !dbg !3930
  call void @_ZN6soplex5SPxIdC2ERKNS_8SPxColIdE(%"class.soplex::SPxId"* %agg.result, %"class.soplex::SPxColId"* dereferenceable(4) %cid), !dbg !3932
  br label %12, !dbg !3932

; <label>:9                                       ; preds = %0
  call void @llvm.dbg.declare(metadata %"class.soplex::SPxRowId"* %rid, metadata !3933, metadata !2573), !dbg !3935
  %10 = bitcast %"class.soplex::SoPlex"* %3 to %"class.soplex::SPxLP"*, !dbg !3936
  %11 = load i32* %2, align 4, !dbg !3937
  call void @_ZNK6soplex5SPxLP3rIdEi(%"class.soplex::SPxRowId"* sret %rid, %"class.soplex::SPxLP"* %10, i32 %11), !dbg !3936
  call void @_ZN6soplex5SPxIdC2ERKNS_8SPxRowIdE(%"class.soplex::SPxId"* %agg.result, %"class.soplex::SPxRowId"* dereferenceable(4) %rid), !dbg !3938
  br label %12, !dbg !3938

; <label>:12                                      ; preds = %9, %6
  ret void, !dbg !3939
}

; Function Attrs: uwtable
define void @_ZN6soplex10SPxSteepPR11selectEnterEv(%"class.soplex::SPxId"* noalias sret %agg.result, %"class.soplex::SPxSteepPR"* %this) unnamed_addr #4 align 2 {
  %1 = alloca %"class.soplex::SPxSteepPR"*, align 8
  %best = alloca double, align 8
  %2 = alloca %"class.soplex::SPxId", align 4
  %delta = alloca %"class.soplex::SSVector"*, align 8
  store %"class.soplex::SPxSteepPR"* %this, %"class.soplex::SPxSteepPR"** %1, align 8
  call void @llvm.dbg.declare(metadata %"class.soplex::SPxSteepPR"** %1, metadata !3940, metadata !2573), !dbg !3941
  %3 = load %"class.soplex::SPxSteepPR"** %1
  call void @llvm.dbg.declare(metadata double* %best, metadata !3942, metadata !2573), !dbg !3943
  %4 = getelementptr inbounds %"class.soplex::SPxSteepPR"* %3, i32 0, i32 6, !dbg !3944
  call void @_ZN6soplex10SPxSteepPR12selectEnterXERdiiii(%"class.soplex::SPxId"* sret %2, %"class.soplex::SPxSteepPR"* %3, double* dereferenceable(8) %best, i32 0, i32 1, i32 0, i32 1), !dbg !3945
  %5 = call dereferenceable(4) %"class.soplex::SPxId"* @_ZN6soplex5SPxIdaSERKS0_(%"class.soplex::SPxId"* %4, %"class.soplex::SPxId"* dereferenceable(4) %2), !dbg !3944
  %6 = getelementptr inbounds %"class.soplex::SPxSteepPR"* %3, i32 0, i32 6, !dbg !3946
  %7 = call zeroext i1 @_ZNK6soplex5SPxId7isValidEv(%"class.soplex::SPxId"* %6), !dbg !3946
  br i1 %7, label %8, label %40, !dbg !3948

; <label>:8                                       ; preds = %0
  call void @llvm.dbg.declare(metadata %"class.soplex::SSVector"** %delta, metadata !3949, metadata !2573), !dbg !3951
  %9 = bitcast %"class.soplex::SPxSteepPR"* %3 to %"class.soplex::SPxPricer"*, !dbg !3952
  %10 = getelementptr inbounds %"class.soplex::SPxPricer"* %9, i32 0, i32 2, !dbg !3952
  %11 = load %"class.soplex::SoPlex"** %10, align 8, !dbg !3952
  %12 = call dereferenceable(104) %"class.soplex::UpdateVector"* @_ZNK6soplex6SoPlex4fVecEv(%"class.soplex::SoPlex"* %11), !dbg !3952
  %13 = call dereferenceable(64) %"class.soplex::SSVector"* @_ZN6soplex12UpdateVector5deltaEv(%"class.soplex::UpdateVector"* %12), !dbg !3952
  store %"class.soplex::SSVector"* %13, %"class.soplex::SSVector"** %delta, align 8, !dbg !3951
  %14 = bitcast %"class.soplex::SPxSteepPR"* %3 to %"class.soplex::SPxPricer"*, !dbg !3953
  %15 = getelementptr inbounds %"class.soplex::SPxPricer"* %14, i32 0, i32 2, !dbg !3953
  %16 = load %"class.soplex::SoPlex"** %15, align 8, !dbg !3953
  %17 = call dereferenceable(208) %"class.soplex::SPxBasis"* @_ZN6soplex6SoPlex5basisEv(%"class.soplex::SoPlex"* %16), !dbg !3953
  %18 = load %"class.soplex::SSVector"** %delta, align 8, !dbg !3953
  %19 = bitcast %"class.soplex::SPxSteepPR"* %3 to %"class.soplex::SPxPricer"*, !dbg !3954
  %20 = getelementptr inbounds %"class.soplex::SPxPricer"* %19, i32 0, i32 2, !dbg !3954
  %21 = load %"class.soplex::SoPlex"** %20, align 8, !dbg !3954
  %22 = getelementptr inbounds %"class.soplex::SPxSteepPR"* %3, i32 0, i32 6, !dbg !3954
  %23 = call dereferenceable(8) %"class.soplex::SVector"* @_ZNK6soplex6SoPlex6vectorERKNS_5SPxIdE(%"class.soplex::SoPlex"* %21, %"class.soplex::SPxId"* dereferenceable(4) %22), !dbg !3954
  call void @_ZN6soplex8SPxBasis12solve4updateERNS_8SSVectorERKNS_7SVectorE(%"class.soplex::SPxBasis"* %17, %"class.soplex::SSVector"* dereferenceable(64) %18, %"class.soplex::SVector"* dereferenceable(8) %23), !dbg !3953
  %24 = getelementptr inbounds %"class.soplex::SPxSteepPR"* %3, i32 0, i32 13, !dbg !3955
  %25 = load double* %24, align 8, !dbg !3955
  %26 = getelementptr inbounds %"class.soplex::SPxSteepPR"* %3, i32 0, i32 4, !dbg !3956
  %27 = getelementptr inbounds %"class.soplex::SSVector"* %26, i32 0, i32 3, !dbg !3956
  store double %25, double* %27, align 8, !dbg !3956
  %28 = getelementptr inbounds %"class.soplex::SPxSteepPR"* %3, i32 0, i32 4, !dbg !3957
  %29 = load %"class.soplex::SSVector"** %delta, align 8, !dbg !3957
  call void @_ZN6soplex8SSVector16setup_and_assignERS0_(%"class.soplex::SSVector"* %28, %"class.soplex::SSVector"* dereferenceable(64) %29), !dbg !3957
  %30 = load %"class.soplex::SSVector"** %delta, align 8, !dbg !3958
  %31 = call double @_ZNK6soplex8SSVector7length2Ev(%"class.soplex::SSVector"* %30), !dbg !3958
  %32 = fadd double 1.000000e+00, %31, !dbg !3959
  %33 = getelementptr inbounds %"class.soplex::SPxSteepPR"* %3, i32 0, i32 7, !dbg !3960
  store double %32, double* %33, align 8, !dbg !3960
  %34 = bitcast %"class.soplex::SPxSteepPR"* %3 to %"class.soplex::SPxPricer"*, !dbg !3961
  %35 = getelementptr inbounds %"class.soplex::SPxPricer"* %34, i32 0, i32 2, !dbg !3961
  %36 = load %"class.soplex::SoPlex"** %35, align 8, !dbg !3961
  %37 = getelementptr inbounds %"class.soplex::SPxSteepPR"* %3, i32 0, i32 3, !dbg !3962
  %38 = bitcast %"class.soplex::DVector"* %37 to %"class.soplex::Vector"*, !dbg !3962
  %39 = getelementptr inbounds %"class.soplex::SPxSteepPR"* %3, i32 0, i32 4, !dbg !3963
  call void @_ZN6soplex6SoPlex13setup4coSolveEPNS_6VectorEPNS_8SSVectorE(%"class.soplex::SoPlex"* %36, %"class.soplex::Vector"* %38, %"class.soplex::SSVector"* %39), !dbg !3961
  br label %40, !dbg !3964

; <label>:40                                      ; preds = %8, %0
  %41 = getelementptr inbounds %"class.soplex::SPxSteepPR"* %3, i32 0, i32 6, !dbg !3965
  call void @_ZN6soplex5SPxIdC2ERKS0_(%"class.soplex::SPxId"* %agg.result, %"class.soplex::SPxId"* dereferenceable(4) %41), !dbg !3965
  ret void, !dbg !3965
}

; Function Attrs: uwtable
define linkonce_odr void @_ZN6soplex8SPxBasis12solve4updateERNS_8SSVectorERKNS_7SVectorE(%"class.soplex::SPxBasis"* %this, %"class.soplex::SSVector"* dereferenceable(64) %x, %"class.soplex::SVector"* dereferenceable(8) %rhs) #4 align 2 {
  %1 = alloca %"class.soplex::SPxBasis"*, align 8
  %2 = alloca %"class.soplex::SSVector"*, align 8
  %3 = alloca %"class.soplex::SVector"*, align 8
  store %"class.soplex::SPxBasis"* %this, %"class.soplex::SPxBasis"** %1, align 8
  call void @llvm.dbg.declare(metadata %"class.soplex::SPxBasis"** %1, metadata !3966, metadata !2573), !dbg !3967
  store %"class.soplex::SSVector"* %x, %"class.soplex::SSVector"** %2, align 8
  call void @llvm.dbg.declare(metadata %"class.soplex::SSVector"** %2, metadata !3968, metadata !2573), !dbg !3969
  store %"class.soplex::SVector"* %rhs, %"class.soplex::SVector"** %3, align 8
  call void @llvm.dbg.declare(metadata %"class.soplex::SVector"** %3, metadata !3970, metadata !2573), !dbg !3971
  %4 = load %"class.soplex::SPxBasis"** %1
  %5 = getelementptr inbounds %"class.soplex::SPxBasis"* %4, i32 0, i32 6, !dbg !3972
  %6 = load i8* %5, align 1, !dbg !3972
  %7 = trunc i8 %6 to i1, !dbg !3972
  br i1 %7, label %13, label %8, !dbg !3974

; <label>:8                                       ; preds = %0
  %9 = bitcast %"class.soplex::SPxBasis"* %4 to void (%"class.soplex::SPxBasis"*)***, !dbg !3975
  %10 = load void (%"class.soplex::SPxBasis"*)*** %9, !dbg !3975
  %11 = getelementptr inbounds void (%"class.soplex::SPxBasis"*)** %10, i64 10, !dbg !3975
  %12 = load void (%"class.soplex::SPxBasis"*)** %11, !dbg !3975
  call void %12(%"class.soplex::SPxBasis"* %4), !dbg !3975
  br label %13, !dbg !3975

; <label>:13                                      ; preds = %8, %0
  %14 = getelementptr inbounds %"class.soplex::SPxBasis"* %4, i32 0, i32 5, !dbg !3977
  %15 = load %"class.soplex::SLinSolver"** %14, align 8, !dbg !3977
  %16 = bitcast %"class.soplex::SLinSolver"* %15 to void (%"class.soplex::SLinSolver"*, %"class.soplex::SSVector"*, %"class.soplex::SVector"*)***, !dbg !3977
  %17 = load void (%"class.soplex::SLinSolver"*, %"class.soplex::SSVector"*, %"class.soplex::SVector"*)*** %16, !dbg !3977
  %18 = getelementptr inbounds void (%"class.soplex::SLinSolver"*, %"class.soplex::SSVector"*, %"class.soplex::SVector"*)** %17, i64 16, !dbg !3977
  %19 = load void (%"class.soplex::SLinSolver"*, %"class.soplex::SSVector"*, %"class.soplex::SVector"*)** %18, !dbg !3977
  %20 = load %"class.soplex::SSVector"** %2, align 8, !dbg !3977
  %21 = load %"class.soplex::SVector"** %3, align 8, !dbg !3977
  call void %19(%"class.soplex::SLinSolver"* %15, %"class.soplex::SSVector"* dereferenceable(64) %20, %"class.soplex::SVector"* dereferenceable(8) %21), !dbg !3977
  ret void, !dbg !3978
}

; Function Attrs: uwtable
define linkonce_odr dereferenceable(8) %"class.soplex::SVector"* @_ZNK6soplex6SoPlex6vectorERKNS_5SPxIdE(%"class.soplex::SoPlex"* %this, %"class.soplex::SPxId"* dereferenceable(4) %p_id) #4 align 2 {
  %1 = alloca %"class.soplex::SoPlex"*, align 8
  %2 = alloca %"class.soplex::SPxId"*, align 8
  %3 = alloca %"class.soplex::SPxRowId", align 4
  %4 = alloca %"class.soplex::SPxColId", align 4
  store %"class.soplex::SoPlex"* %this, %"class.soplex::SoPlex"** %1, align 8
  call void @llvm.dbg.declare(metadata %"class.soplex::SoPlex"** %1, metadata !3979, metadata !2573), !dbg !3980
  store %"class.soplex::SPxId"* %p_id, %"class.soplex::SPxId"** %2, align 8
  call void @llvm.dbg.declare(metadata %"class.soplex::SPxId"** %2, metadata !3981, metadata !2573), !dbg !3982
  %5 = load %"class.soplex::SoPlex"** %1
  %6 = load %"class.soplex::SPxId"** %2, align 8, !dbg !3983
  %7 = call zeroext i1 @_ZNK6soplex5SPxId7isValidEv(%"class.soplex::SPxId"* %6), !dbg !3983
  br i1 %7, label %8, label %9, !dbg !3983

; <label>:8                                       ; preds = %0
  br label %11, !dbg !3984

; <label>:9                                       ; preds = %0
  call void @__assert_fail(i8* getelementptr inbounds ([15 x i8]* @.str33, i32 0, i32 0), i8* getelementptr inbounds ([11 x i8]* @.str32, i32 0, i32 0), i32 757, i8* getelementptr inbounds ([75 x i8]* @__PRETTY_FUNCTION__._ZNK6soplex6SoPlex6vectorERKNS_5SPxIdE, i32 0, i32 0)) #11, !dbg !3986
  unreachable, !dbg !3986
                                                  ; No predecessors!
  br label %11, !dbg !3983

; <label>:11                                      ; preds = %10, %8
  %12 = load %"class.soplex::SPxId"** %2, align 8, !dbg !3988
  %13 = call zeroext i1 @_ZNK6soplex5SPxId10isSPxRowIdEv(%"class.soplex::SPxId"* %12), !dbg !3988
  br i1 %13, label %14, label %17, !dbg !3989

; <label>:14                                      ; preds = %11
  %15 = load %"class.soplex::SPxId"** %2, align 8, !dbg !3990
  call void @_ZN6soplex8SPxRowIdC1ERKNS_5SPxIdE(%"class.soplex::SPxRowId"* %3, %"class.soplex::SPxId"* dereferenceable(4) %15), !dbg !3990
  %16 = call dereferenceable(8) %"class.soplex::SVector"* @_ZNK6soplex6SoPlex6vectorERKNS_8SPxRowIdE(%"class.soplex::SoPlex"* %5, %"class.soplex::SPxRowId"* dereferenceable(4) %3), !dbg !3990
  br label %20, !dbg !3989

; <label>:17                                      ; preds = %11
  %18 = load %"class.soplex::SPxId"** %2, align 8, !dbg !3991
  call void @_ZN6soplex8SPxColIdC1ERKNS_5SPxIdE(%"class.soplex::SPxColId"* %4, %"class.soplex::SPxId"* dereferenceable(4) %18), !dbg !3991
  %19 = call dereferenceable(8) %"class.soplex::SVector"* @_ZNK6soplex6SoPlex6vectorERKNS_8SPxColIdE(%"class.soplex::SoPlex"* %5, %"class.soplex::SPxColId"* dereferenceable(4) %4), !dbg !3991
  br label %20, !dbg !3989

; <label>:20                                      ; preds = %17, %14
  %21 = phi %"class.soplex::SVector"* [ %16, %14 ], [ %19, %17 ], !dbg !3989
  ret %"class.soplex::SVector"* %21, !dbg !3992
}

; Function Attrs: uwtable
define linkonce_odr void @_ZN6soplex6SoPlex13setup4coSolveEPNS_6VectorEPNS_8SSVectorE(%"class.soplex::SoPlex"* %this, %"class.soplex::Vector"* %p_y, %"class.soplex::SSVector"* %p_rhs) #4 align 2 {
  %1 = alloca %"class.soplex::SoPlex"*, align 8
  %2 = alloca %"class.soplex::Vector"*, align 8
  %3 = alloca %"class.soplex::SSVector"*, align 8
  store %"class.soplex::SoPlex"* %this, %"class.soplex::SoPlex"** %1, align 8
  call void @llvm.dbg.declare(metadata %"class.soplex::SoPlex"** %1, metadata !3994, metadata !2573), !dbg !3995
  store %"class.soplex::Vector"* %p_y, %"class.soplex::Vector"** %2, align 8
  call void @llvm.dbg.declare(metadata %"class.soplex::Vector"** %2, metadata !3996, metadata !2573), !dbg !3997
  store %"class.soplex::SSVector"* %p_rhs, %"class.soplex::SSVector"** %3, align 8
  call void @llvm.dbg.declare(metadata %"class.soplex::SSVector"** %3, metadata !3998, metadata !2573), !dbg !3999
  %4 = load %"class.soplex::SoPlex"** %1
  %5 = call i32 @_ZNK6soplex6SoPlex4typeEv(%"class.soplex::SoPlex"* %4), !dbg !4000
  %6 = icmp eq i32 %5, -1, !dbg !4000
  br i1 %6, label %7, label %8, !dbg !4000

; <label>:7                                       ; preds = %0
  br label %10, !dbg !4001

; <label>:8                                       ; preds = %0
  call void @__assert_fail(i8* getelementptr inbounds ([16 x i8]* @.str31, i32 0, i32 0), i8* getelementptr inbounds ([11 x i8]* @.str32, i32 0, i32 0), i32 1275, i8* getelementptr inbounds ([73 x i8]* @__PRETTY_FUNCTION__._ZN6soplex6SoPlex13setup4coSolveEPNS_6VectorEPNS_8SSVectorE, i32 0, i32 0)) #11, !dbg !4003
  unreachable, !dbg !4003
                                                  ; No predecessors!
  br label %10, !dbg !4000

; <label>:10                                      ; preds = %9, %7
  %11 = load %"class.soplex::Vector"** %2, align 8, !dbg !4005
  %12 = getelementptr inbounds %"class.soplex::SoPlex"* %4, i32 0, i32 18, !dbg !4006
  store %"class.soplex::Vector"* %11, %"class.soplex::Vector"** %12, align 8, !dbg !4006
  %13 = load %"class.soplex::SSVector"** %3, align 8, !dbg !4007
  %14 = getelementptr inbounds %"class.soplex::SoPlex"* %4, i32 0, i32 19, !dbg !4008
  store %"class.soplex::SSVector"* %13, %"class.soplex::SSVector"** %14, align 8, !dbg !4008
  ret void, !dbg !4009
}

; Function Attrs: uwtable
define void @_ZN6soplex10SPxSteepPR9addedVecsEi(%"class.soplex::SPxSteepPR"* %this, i32 %n) unnamed_addr #4 align 2 {
  %1 = alloca %"class.soplex::SPxSteepPR"*, align 8
  %2 = alloca i32, align 4
  store %"class.soplex::SPxSteepPR"* %this, %"class.soplex::SPxSteepPR"** %1, align 8
  call void @llvm.dbg.declare(metadata %"class.soplex::SPxSteepPR"** %1, metadata !4010, metadata !2573), !dbg !4011
  store i32 %n, i32* %2, align 4
  call void @llvm.dbg.declare(metadata i32* %2, metadata !4012, metadata !2573), !dbg !4013
  %3 = load %"class.soplex::SPxSteepPR"** %1
  %4 = getelementptr inbounds %"class.soplex::SPxSteepPR"* %3, i32 0, i32 1, !dbg !4014
  %5 = bitcast %"class.soplex::DVector"* %4 to %"class.soplex::Vector"*, !dbg !4014
  %6 = call i32 @_ZNK6soplex6Vector3dimEv(%"class.soplex::Vector"* %5), !dbg !4014
  store i32 %6, i32* %2, align 4, !dbg !4015
  %7 = getelementptr inbounds %"class.soplex::SPxSteepPR"* %3, i32 0, i32 10, !dbg !4016
  %8 = bitcast %"class.soplex::SPxSteepPR"* %3 to %"class.soplex::SPxPricer"*, !dbg !4017
  %9 = getelementptr inbounds %"class.soplex::SPxPricer"* %8, i32 0, i32 2, !dbg !4017
  %10 = load %"class.soplex::SoPlex"** %9, align 8, !dbg !4017
  %11 = call i32 @_ZNK6soplex6SoPlex5coDimEv(%"class.soplex::SoPlex"* %10), !dbg !4017
  call void @_ZN6soplex9DataArrayIdE6reSizeEi(%"class.soplex::DataArray.3"* %7, i32 %11), !dbg !4016
  %12 = getelementptr inbounds %"class.soplex::SPxSteepPR"* %3, i32 0, i32 1, !dbg !4018
  %13 = bitcast %"class.soplex::SPxSteepPR"* %3 to %"class.soplex::SPxPricer"*, !dbg !4019
  %14 = getelementptr inbounds %"class.soplex::SPxPricer"* %13, i32 0, i32 2, !dbg !4019
  %15 = load %"class.soplex::SoPlex"** %14, align 8, !dbg !4019
  %16 = call i32 @_ZNK6soplex6SoPlex5coDimEv(%"class.soplex::SoPlex"* %15), !dbg !4019
  call void @_ZN6soplex7DVector5reDimEi(%"class.soplex::DVector"* %12, i32 %16), !dbg !4018
  %17 = bitcast %"class.soplex::SPxSteepPR"* %3 to %"class.soplex::SPxPricer"*, !dbg !4020
  %18 = getelementptr inbounds %"class.soplex::SPxPricer"* %17, i32 0, i32 2, !dbg !4020
  %19 = load %"class.soplex::SoPlex"** %18, align 8, !dbg !4020
  %20 = call i32 @_ZNK6soplex6SoPlex4typeEv(%"class.soplex::SoPlex"* %19), !dbg !4020
  %21 = icmp eq i32 %20, -1, !dbg !4020
  br i1 %21, label %22, label %42, !dbg !4022

; <label>:22                                      ; preds = %0
  %23 = bitcast %"class.soplex::SPxSteepPR"* %3 to %"class.soplex::SPxPricer"*, !dbg !4023
  %24 = getelementptr inbounds %"class.soplex::SPxPricer"* %23, i32 0, i32 2, !dbg !4023
  %25 = load %"class.soplex::SoPlex"** %24, align 8, !dbg !4023
  %26 = call i32 @_ZNK6soplex6SoPlex4typeEv(%"class.soplex::SoPlex"* %25), !dbg !4023
  call void @_ZN6soplex10SPxSteepPR10setupPrefsENS_6SoPlex4TypeE(%"class.soplex::SPxSteepPR"* %3, i32 %26), !dbg !4025
  br label %27, !dbg !4026

; <label>:27                                      ; preds = %38, %22
  %28 = load i32* %2, align 4, !dbg !4027
  %29 = getelementptr inbounds %"class.soplex::SPxSteepPR"* %3, i32 0, i32 1, !dbg !4032
  %30 = bitcast %"class.soplex::DVector"* %29 to %"class.soplex::Vector"*, !dbg !4032
  %31 = call i32 @_ZNK6soplex6Vector3dimEv(%"class.soplex::Vector"* %30), !dbg !4032
  %32 = icmp slt i32 %28, %31, !dbg !4033
  br i1 %32, label %33, label %41, !dbg !4034

; <label>:33                                      ; preds = %27
  %34 = getelementptr inbounds %"class.soplex::SPxSteepPR"* %3, i32 0, i32 1, !dbg !4035
  %35 = bitcast %"class.soplex::DVector"* %34 to %"class.soplex::Vector"*, !dbg !4035
  %36 = load i32* %2, align 4, !dbg !4036
  %37 = call dereferenceable(8) double* @_ZN6soplex6VectorixEi(%"class.soplex::Vector"* %35, i32 %36), !dbg !4035
  store double 2.000000e+00, double* %37, !dbg !4035
  br label %38, !dbg !4035

; <label>:38                                      ; preds = %33
  %39 = load i32* %2, align 4, !dbg !4037
  %40 = add nsw i32 %39, 1, !dbg !4037
  store i32 %40, i32* %2, align 4, !dbg !4037
  br label %27, !dbg !4038

; <label>:41                                      ; preds = %27
  br label %42, !dbg !4039

; <label>:42                                      ; preds = %41, %0
  %43 = getelementptr inbounds %"class.soplex::SPxSteepPR"* %3, i32 0, i32 8, !dbg !4040
  store i32 0, i32* %43, align 4, !dbg !4040
  ret void, !dbg !4041
}

; Function Attrs: uwtable
define void @_ZN6soplex10SPxSteepPR11addedCoVecsEi(%"class.soplex::SPxSteepPR"* %this, i32 %n) unnamed_addr #4 align 2 {
  %1 = alloca %"class.soplex::SPxSteepPR"*, align 8
  %2 = alloca i32, align 4
  store %"class.soplex::SPxSteepPR"* %this, %"class.soplex::SPxSteepPR"** %1, align 8
  call void @llvm.dbg.declare(metadata %"class.soplex::SPxSteepPR"** %1, metadata !4042, metadata !2573), !dbg !4043
  store i32 %n, i32* %2, align 4
  call void @llvm.dbg.declare(metadata i32* %2, metadata !4044, metadata !2573), !dbg !4045
  %3 = load %"class.soplex::SPxSteepPR"** %1
  %4 = getelementptr inbounds %"class.soplex::SPxSteepPR"* %3, i32 0, i32 2, !dbg !4046
  %5 = bitcast %"class.soplex::DVector"* %4 to %"class.soplex::Vector"*, !dbg !4046
  %6 = call i32 @_ZNK6soplex6Vector3dimEv(%"class.soplex::Vector"* %5), !dbg !4046
  store i32 %6, i32* %2, align 4, !dbg !4047
  %7 = getelementptr inbounds %"class.soplex::SPxSteepPR"* %3, i32 0, i32 11, !dbg !4048
  %8 = bitcast %"class.soplex::SPxSteepPR"* %3 to %"class.soplex::SPxPricer"*, !dbg !4049
  %9 = getelementptr inbounds %"class.soplex::SPxPricer"* %8, i32 0, i32 2, !dbg !4049
  %10 = load %"class.soplex::SoPlex"** %9, align 8, !dbg !4049
  %11 = call i32 @_ZNK6soplex6SoPlex3dimEv(%"class.soplex::SoPlex"* %10), !dbg !4049
  call void @_ZN6soplex9DataArrayIdE6reSizeEi(%"class.soplex::DataArray.3"* %7, i32 %11), !dbg !4048
  %12 = getelementptr inbounds %"class.soplex::SPxSteepPR"* %3, i32 0, i32 9, !dbg !4050
  %13 = bitcast %"class.soplex::SPxSteepPR"* %3 to %"class.soplex::SPxPricer"*, !dbg !4051
  %14 = getelementptr inbounds %"class.soplex::SPxPricer"* %13, i32 0, i32 2, !dbg !4051
  %15 = load %"class.soplex::SoPlex"** %14, align 8, !dbg !4051
  %16 = call i32 @_ZNK6soplex6SoPlex3dimEv(%"class.soplex::SoPlex"* %15), !dbg !4051
  call void @_ZN6soplex9DataArrayIdE6reSizeEi(%"class.soplex::DataArray.3"* %12, i32 %16), !dbg !4050
  %17 = bitcast %"class.soplex::SPxSteepPR"* %3 to %"class.soplex::SPxPricer"*, !dbg !4052
  %18 = getelementptr inbounds %"class.soplex::SPxPricer"* %17, i32 0, i32 2, !dbg !4052
  %19 = load %"class.soplex::SoPlex"** %18, align 8, !dbg !4052
  %20 = call i32 @_ZNK6soplex6SoPlex4typeEv(%"class.soplex::SoPlex"* %19), !dbg !4052
  call void @_ZN6soplex10SPxSteepPR10setupPrefsENS_6SoPlex4TypeE(%"class.soplex::SPxSteepPR"* %3, i32 %20), !dbg !4053
  %21 = getelementptr inbounds %"class.soplex::SPxSteepPR"* %3, i32 0, i32 3, !dbg !4054
  %22 = bitcast %"class.soplex::SPxSteepPR"* %3 to %"class.soplex::SPxPricer"*, !dbg !4055
  %23 = getelementptr inbounds %"class.soplex::SPxPricer"* %22, i32 0, i32 2, !dbg !4055
  %24 = load %"class.soplex::SoPlex"** %23, align 8, !dbg !4055
  %25 = call i32 @_ZNK6soplex6SoPlex3dimEv(%"class.soplex::SoPlex"* %24), !dbg !4055
  call void @_ZN6soplex7DVector5reDimEi(%"class.soplex::DVector"* %21, i32 %25), !dbg !4054
  %26 = getelementptr inbounds %"class.soplex::SPxSteepPR"* %3, i32 0, i32 2, !dbg !4056
  %27 = bitcast %"class.soplex::SPxSteepPR"* %3 to %"class.soplex::SPxPricer"*, !dbg !4057
  %28 = getelementptr inbounds %"class.soplex::SPxPricer"* %27, i32 0, i32 2, !dbg !4057
  %29 = load %"class.soplex::SoPlex"** %28, align 8, !dbg !4057
  %30 = call i32 @_ZNK6soplex6SoPlex3dimEv(%"class.soplex::SoPlex"* %29), !dbg !4057
  call void @_ZN6soplex7DVector5reDimEi(%"class.soplex::DVector"* %26, i32 %30), !dbg !4056
  br label %31, !dbg !4058

; <label>:31                                      ; preds = %42, %0
  %32 = load i32* %2, align 4, !dbg !4059
  %33 = getelementptr inbounds %"class.soplex::SPxSteepPR"* %3, i32 0, i32 2, !dbg !4064
  %34 = bitcast %"class.soplex::DVector"* %33 to %"class.soplex::Vector"*, !dbg !4064
  %35 = call i32 @_ZNK6soplex6Vector3dimEv(%"class.soplex::Vector"* %34), !dbg !4064
  %36 = icmp slt i32 %32, %35, !dbg !4065
  br i1 %36, label %37, label %45, !dbg !4066

; <label>:37                                      ; preds = %31
  %38 = getelementptr inbounds %"class.soplex::SPxSteepPR"* %3, i32 0, i32 2, !dbg !4067
  %39 = bitcast %"class.soplex::DVector"* %38 to %"class.soplex::Vector"*, !dbg !4067
  %40 = load i32* %2, align 4, !dbg !4068
  %41 = call dereferenceable(8) double* @_ZN6soplex6VectorixEi(%"class.soplex::Vector"* %39, i32 %40), !dbg !4067
  store double 1.000000e+00, double* %41, !dbg !4067
  br label %42, !dbg !4067

; <label>:42                                      ; preds = %37
  %43 = load i32* %2, align 4, !dbg !4069
  %44 = add nsw i32 %43, 1, !dbg !4069
  store i32 %44, i32* %2, align 4, !dbg !4069
  br label %31, !dbg !4070

; <label>:45                                      ; preds = %31
  %46 = getelementptr inbounds %"class.soplex::SPxSteepPR"* %3, i32 0, i32 8, !dbg !4071
  store i32 0, i32* %46, align 4, !dbg !4071
  ret void, !dbg !4072
}

; Function Attrs: uwtable
define void @_ZN6soplex10SPxSteepPR10removedVecEi(%"class.soplex::SPxSteepPR"* %this, i32 %i) unnamed_addr #4 align 2 {
  %1 = alloca %"class.soplex::SPxSteepPR"*, align 8
  %2 = alloca i32, align 4
  store %"class.soplex::SPxSteepPR"* %this, %"class.soplex::SPxSteepPR"** %1, align 8
  call void @llvm.dbg.declare(metadata %"class.soplex::SPxSteepPR"** %1, metadata !4073, metadata !2573), !dbg !4074
  store i32 %i, i32* %2, align 4
  call void @llvm.dbg.declare(metadata i32* %2, metadata !4075, metadata !2573), !dbg !4076
  %3 = load %"class.soplex::SPxSteepPR"** %1
  %4 = bitcast %"class.soplex::SPxSteepPR"* %3 to %"class.soplex::SPxPricer"*, !dbg !4077
  %5 = getelementptr inbounds %"class.soplex::SPxPricer"* %4, i32 0, i32 2, !dbg !4077
  %6 = load %"class.soplex::SoPlex"** %5, align 8, !dbg !4077
  %7 = icmp ne %"class.soplex::SoPlex"* %6, null, !dbg !4077
  br i1 %7, label %8, label %9, !dbg !4077

; <label>:8                                       ; preds = %0
  br label %11, !dbg !4078

; <label>:9                                       ; preds = %0
  call void @__assert_fail(i8* getelementptr inbounds ([15 x i8]* @.str13, i32 0, i32 0), i8* getelementptr inbounds ([14 x i8]* @.str1, i32 0, i32 0), i32 540, i8* getelementptr inbounds ([49 x i8]* @__PRETTY_FUNCTION__._ZN6soplex10SPxSteepPR10removedVecEi, i32 0, i32 0)) #11, !dbg !4080
  unreachable, !dbg !4080
                                                  ; No predecessors!
  br label %11, !dbg !4077

; <label>:11                                      ; preds = %10, %8
  %12 = getelementptr inbounds %"class.soplex::SPxSteepPR"* %3, i32 0, i32 1, !dbg !4082
  %13 = bitcast %"class.soplex::DVector"* %12 to %"class.soplex::Vector"*, !dbg !4082
  %14 = getelementptr inbounds %"class.soplex::SPxSteepPR"* %3, i32 0, i32 1, !dbg !4083
  %15 = bitcast %"class.soplex::DVector"* %14 to %"class.soplex::Vector"*, !dbg !4083
  %16 = call i32 @_ZNK6soplex6Vector3dimEv(%"class.soplex::Vector"* %15), !dbg !4083
  %17 = call dereferenceable(8) double* @_ZN6soplex6VectorixEi(%"class.soplex::Vector"* %13, i32 %16), !dbg !4082
  %18 = load double* %17, !dbg !4082
  %19 = getelementptr inbounds %"class.soplex::SPxSteepPR"* %3, i32 0, i32 1, !dbg !4084
  %20 = bitcast %"class.soplex::DVector"* %19 to %"class.soplex::Vector"*, !dbg !4084
  %21 = load i32* %2, align 4, !dbg !4085
  %22 = call dereferenceable(8) double* @_ZN6soplex6VectorixEi(%"class.soplex::Vector"* %20, i32 %21), !dbg !4084
  store double %18, double* %22, !dbg !4084
  %23 = getelementptr inbounds %"class.soplex::SPxSteepPR"* %3, i32 0, i32 1, !dbg !4086
  %24 = bitcast %"class.soplex::SPxSteepPR"* %3 to %"class.soplex::SPxPricer"*, !dbg !4087
  %25 = getelementptr inbounds %"class.soplex::SPxPricer"* %24, i32 0, i32 2, !dbg !4087
  %26 = load %"class.soplex::SoPlex"** %25, align 8, !dbg !4087
  %27 = call i32 @_ZNK6soplex6SoPlex5coDimEv(%"class.soplex::SoPlex"* %26), !dbg !4087
  call void @_ZN6soplex7DVector5reDimEi(%"class.soplex::DVector"* %23, i32 %27), !dbg !4086
  %28 = getelementptr inbounds %"class.soplex::SPxSteepPR"* %3, i32 0, i32 8, !dbg !4088
  store i32 0, i32* %28, align 4, !dbg !4088
  ret void, !dbg !4089
}

; Function Attrs: uwtable
define void @_ZN6soplex10SPxSteepPR11removedVecsEPKi(%"class.soplex::SPxSteepPR"* %this, i32* %perm) unnamed_addr #4 align 2 {
  %1 = alloca %"class.soplex::SPxSteepPR"*, align 8
  %2 = alloca i32*, align 8
  %i = alloca i32, align 4
  %j = alloca i32, align 4
  store %"class.soplex::SPxSteepPR"* %this, %"class.soplex::SPxSteepPR"** %1, align 8
  call void @llvm.dbg.declare(metadata %"class.soplex::SPxSteepPR"** %1, metadata !4090, metadata !2573), !dbg !4091
  store i32* %perm, i32** %2, align 8
  call void @llvm.dbg.declare(metadata i32** %2, metadata !4092, metadata !2573), !dbg !4093
  %3 = load %"class.soplex::SPxSteepPR"** %1
  %4 = bitcast %"class.soplex::SPxSteepPR"* %3 to %"class.soplex::SPxPricer"*, !dbg !4094
  %5 = getelementptr inbounds %"class.soplex::SPxPricer"* %4, i32 0, i32 2, !dbg !4094
  %6 = load %"class.soplex::SoPlex"** %5, align 8, !dbg !4094
  %7 = icmp ne %"class.soplex::SoPlex"* %6, null, !dbg !4094
  br i1 %7, label %8, label %9, !dbg !4094

; <label>:8                                       ; preds = %0
  br label %11, !dbg !4095

; <label>:9                                       ; preds = %0
  call void @__assert_fail(i8* getelementptr inbounds ([15 x i8]* @.str13, i32 0, i32 0), i8* getelementptr inbounds ([14 x i8]* @.str1, i32 0, i32 0), i32 548, i8* getelementptr inbounds ([58 x i8]* @__PRETTY_FUNCTION__._ZN6soplex10SPxSteepPR11removedVecsEPKi, i32 0, i32 0)) #11, !dbg !4097
  unreachable, !dbg !4097
                                                  ; No predecessors!
  br label %11, !dbg !4094

; <label>:11                                      ; preds = %10, %8
  %12 = bitcast %"class.soplex::SPxSteepPR"* %3 to %"class.soplex::SPxPricer"*, !dbg !4099
  %13 = getelementptr inbounds %"class.soplex::SPxPricer"* %12, i32 0, i32 2, !dbg !4099
  %14 = load %"class.soplex::SoPlex"** %13, align 8, !dbg !4099
  %15 = call i32 @_ZNK6soplex6SoPlex4typeEv(%"class.soplex::SoPlex"* %14), !dbg !4099
  %16 = icmp eq i32 %15, -1, !dbg !4099
  br i1 %16, label %17, label %51, !dbg !4101

; <label>:17                                      ; preds = %11
  call void @llvm.dbg.declare(metadata i32* %i, metadata !4102, metadata !2573), !dbg !4104
  call void @llvm.dbg.declare(metadata i32* %j, metadata !4105, metadata !2573), !dbg !4106
  %18 = getelementptr inbounds %"class.soplex::SPxSteepPR"* %3, i32 0, i32 1, !dbg !4107
  %19 = bitcast %"class.soplex::DVector"* %18 to %"class.soplex::Vector"*, !dbg !4107
  %20 = call i32 @_ZNK6soplex6Vector3dimEv(%"class.soplex::Vector"* %19), !dbg !4107
  store i32 %20, i32* %j, align 4, !dbg !4106
  store i32 0, i32* %i, align 4, !dbg !4108
  br label %21, !dbg !4108

; <label>:21                                      ; preds = %47, %17
  %22 = load i32* %i, align 4, !dbg !4110
  %23 = load i32* %j, align 4, !dbg !4114
  %24 = icmp slt i32 %22, %23, !dbg !4115
  br i1 %24, label %25, label %50, !dbg !4116

; <label>:25                                      ; preds = %21
  %26 = load i32* %i, align 4, !dbg !4117
  %27 = sext i32 %26 to i64, !dbg !4119
  %28 = load i32** %2, align 8, !dbg !4119
  %29 = getelementptr inbounds i32* %28, i64 %27, !dbg !4119
  %30 = load i32* %29, align 4, !dbg !4119
  %31 = icmp sge i32 %30, 0, !dbg !4119
  br i1 %31, label %32, label %46, !dbg !4120

; <label>:32                                      ; preds = %25
  %33 = getelementptr inbounds %"class.soplex::SPxSteepPR"* %3, i32 0, i32 1, !dbg !4121
  %34 = bitcast %"class.soplex::DVector"* %33 to %"class.soplex::Vector"*, !dbg !4121
  %35 = load i32* %i, align 4, !dbg !4122
  %36 = call dereferenceable(8) double* @_ZN6soplex6VectorixEi(%"class.soplex::Vector"* %34, i32 %35), !dbg !4121
  %37 = load double* %36, !dbg !4121
  %38 = getelementptr inbounds %"class.soplex::SPxSteepPR"* %3, i32 0, i32 1, !dbg !4123
  %39 = bitcast %"class.soplex::DVector"* %38 to %"class.soplex::Vector"*, !dbg !4123
  %40 = load i32* %i, align 4, !dbg !4124
  %41 = sext i32 %40 to i64, !dbg !4125
  %42 = load i32** %2, align 8, !dbg !4125
  %43 = getelementptr inbounds i32* %42, i64 %41, !dbg !4125
  %44 = load i32* %43, align 4, !dbg !4125
  %45 = call dereferenceable(8) double* @_ZN6soplex6VectorixEi(%"class.soplex::Vector"* %39, i32 %44), !dbg !4123
  store double %37, double* %45, !dbg !4123
  br label %46, !dbg !4123

; <label>:46                                      ; preds = %32, %25
  br label %47, !dbg !4126

; <label>:47                                      ; preds = %46
  %48 = load i32* %i, align 4, !dbg !4128
  %49 = add nsw i32 %48, 1, !dbg !4128
  store i32 %49, i32* %i, align 4, !dbg !4128
  br label %21, !dbg !4129

; <label>:50                                      ; preds = %21
  br label %51, !dbg !4130

; <label>:51                                      ; preds = %50, %11
  %52 = getelementptr inbounds %"class.soplex::SPxSteepPR"* %3, i32 0, i32 1, !dbg !4131
  %53 = bitcast %"class.soplex::SPxSteepPR"* %3 to %"class.soplex::SPxPricer"*, !dbg !4132
  %54 = getelementptr inbounds %"class.soplex::SPxPricer"* %53, i32 0, i32 2, !dbg !4132
  %55 = load %"class.soplex::SoPlex"** %54, align 8, !dbg !4132
  %56 = call i32 @_ZNK6soplex6SoPlex5coDimEv(%"class.soplex::SoPlex"* %55), !dbg !4132
  call void @_ZN6soplex7DVector5reDimEi(%"class.soplex::DVector"* %52, i32 %56), !dbg !4131
  %57 = getelementptr inbounds %"class.soplex::SPxSteepPR"* %3, i32 0, i32 8, !dbg !4133
  store i32 0, i32* %57, align 4, !dbg !4133
  ret void, !dbg !4134
}

; Function Attrs: uwtable
define void @_ZN6soplex10SPxSteepPR12removedCoVecEi(%"class.soplex::SPxSteepPR"* %this, i32 %i) unnamed_addr #4 align 2 {
  %1 = alloca %"class.soplex::SPxSteepPR"*, align 8
  %2 = alloca i32, align 4
  store %"class.soplex::SPxSteepPR"* %this, %"class.soplex::SPxSteepPR"** %1, align 8
  call void @llvm.dbg.declare(metadata %"class.soplex::SPxSteepPR"** %1, metadata !4135, metadata !2573), !dbg !4136
  store i32 %i, i32* %2, align 4
  call void @llvm.dbg.declare(metadata i32* %2, metadata !4137, metadata !2573), !dbg !4138
  %3 = load %"class.soplex::SPxSteepPR"** %1
  %4 = bitcast %"class.soplex::SPxSteepPR"* %3 to %"class.soplex::SPxPricer"*, !dbg !4139
  %5 = getelementptr inbounds %"class.soplex::SPxPricer"* %4, i32 0, i32 2, !dbg !4139
  %6 = load %"class.soplex::SoPlex"** %5, align 8, !dbg !4139
  %7 = icmp ne %"class.soplex::SoPlex"* %6, null, !dbg !4139
  br i1 %7, label %8, label %9, !dbg !4139

; <label>:8                                       ; preds = %0
  br label %11, !dbg !4140

; <label>:9                                       ; preds = %0
  call void @__assert_fail(i8* getelementptr inbounds ([15 x i8]* @.str13, i32 0, i32 0), i8* getelementptr inbounds ([14 x i8]* @.str1, i32 0, i32 0), i32 563, i8* getelementptr inbounds ([51 x i8]* @__PRETTY_FUNCTION__._ZN6soplex10SPxSteepPR12removedCoVecEi, i32 0, i32 0)) #11, !dbg !4142
  unreachable, !dbg !4142
                                                  ; No predecessors!
  br label %11, !dbg !4139

; <label>:11                                      ; preds = %10, %8
  %12 = getelementptr inbounds %"class.soplex::SPxSteepPR"* %3, i32 0, i32 2, !dbg !4144
  %13 = bitcast %"class.soplex::DVector"* %12 to %"class.soplex::Vector"*, !dbg !4144
  %14 = getelementptr inbounds %"class.soplex::SPxSteepPR"* %3, i32 0, i32 2, !dbg !4145
  %15 = bitcast %"class.soplex::DVector"* %14 to %"class.soplex::Vector"*, !dbg !4145
  %16 = call i32 @_ZNK6soplex6Vector3dimEv(%"class.soplex::Vector"* %15), !dbg !4145
  %17 = call dereferenceable(8) double* @_ZN6soplex6VectorixEi(%"class.soplex::Vector"* %13, i32 %16), !dbg !4144
  %18 = load double* %17, !dbg !4144
  %19 = getelementptr inbounds %"class.soplex::SPxSteepPR"* %3, i32 0, i32 2, !dbg !4146
  %20 = bitcast %"class.soplex::DVector"* %19 to %"class.soplex::Vector"*, !dbg !4146
  %21 = load i32* %2, align 4, !dbg !4147
  %22 = call dereferenceable(8) double* @_ZN6soplex6VectorixEi(%"class.soplex::Vector"* %20, i32 %21), !dbg !4146
  store double %18, double* %22, !dbg !4146
  %23 = getelementptr inbounds %"class.soplex::SPxSteepPR"* %3, i32 0, i32 2, !dbg !4148
  %24 = bitcast %"class.soplex::SPxSteepPR"* %3 to %"class.soplex::SPxPricer"*, !dbg !4149
  %25 = getelementptr inbounds %"class.soplex::SPxPricer"* %24, i32 0, i32 2, !dbg !4149
  %26 = load %"class.soplex::SoPlex"** %25, align 8, !dbg !4149
  %27 = call i32 @_ZNK6soplex6SoPlex3dimEv(%"class.soplex::SoPlex"* %26), !dbg !4149
  call void @_ZN6soplex7DVector5reDimEi(%"class.soplex::DVector"* %23, i32 %27), !dbg !4148
  %28 = getelementptr inbounds %"class.soplex::SPxSteepPR"* %3, i32 0, i32 8, !dbg !4150
  store i32 0, i32* %28, align 4, !dbg !4150
  ret void, !dbg !4151
}

; Function Attrs: uwtable
define void @_ZN6soplex10SPxSteepPR13removedCoVecsEPKi(%"class.soplex::SPxSteepPR"* %this, i32* %perm) unnamed_addr #4 align 2 {
  %1 = alloca %"class.soplex::SPxSteepPR"*, align 8
  %2 = alloca i32*, align 8
  %i = alloca i32, align 4
  %j = alloca i32, align 4
  store %"class.soplex::SPxSteepPR"* %this, %"class.soplex::SPxSteepPR"** %1, align 8
  call void @llvm.dbg.declare(metadata %"class.soplex::SPxSteepPR"** %1, metadata !4152, metadata !2573), !dbg !4153
  store i32* %perm, i32** %2, align 8
  call void @llvm.dbg.declare(metadata i32** %2, metadata !4154, metadata !2573), !dbg !4155
  %3 = load %"class.soplex::SPxSteepPR"** %1
  %4 = bitcast %"class.soplex::SPxSteepPR"* %3 to %"class.soplex::SPxPricer"*, !dbg !4156
  %5 = getelementptr inbounds %"class.soplex::SPxPricer"* %4, i32 0, i32 2, !dbg !4156
  %6 = load %"class.soplex::SoPlex"** %5, align 8, !dbg !4156
  %7 = icmp ne %"class.soplex::SoPlex"* %6, null, !dbg !4156
  br i1 %7, label %8, label %9, !dbg !4156

; <label>:8                                       ; preds = %0
  br label %11, !dbg !4157

; <label>:9                                       ; preds = %0
  call void @__assert_fail(i8* getelementptr inbounds ([15 x i8]* @.str13, i32 0, i32 0), i8* getelementptr inbounds ([14 x i8]* @.str1, i32 0, i32 0), i32 571, i8* getelementptr inbounds ([60 x i8]* @__PRETTY_FUNCTION__._ZN6soplex10SPxSteepPR13removedCoVecsEPKi, i32 0, i32 0)) #11, !dbg !4159
  unreachable, !dbg !4159
                                                  ; No predecessors!
  br label %11, !dbg !4156

; <label>:11                                      ; preds = %10, %8
  call void @llvm.dbg.declare(metadata i32* %i, metadata !4161, metadata !2573), !dbg !4162
  call void @llvm.dbg.declare(metadata i32* %j, metadata !4163, metadata !2573), !dbg !4164
  %12 = getelementptr inbounds %"class.soplex::SPxSteepPR"* %3, i32 0, i32 2, !dbg !4165
  %13 = bitcast %"class.soplex::DVector"* %12 to %"class.soplex::Vector"*, !dbg !4165
  %14 = call i32 @_ZNK6soplex6Vector3dimEv(%"class.soplex::Vector"* %13), !dbg !4165
  store i32 %14, i32* %j, align 4, !dbg !4164
  store i32 0, i32* %i, align 4, !dbg !4166
  br label %15, !dbg !4166

; <label>:15                                      ; preds = %41, %11
  %16 = load i32* %i, align 4, !dbg !4168
  %17 = load i32* %j, align 4, !dbg !4172
  %18 = icmp slt i32 %16, %17, !dbg !4173
  br i1 %18, label %19, label %44, !dbg !4174

; <label>:19                                      ; preds = %15
  %20 = load i32* %i, align 4, !dbg !4175
  %21 = sext i32 %20 to i64, !dbg !4177
  %22 = load i32** %2, align 8, !dbg !4177
  %23 = getelementptr inbounds i32* %22, i64 %21, !dbg !4177
  %24 = load i32* %23, align 4, !dbg !4177
  %25 = icmp sge i32 %24, 0, !dbg !4177
  br i1 %25, label %26, label %40, !dbg !4178

; <label>:26                                      ; preds = %19
  %27 = getelementptr inbounds %"class.soplex::SPxSteepPR"* %3, i32 0, i32 2, !dbg !4179
  %28 = bitcast %"class.soplex::DVector"* %27 to %"class.soplex::Vector"*, !dbg !4179
  %29 = load i32* %i, align 4, !dbg !4180
  %30 = call dereferenceable(8) double* @_ZN6soplex6VectorixEi(%"class.soplex::Vector"* %28, i32 %29), !dbg !4179
  %31 = load double* %30, !dbg !4179
  %32 = getelementptr inbounds %"class.soplex::SPxSteepPR"* %3, i32 0, i32 2, !dbg !4181
  %33 = bitcast %"class.soplex::DVector"* %32 to %"class.soplex::Vector"*, !dbg !4181
  %34 = load i32* %i, align 4, !dbg !4182
  %35 = sext i32 %34 to i64, !dbg !4183
  %36 = load i32** %2, align 8, !dbg !4183
  %37 = getelementptr inbounds i32* %36, i64 %35, !dbg !4183
  %38 = load i32* %37, align 4, !dbg !4183
  %39 = call dereferenceable(8) double* @_ZN6soplex6VectorixEi(%"class.soplex::Vector"* %33, i32 %38), !dbg !4181
  store double %31, double* %39, !dbg !4181
  br label %40, !dbg !4181

; <label>:40                                      ; preds = %26, %19
  br label %41, !dbg !4184

; <label>:41                                      ; preds = %40
  %42 = load i32* %i, align 4, !dbg !4186
  %43 = add nsw i32 %42, 1, !dbg !4186
  store i32 %43, i32* %i, align 4, !dbg !4186
  br label %15, !dbg !4187

; <label>:44                                      ; preds = %15
  %45 = getelementptr inbounds %"class.soplex::SPxSteepPR"* %3, i32 0, i32 2, !dbg !4188
  %46 = bitcast %"class.soplex::SPxSteepPR"* %3 to %"class.soplex::SPxPricer"*, !dbg !4189
  %47 = getelementptr inbounds %"class.soplex::SPxPricer"* %46, i32 0, i32 2, !dbg !4189
  %48 = load %"class.soplex::SoPlex"** %47, align 8, !dbg !4189
  %49 = call i32 @_ZNK6soplex6SoPlex3dimEv(%"class.soplex::SoPlex"* %48), !dbg !4189
  call void @_ZN6soplex7DVector5reDimEi(%"class.soplex::DVector"* %45, i32 %49), !dbg !4188
  %50 = getelementptr inbounds %"class.soplex::SPxSteepPR"* %3, i32 0, i32 8, !dbg !4190
  store i32 0, i32* %50, align 4, !dbg !4190
  ret void, !dbg !4191
}

; Function Attrs: uwtable
define zeroext i1 @_ZNK6soplex10SPxSteepPR12isConsistentEv(%"class.soplex::SPxSteepPR"* %this) unnamed_addr #4 align 2 {
  %1 = alloca i1, align 1
  %2 = alloca %"class.soplex::SPxSteepPR"*, align 8
  %i = alloca i32, align 4
  %tmp = alloca %"class.soplex::SSVector", align 8
  %x = alloca double, align 8
  %3 = alloca i8*
  %4 = alloca i32
  %i1 = alloca i32, align 4
  store %"class.soplex::SPxSteepPR"* %this, %"class.soplex::SPxSteepPR"** %2, align 8
  call void @llvm.dbg.declare(metadata %"class.soplex::SPxSteepPR"** %2, metadata !4192, metadata !2573), !dbg !4194
  %5 = load %"class.soplex::SPxSteepPR"** %2
  %6 = bitcast %"class.soplex::SPxSteepPR"* %5 to %"class.soplex::SPxPricer"*, !dbg !4195
  %7 = getelementptr inbounds %"class.soplex::SPxPricer"* %6, i32 0, i32 2, !dbg !4195
  %8 = load %"class.soplex::SoPlex"** %7, align 8, !dbg !4195
  %9 = icmp ne %"class.soplex::SoPlex"* %8, null, !dbg !4195
  br i1 %9, label %10, label %98, !dbg !4197

; <label>:10                                      ; preds = %0
  %11 = bitcast %"class.soplex::SPxSteepPR"* %5 to %"class.soplex::SPxPricer"*, !dbg !4198
  %12 = getelementptr inbounds %"class.soplex::SPxPricer"* %11, i32 0, i32 2, !dbg !4198
  %13 = load %"class.soplex::SoPlex"** %12, align 8, !dbg !4198
